
CH582M-app-ds2480b.elf:     file format elf32-littleriscv
CH582M-app-ds2480b.elf
architecture: riscv:rv32, flags 0x00000112:
EXEC_P, HAS_SYMS, D_PAGED
start address 0x00000000

Program Header:
    LOAD off    0x00001000 vaddr 0x00000000 paddr 0x00000000 align 2**12
         filesz 0x00000084 memsz 0x00000084 flags rwx
    LOAD off    0x00002000 vaddr 0x20000000 paddr 0x00000084 align 2**12
         filesz 0x00000a8c memsz 0x00000a8c flags r-x
    LOAD off    0x00002b10 vaddr 0x00000b10 paddr 0x00000b10 align 2**12
         filesz 0x0000cc00 memsz 0x0000cc00 flags r-x
    LOAD off    0x0000fa8c vaddr 0x20000a8c paddr 0x0000d710 align 2**12
         filesz 0x0000066c memsz 0x000014c8 flags rw-

Sections:
Idx Name          Size      VMA       LMA       File off  Algn
  0 .init         00000004  00000000  00000000  00001000  2**1
                  CONTENTS, ALLOC, LOAD, READONLY, CODE
  1 .appinfo      00000080  00000004  00000004  00001004  2**2
                  CONTENTS, ALLOC, LOAD, DATA
  2 .highcodelalign 00000000  00000084  00000084  000100f8  2**0
                  CONTENTS
  3 .highcode     00000a8c  20000000  00000084  00002000  2**1
                  CONTENTS, ALLOC, LOAD, READONLY, CODE
  4 .text         0000cc00  00000b10  00000b10  00002b10  2**3
                  CONTENTS, ALLOC, LOAD, READONLY, CODE
  5 .fini         00000000  0000d710  0000d710  000100f8  2**0
                  CONTENTS, ALLOC, LOAD, CODE
  6 .dalign       00000000  20000a8c  20000a8c  000100f8  2**0
                  CONTENTS
  7 .dlalign      00000000  0000d710  0000d710  000100f8  2**0
                  CONTENTS
  8 .data         0000066c  20000a8c  0000d710  0000fa8c  2**2
                  CONTENTS, ALLOC, LOAD, DATA
  9 .bss          00000e5c  200010f8  0000dd7c  000100f8  2**3
                  ALLOC
 10 .stack        00000000  20008000  20008000  000100f8  2**0
                  CONTENTS
 11 .debug_info   00021a3f  00000000  00000000  000100f8  2**0
                  CONTENTS, READONLY, DEBUGGING
 12 .debug_abbrev 0000565e  00000000  00000000  00031b37  2**0
                  CONTENTS, READONLY, DEBUGGING
 13 .debug_loc    0000acf5  00000000  00000000  00037195  2**0
                  CONTENTS, READONLY, DEBUGGING
 14 .debug_aranges 000008f8  00000000  00000000  00041e90  2**3
                  CONTENTS, READONLY, DEBUGGING
 15 .debug_ranges 000011e0  00000000  00000000  00042788  2**3
                  CONTENTS, READONLY, DEBUGGING
 16 .debug_line   00011875  00000000  00000000  00043968  2**0
                  CONTENTS, READONLY, DEBUGGING
 17 .debug_str    00003de4  00000000  00000000  000551dd  2**0
                  CONTENTS, READONLY, DEBUGGING
 18 .comment      00000033  00000000  00000000  00058fc1  2**0
                  CONTENTS, READONLY
 19 .debug_frame  000032a8  00000000  00000000  00058ff4  2**2
                  CONTENTS, READONLY, DEBUGGING
 20 .stab         00000084  00000000  00000000  0005c29c  2**2
                  CONTENTS, READONLY, DEBUGGING
 21 .stabstr      00000117  00000000  00000000  0005c320  2**0
                  CONTENTS, READONLY, DEBUGGING
SYMBOL TABLE:
00000000 l    d  .init	00000000 .init
00000004 l    d  .appinfo	00000000 .appinfo
00000084 l    d  .highcodelalign	00000000 .highcodelalign
20000000 l    d  .highcode	00000000 .highcode
00000b10 l    d  .text	00000000 .text
0000d710 l    d  .fini	00000000 .fini
20000a8c l    d  .dalign	00000000 .dalign
0000d710 l    d  .dlalign	00000000 .dlalign
20000a8c l    d  .data	00000000 .data
200010f8 l    d  .bss	00000000 .bss
20008000 l    d  .stack	00000000 .stack
00000000 l    d  .debug_info	00000000 .debug_info
00000000 l    d  .debug_abbrev	00000000 .debug_abbrev
00000000 l    d  .debug_loc	00000000 .debug_loc
00000000 l    d  .debug_aranges	00000000 .debug_aranges
00000000 l    d  .debug_ranges	00000000 .debug_ranges
00000000 l    d  .debug_line	00000000 .debug_line
00000000 l    d  .debug_str	00000000 .debug_str
00000000 l    d  .comment	00000000 .comment
00000000 l    d  .debug_frame	00000000 .debug_frame
00000000 l    d  .stab	00000000 .stab
00000000 l    d  .stabstr	00000000 .stabstr
00000000 l    df *ABS*	00000000 ./Startup/startup_CH583.o
20000000 l       .highcode	00000000 _vector_base
00000000 l    df *ABS*	00000000 appinfo.c
00000004 l     O .appinfo	0000002e appinfo
00000000 l    df *ABS*	00000000 gpio.c
200012e0 l     O .bss	00000144 gpio_ctx
00000000 l    df *ABS*	00000000 modbus.c
00002a3e l     F .text	00000022 modbus_slave_allocator
00002a9c l     F .text	00000042 modbus_t05_cnt
20001428 l     O .bss	00000260 mb_slave_ctx
20001109 l     O .bss	00000001 mb_timer_ref
00000000 l    df *ABS*	00000000 uart.c
20000d2c l     O .data	000001f0 uart_ctx
00000000 l    df *ABS*	00000000 worktime.c
20001118 l     O .bss	00000008 worktime
00000000 l    df *ABS*	00000000 CH58x_sys.c
00000000 l    df *ABS*	00000000 ISP583.c
20000676 l       .highcode	00000000 .loop18
20000684 l       .highcode	00000000 .loop29
20000692 l       .highcode	00000000 .loop40
2000091e l       .highcode	00000000 .loop402
00000000 l    df *ABS*	00000000 crc.c
00000000 l    df *ABS*	00000000 log.c
00000000 l    df *ABS*	00000000 coils.c
00000000 l    df *ABS*	00000000 discrete_input.c
200010f8 l     O .bss	00000001 mb_di_cache
00000000 l    df *ABS*	00000000 iregs.c
200010fc l     O .bss	00000004 mb_iregs
00000000 l    df *ABS*	00000000 regs.c
000013f0 l     F .text	00000042 modbus_reg_read
2000112c l     O .bss	0000000e mb_config_regs
2000113c l     O .bss	000000e0 mb_ro_regs
2000121c l     O .bss	0000001e mb_rwa_regs
0000c2a0 l     O .text	00000030 mb_reg_segs
20001100 l     O .bss	00000004 mb_test_regs
00000000 l    df *ABS*	00000000 commun.c
00000000 l    df *ABS*	00000000 onewire.c
0000c364 l     O .text	00000009 __FUNCTION__.4199
0000c370 l     O .text	0000000f __FUNCTION__.4273
0000c380 l     O .text	00000100 dscrc_table
00000000 l    df *ABS*	00000000 uart-ds2480.c
00000000 l    df *ABS*	00000000 Main.c
00000000 l    df *ABS*	00000000 configtool.c
00001e34 l     F .text	000000d0 cfg_save_item
2000123c l     O .bss	0000004c cfg_cache
20000c8c l     O .data	00000050 cfg_items
0000c54c l     O .text	00000010 __FUNCTION__.4089
0000c55c l     O .text	00000013 __FUNCTION__.4094
0000c570 l     O .text	00000010 __FUNCTION__.4111
20001108 l     O .bss	00000001 cfg_flag_init
00000000 l    df *ABS*	00000000 display.c
20001288 l     O .bss	00000010 line_idx
20001298 l     O .bss	00000048 lines
00000000 l    df *ABS*	00000000 liblightmodbus-impl.c
0000223e l     F .text	00000006 modbusSlaveAllocateResponse
00002298 l     F .text	00000006 modbusSlaveFreeResponse
0000c658 l     O .text	00000034 CSWTCH.34
0000d6f8 l     O .text	00000004 CSWTCH.31
0000d6fc l     O .text	00000008 CSWTCH.32
0000d704 l     O .text	00000004 CSWTCH.33
00000000 l    df *ABS*	00000000 oled.c
20001688 l     O .bss	00000480 OLED_GRAM
2000110a l     O .bss	00000001 flag_refresh
00000000 l    df *ABS*	00000000 sensor.c
00003222 l     F .text	000000bc mb_reg_after_write
2000110c l     O .bss	00000008 sensor_ctx
00000000 l    df *ABS*	00000000 storage.c
000033c8 l     F .text	0000004e st_page_status_str
00003416 l     F .text	0000003a st_item_verify
00003450 l     F .text	00000074 st_page_read
000034c4 l     F .text	00000098 st_page_erase
0000355c l     F .text	000000de st_page_status_update.constprop.12
0000363a l     F .text	0000004c st_page_get_freesize.constprop.13
00003686 l     F .text	00000042 st_first_page.constprop.11
000036c8 l     F .text	0000008a st_page_write
00003752 l     F .text	0000014e st_page_write_item.constprop.10
00003a20 l     F .text	00000280 st_find_item
20001b08 l     O .bss	00000414 st_ctx
0000ca3c l     O .text	0000000b __FUNCTION__.4144
0000ca48 l     O .text	00000018 __FUNCTION__.4169
00000000 l    df *ABS*	00000000 uid.c
20001f1c l     O .bss	00000009 uid
20001114 l     O .bss	00000001 uid_read
00000000 l    df *ABS*	00000000 CH58x_gpio.c
00000000 l    df *ABS*	00000000 CH58x_timer0.c
00000000 l    df *ABS*	00000000 CH58x_uart0.c
00000000 l    df *ABS*	00000000 libgcc2.c
00000000 l    df *ABS*	00000000 locale.c
00000000 l    df *ABS*	00000000 malloc.c
00000000 l    df *ABS*	00000000 mbtowc_r.c
00000000 l    df *ABS*	00000000 memcmp.c
00000000 l    df *ABS*	00000000 memcpy.c
00000000 l    df *ABS*	00000000 nano-mallocr.c
00000000 l    df *ABS*	00000000 nano-mallocr.c
00000000 l    df *ABS*	00000000 nano-vfprintf_float.c
00000000 l    df *ABS*	00000000 nano-vfprintf_i.c
00000000 l    df *ABS*	00000000 nano-vfscanf_float.c
00000000 l    df *ABS*	00000000 printf.c
00000000 l    df *ABS*	00000000 puts.c
00000000 l    df *ABS*	00000000 sbrkr.c
00000000 l    df *ABS*	00000000 sf_nan.c
00000000 l    df *ABS*	00000000 sprintf.c
00000000 l    df *ABS*	00000000 strlen.c
00000000 l    df *ABS*	00000000 strncmp.c
00000000 l    df *ABS*	00000000 strtod.c
0000632e l     F .text	0000004e sulp
0000d368 l     O .text	00000014 fpi.3395
0000d37c l     O .text	00000014 fpinan.3431
0000d390 l     O .text	00000028 tinytens
00000000 l    df *ABS*	00000000 strtol.c
0000700e l     F .text	00000144 _strtol_l.isra.0
00000000 l    df *ABS*	00000000 wbuf.c
00000000 l    df *ABS*	00000000 wctomb_r.c
00000000 l    df *ABS*	00000000 wsetup.c
00000000 l    df *ABS*	00000000 dtoa.c
00007360 l     F .text	0000013a quorem
00000000 l    df *ABS*	00000000 fflush.c
00000000 l    df *ABS*	00000000 findfp.c
0000825e l     F .text	0000006a std
00000000 l    df *ABS*	00000000 fwalk.c
00000000 l    df *ABS*	00000000 gdtoa-gethex.c
0000849a l     F .text	00000076 rshift
00000000 l    df *ABS*	00000000 gdtoa-hexnan.c
00008a1e l     F .text	0000002c L_shift
00000000 l    df *ABS*	00000000 localeconv.c
00000000 l    df *ABS*	00000000 makebuf.c
00000000 l    df *ABS*	00000000 memchr.c
00000000 l    df *ABS*	00000000 mlock.c
00000000 l    df *ABS*	00000000 mprec.c
0000d658 l     O .text	0000000c p05.3319
00000000 l    df *ABS*	00000000 nano-mallocr.c
00000000 l    df *ABS*	00000000 nano-mallocr.c
00000000 l    df *ABS*	00000000 nano-vfprintf.c
00000000 l    df *ABS*	00000000 nano-vfprintf.c
00009a8c l     F .text	0000002a __sfputc_r
00000000 l    df *ABS*	00000000 stdio.c
00000000 l    df *ABS*	00000000 writer.c
00000000 l    df *ABS*	00000000 closer.c
00000000 l    df *ABS*	00000000 fstatr.c
00000000 l    df *ABS*	00000000 isattyr.c
00000000 l    df *ABS*	00000000 lseekr.c
00000000 l    df *ABS*	00000000 memmove.c
00000000 l    df *ABS*	00000000 nano-mallocr.c
00000000 l    df *ABS*	00000000 readr.c
00000000 l    df *ABS*	00000000 adddf3.c
00000000 l    df *ABS*	00000000 divdf3.c
00000000 l    df *ABS*	00000000 eqdf2.c
00000000 l    df *ABS*	00000000 gedf2.c
00000000 l    df *ABS*	00000000 ledf2.c
00000000 l    df *ABS*	00000000 muldf3.c
00000000 l    df *ABS*	00000000 subdf3.c
00000000 l    df *ABS*	00000000 unorddf2.c
00000000 l    df *ABS*	00000000 fixdfsi.c
00000000 l    df *ABS*	00000000 fixunsdfsi.c
00000000 l    df *ABS*	00000000 floatsidf.c
00000000 l    df *ABS*	00000000 floatunsidf.c
00000000 l    df *ABS*	00000000 extenddftf2.c
00000000 l    df *ABS*	00000000 truncdfsf2.c
00000000 l    df *ABS*	00000000 trunctfdf2.c
00000000 l    df *ABS*	00000000 libgcc2.c
00000000 l    df *ABS*	00000000 close.c
00000000 l    df *ABS*	00000000 fstat.c
00000000 l    df *ABS*	00000000 isatty.c
00000000 l    df *ABS*	00000000 lseek.c
00000000 l    df *ABS*	00000000 read.c
00000000 l    df *ABS*	00000000 sbrk.c
20001128 l     O .bss	00000004 heap_end.1518
00000000 l    df *ABS*	00000000 libgcc2.c
00000000 l    df *ABS*	00000000 ctype_.c
00000000 l    df *ABS*	00000000 impure.c
20001088 l     O .data	00000060 impure_data
00000000 l    df *ABS*	00000000 reent.c
00000ff4 g     F .text	0000007c check_crc16
00009f7a g     F .text	00000014 _malloc_usable_size_r
000052d8 g     F .text	000000ee __cvt
20000a8c g     O .data	00000200 smail_64x64_1
00009658 g     F .text	00000046 __any_on
00009ed8 g     F .text	0000002a _isatty_r
00006186 g     F .text	000000e4 _puts_r
00009f02 g     F .text	0000002e _lseek_r
20000692 g     F .highcode	0000000e FLASH_ROM_OUT
00001e2e g     F .text	00000006 appinfo_get
000015aa g     F .text	00000036 modbus_regs_init
0000aca0 g     F .text	0000006a .hidden __eqdf2
00001bd2 g     F .text	0000000e OWFirst
00006144 g     F .text	00000042 printf
200018e8 g       .data	00000000 __global_pointer$
00002284 g     F .text	00000014 modbusSlaveInit
00009e18 g     F .text	00000036 __sseek
0000831a g     F .text	00000070 __sinit
00007168 g     F .text	000000c6 __swbuf_r
2000062e g     F .highcode	0000000e mDelayuS
200005f4 g     F .highcode	0000003a HardFault_Handler
0000161c g     F .text	00000066 find_device
000012fc g     F .text	0000007c modbus_di_callback
000082d2 g     F .text	00000048 __sfmoreglue
2000010e g     F .highcode	00000024 GPIOB_IRQHandler
00008d10 g     F .text	00000002 __malloc_unlock
00004c40 g     F .text	00000030 UART0_BaudRateCfg
000024ae g     F .text	0000011a modbusParseRequest0506
00004c70 g     F .text	00000028 UART0_SendString
000022e2 g     F .text	000001cc modbusParseRequest01020304
00001586 g     F .text	00000024 modbus_reg_update_uid
200000c6 g     F .highcode	00000048 GPIOA_IRQHandler
00006ff8 g     F .text	00000016 _strtod_r
2000043c g     F .highcode	00000022 SysTick_Handler
00008510 g     F .text	00000040 __hexdig_fun
20001f28 g     O .bss	00000004 UBaud
00009f30 g     F .text	0000004a memmove
20000090  w      .highcode	00000000 NMI_Handler
00008d12 g     F .text	0000008c _Balloc
00001682 g     F .text	0000001e docrc8
20000268 g     F .highcode	0000009c UART1_IRQHandler
0000ad0a g     F .text	000000ae .hidden __gtdf2
00002e16 g     F .text	00000036 modbus_run
00004870 g     F .text	000000c6 uart_send
00008bda g     F .text	00000006 __localeconv_l
00009eac g     F .text	0000002c _fstat_r
20001f50 g     O .bss	00000004 errno
200010f8 g       .bss	00000000 _sbss
00002238 g     F .text	00000006 modbusBufferFree
00004022 g     F .text	00000448 st_write_item
00002ba0 g     F .text	0000003c modbus_slave_uart_init
20000684 g     F .highcode	0000000e FLASH_ROM_IN
00001c16 g     F .text	0000002c uart_write
00001cba g     F .text	000000a6 reset_dump
00001f04 g     F .text	00000042 cfg_get_mb_uart
000016a0 g     F .text	000000ec DS2480B_Detect
00002ade g     F .text	000000c2 slave_recv
200001d4 g     F .highcode	00000094 UART0_IRQHandler
000050a0 g     F .text	000000b6 memcpy
00008a7a g     F .text	00000160 __hexnan
0000229e g     F .text	00000044 modbusBuildException
000021e8 g     F .text	00000050 modbusBufferAllocateADU
000044ec g     F .text	00000082 uart_set_stopbits
00003116 g     F .text	0000010c OLED_Init
000082c8 g     F .text	0000000a _cleanup_r
0000980e g     F .text	0000027e _svfprintf_r
0000bb64 g     F .text	00000070 .hidden __floatsidf
0000adb8 g     F .text	000000b6 .hidden __ltdf2
0000626a g     F .text	0000000a puts
000032de g     F .text	00000076 mb_init
000095ae g     F .text	00000074 __ratio
00005036 g     F .text	0000000a malloc
0000c1e4 g     F .text	0000000c _fstat
000049e8 g     F .text	00000032 get_uid
0000d590 g     O .text	000000c8 __mprec_tens
00000004 g       .init	00000000 _einit
0000bb08 g     F .text	0000005c .hidden __fixunsdfsi
00001fea g     F .text	000000e6 cfg_init
200000a6  w      .highcode	00000000 BB_IRQHandler
20000720 g     F .highcode	0000036a FLASH_EEPROM_CMD
20000098  w      .highcode	00000000 Break_Point_Handler
00004b1c g     F .text	000000a6 GPIOB_ModeCfg
00008be0 g     F .text	00000018 _localeconv_r
00008fd0 g     F .text	0000001c __i2b
00000d1e g     F .text	00000098 check_crc4
00006274 g     F .text	0000002a _sbrk_r
20000132 g     F .highcode	000000a2 TMR0_IRQHandler
00009f8e g     F .text	0000002e _read_r
20001f2c g     O .bss	00000008 ROM_NO
20000664 g     F .highcode	00000012 FLASH_ROM_BEG
00002ee4 g     F .text	00000074 OLED_Refresh
20001f34 g     O .bss	00000001 crc8
00001862 g     F .text	00000114 OWReset
000020f0 g     F .text	00000062 gpio_set_direction
00009fbc g     F .text	00000730 .hidden __adddf3
2000063c g     F .highcode	00000028 mDelaymS
20000094  w      .highcode	00000000 Ecall_M_Mode_Handler
00001be0 g     F .text	00000002 OWNext
00009426 g     F .text	000000b4 __b2d
0000c1f0 g     F .text	0000000c _isatty
00002152 g     F .text	00000084 gpio_set_level
0000d70c g     O .text	00000004 _global_impure_ptr
200006a0 g     F .highcode	00000048 FLASH_ROM_ADDR
000096c6 g     F .text	0000005a _realloc_r
00004c98 g     F .text	00000398 .hidden __udivdi3
0000d568 g     O .text	00000028 __mprec_bigtens
00008e7a g     F .text	000000a6 __s2b
0000bbd4 g     F .text	00000066 .hidden __floatunsidf
0000c214 g     F .text	00000020 _sbrk
000092bc g     F .text	00000032 __mcmp
000015e0 g     F .text	0000003c bitacc
0000178c g     F .text	000000d6 OWLevel
200000b6  w      .highcode	00000000 RTC_IRQHandler
0000637c g     F .text	00000c7c _strtod_l
00008a4a g     F .text	00000030 __match
20001f54 g       .bss	00000000 _ebss
0000d708 g     O .text	00000001 modbusSlaveDefaultFunctionCount
00002798 g     F .text	0000015e modbusParseRequest22
00000c62 g     F .text	000000bc reflected_data
00008f20 g     F .text	00000046 __hi0bits
0000baa0 g     F .text	00000068 .hidden __fixdfsi
0000456e g     F .text	0000008a uart_set_databits
200006e8 g     F .highcode	00000038 FLASH_ROM_WAIT
00002244 g     F .text	00000040 modbusCRC
20001f38 g     O .bss	00000004 USpeed
00002c00 g     F .text	000000d0 modbus_slave_init
0000adb8 g     F .text	000000b6 .hidden __ledf2
00009130 g     F .text	000000be __pow5mult
0000d508 g     O .text	00000020 __sf_fake_stderr
20000cdc g     O .data	00000050 modbusSlaveDefaultFunctions
20001f54 g       .bss	00000000 end
20000304 g     F .highcode	0000009c UART2_IRQHandler
200000bc  w      .highcode	00000000 PWMX_IRQHandler
00002a60 g     F .text	0000003c register_callback
00009720 g     F .text	000000ee __ssputs_r
00002a1e g     F .text	00000020 modbusErrorStr
0000c162 g     F .text	00000076 .hidden __clzsi2
00009ab6 g     F .text	00000044 __sfputs_r
00002f88 g     F .text	0000004a OLED_DrawPoint
000046ca g     F .text	000001a6 uart_init
00008cf4 g     F .text	0000001a memchr
00001976 g     F .text	0000025c OWSearch
00005452  w    F .text	000004c4 _printf_float
00005156 g     F .text	000000a8 _free_r
000045f8 g     F .text	00000064 uart_set_baudrate
00000000 g       .init	00000000 _start
0000c1fc g     F .text	0000000c _lseek
00001faa g     F .text	00000040 cfg_get_mb_addr
000091ee g     F .text	000000ce __lshift
00004a1a g     F .text	0000003a worktime_init
20001f3c g     O .bss	00000004 LastFamilyDiscrepancy
00006302 g     F .text	0000002c strncmp
200000b8  w      .highcode	00000000 ADC_IRQHandler
20000000 g       .highcode	00000000 _highcode_vma_start
00001c42 g     F .text	00000010 change_baud_rate
00008fec g     F .text	00000144 __multiply
000013b8 g     F .text	00000038 modbus_reg_update
000094da g     F .text	000000d4 __d2b
00004a54 g     F .text	0000000a worktime_get
200000b0  w      .highcode	00000000 TMR2_IRQHandler
00001be2 g     F .text	00000034 uart_send_break
0000bc3a g     F .text	000001a0 .hidden __extenddftf2
000028f6 g     F .text	00000038 modbusParseRequest
00009e82 g     F .text	0000002a _close_r
20000a8c g       .data	00000000 _data_vma
0000507a g     F .text	00000026 memcmp
0000292e g     F .text	000000f0 modbusParseRequestRTU
000013f0 g     F .text	00000042 modbus_reg_get
2000045e g     F .highcode	0000015a SetSysClock
00002bdc g     F .text	00000024 modbus_slave_uart_send
200000aa  w      .highcode	00000000 USB_IRQHandler
0000724e g     F .text	00000112 __swsetup_r
0000a6ec g     F .text	000005b4 .hidden __divdf3
0000838a g     F .text	000000a4 __sfp
00009622 g     F .text	00000036 __copybits
0000ae6e g     F .text	000004b8 .hidden __muldf3
00009d9a g     F .text	00000030 __sread
00008d0e g     F .text	00000002 __malloc_lock
000081f8 g     F .text	00000066 _fflush_r
000011c4 g     F .text	000000d6 log_buffer_hex
0000969e g     F .text	00000028 _calloc_r
00002f58 g     F .text	00000030 OLED_Clear
0000d528 g     O .text	00000020 __sf_fake_stdin
200000ba  w      .highcode	00000000 I2C_IRQHandler
00000bba g     F .text	000000a8 memset
00001d60 g     F .text	000000ce main
00000084 g       .appinfo	00000000 _e_appinfo
0000129a g     F .text	00000062 modbus_coil_callback
00009e4e g     F .text	00000006 __sclose
00004a5e g     F .text	00000018 worktime_since
00007152 g     F .text	00000016 _strtol_r
0000bdda g     F .text	0000016a .hidden __truncdfsf2
0000749a g     F .text	00000c20 _dtoa_r
000051fe g     F .text	000000da _malloc_r
0000722e g     F .text	00000020 __ascii_wctomb
200000ac  w      .highcode	00000000 USB2_IRQHandler
0000465c g     F .text	0000006e uart_set_parity
00000e4e g     F .text	00000098 check_crc6
20001f40 g     O .bss	00000004 LastDeviceFlag
00000084 g       .highcodelalign	00000000 _highcode_lma
0000aca0 g     F .text	0000006a .hidden __nedf2
00006144 g     F .text	00000042 iprintf
20001f44 g     O .bss	00000004 UMode
000062aa g     F .text	00000046 sprintf
0000d1a4 g     O .text	00000100 .hidden __clz_tab
000053c6 g     F .text	0000008c __exponent
200000a8  w      .highcode	00000000 LLE_IRQHandler
00000000 g       .init	00000000 _sinit
00001c52 g     F .text	00000068 uuid_dump
00009e54 g     F .text	0000002e _write_r
00002cd0 g     F .text	00000026 modbus_sa_ctrl
0000629e g     F .text	0000000c nanf
00005916 g     F .text	0000010c _printf_common
200010f0 g     O .data	00000004 _impure_ptr
000080ba g     F .text	0000013e __sflush_r
00002d50 g     F .text	000000c6 modbus_frame_check
0000980e g     F .text	0000027e _svfiprintf_r
00002cf6 g     F .text	0000005a modbus_init
00005040 g     F .text	0000003a __ascii_mbtowc
200000c4  w      .highcode	00000000 WDOG_BAT_IRQHandler
20000096  w      .highcode	00000000 Ecall_U_Mode_Handler
000093e0 g     F .text	00000046 __ulp
000020d0 g     F .text	00000020 display_init
200000be  w      .highcode	00000000 TMR3_IRQHandler
20008000 g       .stack	00000000 _eusrstack
2000009c  w      .highcode	00000000 SW_Handler
00004a76 g     F .text	000000a6 GPIOA_ModeCfg
20001f48 g     O .bss	00000004 LastDiscrepancy
00000f7e g     F .text	00000076 check_crc8
00001f46 g     F .text	00000064 cfg_update_mb_uart
00008bf8 g     F .text	0000005a __swhatbuf_r
0000446a g     F .text	00000082 st_read_item
00004bc2 g     F .text	00000042 GetSysClock
00004c04 g     F .text	00000028 _write
200010f8 g       .data	00000000 _edata
200000a4  w      .highcode	00000000 SPI0_IRQHandler
000010de g     F .text	000000e6 crc_check
20000a8c g       .highcode	00000000 _highcode_vma_end
0000d710 g       .dlalign	00000000 _data_lma
00001378 g     F .text	00000040 modbus_ireg_callback
00004936 g     F .text	000000b2 uart_read
00009dca g     F .text	0000004e __swrite
0000337a g     F .text	0000004e sensor_run
000030ac g     F .text	0000006a OLED_io_init
00009afa g     F .text	000002a0 _vfiprintf_r
0000842e g     F .text	0000006c _fwalk_reent
000092ee g     F .text	000000f2 __mdiff
00003ca0 g     F .text	00000382 st_init
000021d6 g     F .text	00000012 modbusBufferInit
0000d548 g     O .text	00000020 __sf_fake_stdout
000062aa g     F .text	00000046 siprintf
0000d3b8 g     O .text	00000101 _ctype_
00001070 g     F .text	0000006e check_crc32
0000c208 g     F .text	0000000c _read
00000db6 g     F .text	00000098 check_crc5
0000ba64 g     F .text	0000003c .hidden __unorddf2
00000b10  w      .text	00000000 handle_reset
000025c8 g     F .text	000001d0 modbusParseRequest1516
000038a0 g     F .text	00000180 st_delete_item_with_loc
00008c52 g     F .text	000000a2 __smakebuf_r
00002298 g     F .text	00000006 modbusSlaveDestroy
20001f4c g     O .bss	00000004 ULevel
000062f0 g     F .text	00000012 strlen
00005a22 g     F .text	000002ac _printf_i
00002fd2 g     F .text	000000da OLED_ShowPicture
00005030 g     F .text	00000006 __locale_ctype_ptr_l
0000ad0a g     F .text	000000ae .hidden __gedf2
200003a0 g     F .highcode	0000009c UART3_IRQHandler
00008550 g     F .text	000004ce __gethex
20001124 g     O .bss	00000004 __malloc_sbrk_start
20000676 g     F .highcode	0000000e FLASH_ROM_END
20001120 g     O .bss	00000004 __malloc_free_list
00003354 g     F .text	00000026 sensor_init
00002e4c g     F .text	00000098 OLED_WR_Byte
200010e8 g     O .data	00000008 mb_di_list
0000b326 g     F .text	0000073e .hidden __subdf3
00009afa g     F .text	000002a0 _vfprintf_r
200000ae  w      .highcode	00000000 TMR1_IRQHandler
00000004 g       .appinfo	00000000 _s_appinfo
00008f66 g     F .text	0000006a __lo0bits
20001104 g     O .bss	00000004 ALARM_RESET_COMPLIANCE
20000f1c g     O .data	0000016c __global_locale
200005b8 g     F .highcode	0000003c SYS_ResetExecute
0000bf44 g     F .text	0000021e .hidden __trunctfdf2
0000c1d8 g     F .text	0000000c _close
00005cce  w    F .text	00000476 _scanf_float
00008de2 g     F .text	00000098 __multadd
00008d9e g     F .text	00000044 _Bfree
00004c2c g     F .text	00000014 TMR0_TimerInit
00001432 g     F .text	00000154 modbus_reg_callback
00000ee6 g     F .text	00000098 check_crc7



Disassembly of section .init:

00000000 <_sinit>:
   0:	3110006f          	j	b10 <handle_reset>

Disassembly of section .highcode:

20000000 <_highcode_vma_start>:
	...
20000008:	0090                	addi	a2,sp,64
2000000a:	2000                	fld	fs0,0(s0)
2000000c:	05f4                	addi	a3,sp,716
2000000e:	2000                	fld	fs0,0(s0)
20000010:	bda9                	j	1ffffe6a <_data_lma+0x1fff275a>
20000012:	f5f9                	bnez	a1,1fffffe0 <_data_lma+0x1fff28d0>
20000014:	0094                	addi	a3,sp,64
20000016:	2000                	fld	fs0,0(s0)
	...
20000020:	0096                	slli	ra,ra,0x5
20000022:	2000                	fld	fs0,0(s0)
20000024:	0098                	addi	a4,sp,64
20000026:	2000                	fld	fs0,0(s0)
	...
20000030:	043c                	addi	a5,sp,520
20000032:	2000                	fld	fs0,0(s0)
20000034:	0000                	unimp
20000036:	0000                	unimp
20000038:	009c                	addi	a5,sp,64
2000003a:	2000                	fld	fs0,0(s0)
2000003c:	0000                	unimp
2000003e:	0000                	unimp
20000040:	0132                	slli	sp,sp,0xc
20000042:	2000                	fld	fs0,0(s0)
20000044:	00c6                	slli	ra,ra,0x11
20000046:	2000                	fld	fs0,0(s0)
20000048:	010e                	slli	sp,sp,0x3
2000004a:	2000                	fld	fs0,0(s0)
2000004c:	00a4                	addi	s1,sp,72
2000004e:	2000                	fld	fs0,0(s0)
20000050:	00a6                	slli	ra,ra,0x9
20000052:	2000                	fld	fs0,0(s0)
20000054:	00a8                	addi	a0,sp,72
20000056:	2000                	fld	fs0,0(s0)
20000058:	00aa                	slli	ra,ra,0xa
2000005a:	2000                	fld	fs0,0(s0)
2000005c:	00ac                	addi	a1,sp,72
2000005e:	2000                	fld	fs0,0(s0)
20000060:	00ae                	slli	ra,ra,0xb
20000062:	2000                	fld	fs0,0(s0)
20000064:	00b0                	addi	a2,sp,72
20000066:	2000                	fld	fs0,0(s0)
20000068:	01d4                	addi	a3,sp,196
2000006a:	2000                	fld	fs0,0(s0)
2000006c:	0268                	addi	a0,sp,268
2000006e:	2000                	fld	fs0,0(s0)
20000070:	00b6                	slli	ra,ra,0xd
20000072:	2000                	fld	fs0,0(s0)
20000074:	00b8                	addi	a4,sp,72
20000076:	2000                	fld	fs0,0(s0)
20000078:	00ba                	slli	ra,ra,0xe
2000007a:	2000                	fld	fs0,0(s0)
2000007c:	00bc                	addi	a5,sp,72
2000007e:	2000                	fld	fs0,0(s0)
20000080:	00be                	slli	ra,ra,0xf
20000082:	2000                	fld	fs0,0(s0)
20000084:	0304                	addi	s1,sp,384
20000086:	2000                	fld	fs0,0(s0)
20000088:	03a0                	addi	s0,sp,456
2000008a:	2000                	fld	fs0,0(s0)
2000008c:	00c4                	addi	s1,sp,68
2000008e:	2000                	fld	fs0,0(s0)

20000090 <NMI_Handler>:
20000090:	a001                	j	20000090 <NMI_Handler>
20000092:	a001                	j	20000092 <NMI_Handler+0x2>

20000094 <Ecall_M_Mode_Handler>:
20000094:	a001                	j	20000094 <Ecall_M_Mode_Handler>

20000096 <Ecall_U_Mode_Handler>:
20000096:	a001                	j	20000096 <Ecall_U_Mode_Handler>

20000098 <Break_Point_Handler>:
20000098:	a001                	j	20000098 <Break_Point_Handler>
2000009a:	a001                	j	2000009a <Break_Point_Handler+0x2>

2000009c <SW_Handler>:
2000009c:	a001                	j	2000009c <SW_Handler>
2000009e:	a001                	j	2000009e <SW_Handler+0x2>
200000a0:	a001                	j	200000a0 <SW_Handler+0x4>
200000a2:	a001                	j	200000a2 <SW_Handler+0x6>

200000a4 <SPI0_IRQHandler>:
200000a4:	a001                	j	200000a4 <SPI0_IRQHandler>

200000a6 <BB_IRQHandler>:
200000a6:	a001                	j	200000a6 <BB_IRQHandler>

200000a8 <LLE_IRQHandler>:
200000a8:	a001                	j	200000a8 <LLE_IRQHandler>

200000aa <USB_IRQHandler>:
200000aa:	a001                	j	200000aa <USB_IRQHandler>

200000ac <USB2_IRQHandler>:
200000ac:	a001                	j	200000ac <USB2_IRQHandler>

200000ae <TMR1_IRQHandler>:
200000ae:	a001                	j	200000ae <TMR1_IRQHandler>

200000b0 <TMR2_IRQHandler>:
200000b0:	a001                	j	200000b0 <TMR2_IRQHandler>
200000b2:	a001                	j	200000b2 <TMR2_IRQHandler+0x2>
200000b4:	a001                	j	200000b4 <TMR2_IRQHandler+0x4>

200000b6 <RTC_IRQHandler>:
200000b6:	a001                	j	200000b6 <RTC_IRQHandler>

200000b8 <ADC_IRQHandler>:
200000b8:	a001                	j	200000b8 <ADC_IRQHandler>

200000ba <I2C_IRQHandler>:
200000ba:	a001                	j	200000ba <I2C_IRQHandler>

200000bc <PWMX_IRQHandler>:
200000bc:	a001                	j	200000bc <PWMX_IRQHandler>

200000be <TMR3_IRQHandler>:
200000be:	a001                	j	200000be <TMR3_IRQHandler>
200000c0:	a001                	j	200000c0 <TMR3_IRQHandler+0x2>
200000c2:	a001                	j	200000c2 <TMR3_IRQHandler+0x4>

200000c4 <WDOG_BAT_IRQHandler>:
200000c4:	a001                	j	200000c4 <WDOG_BAT_IRQHandler>

200000c6 <GPIOA_IRQHandler>:
200000c6:	1141                	addi	sp,sp,-16
200000c8:	c622                	sw	s0,12(sp)
200000ca:	400017b7          	lui	a5,0x40001
200000ce:	9f818413          	addi	s0,gp,-1544 # 200012e0 <gpio_ctx>
200000d2:	c426                	sw	s1,8(sp)
200000d4:	00045703          	lhu	a4,0(s0)
200000d8:	09c7d483          	lhu	s1,156(a5) # 4000109c <_eusrstack+0x1fff909c>
200000dc:	c24a                	sw	s2,4(sp)
200000de:	8cf9                	and	s1,s1,a4
200000e0:	c08d                	beqz	s1,20000102 <GPIOA_IRQHandler+0x3c>
200000e2:	08979e23          	sh	s1,156(a5)
200000e6:	a7818913          	addi	s2,gp,-1416 # 20001360 <gpio_ctx+0x80>
200000ea:	0014f793          	andi	a5,s1,1
200000ee:	c789                	beqz	a5,200000f8 <GPIOA_IRQHandler+0x32>
200000f0:	405c                	lw	a5,4(s0)
200000f2:	c399                	beqz	a5,200000f8 <GPIOA_IRQHandler+0x32>
200000f4:	4408                	lw	a0,8(s0)
200000f6:	9782                	jalr	a5
200000f8:	8085                	srli	s1,s1,0x1
200000fa:	c481                	beqz	s1,20000102 <GPIOA_IRQHandler+0x3c>
200000fc:	0421                	addi	s0,s0,8
200000fe:	fe8916e3          	bne	s2,s0,200000ea <GPIOA_IRQHandler+0x24>
20000102:	4432                	lw	s0,12(sp)
20000104:	44a2                	lw	s1,8(sp)
20000106:	4912                	lw	s2,4(sp)
20000108:	0141                	addi	sp,sp,16
2000010a:	30200073          	mret

2000010e <GPIOB_IRQHandler>:
2000010e:	40001737          	lui	a4,0x40001
20000112:	09e75783          	lhu	a5,158(a4) # 4000109e <_eusrstack+0x1fff909e>
20000116:	09e75783          	lhu	a5,158(a4)
2000011a:	9fa1d683          	lhu	a3,-1542(gp) # 200012e2 <gpio_ctx+0x2>
2000011e:	8ff5                	and	a5,a5,a3
20000120:	cff7f793          	andi	a5,a5,-769
20000124:	07c2                	slli	a5,a5,0x10
20000126:	83c1                	srli	a5,a5,0x10
20000128:	c399                	beqz	a5,2000012e <GPIOB_IRQHandler+0x20>
2000012a:	08f71f23          	sh	a5,158(a4)
2000012e:	30200073          	mret

20000132 <TMR0_IRQHandler>:
20000132:	40002737          	lui	a4,0x40002
20000136:	00674783          	lbu	a5,6(a4) # 40002006 <_eusrstack+0x1fffa006>
2000013a:	8b85                	andi	a5,a5,1
2000013c:	c781                	beqz	a5,20000144 <TMR0_IRQHandler+0x12>
2000013e:	4785                	li	a5,1
20000140:	00f70323          	sb	a5,6(a4)
20000144:	b4018713          	addi	a4,gp,-1216 # 20001428 <mb_slave_ctx>
20000148:	575c                	lw	a5,44(a4)
2000014a:	4338                	lw	a4,64(a4)
2000014c:	0785                	addi	a5,a5,1
2000014e:	b6f1a623          	sw	a5,-1172(gp) # 20001454 <mb_slave_ctx+0x2c>
20000152:	4691                	li	a3,4
20000154:	02e6e663          	bltu	a3,a4,20000180 <TMR0_IRQHandler+0x4e>
20000158:	e000c697          	auipc	a3,0xe000c
2000015c:	0dc68693          	addi	a3,a3,220 # c234 <_sbrk+0x20>
20000160:	070a                	slli	a4,a4,0x2
20000162:	9736                	add	a4,a4,a3
20000164:	4318                	lw	a4,0(a4)
20000166:	9736                	add	a4,a4,a3
20000168:	8702                	jr	a4
2000016a:	4719                	li	a4,6
2000016c:	00f77a63          	bgeu	a4,a5,20000180 <TMR0_IRQHandler+0x4e>
20000170:	b601a623          	sw	zero,-1172(gp) # 20001454 <mb_slave_ctx+0x2c>
20000174:	4785                	li	a5,1
20000176:	b8f1a023          	sw	a5,-1152(gp) # 20001468 <mb_slave_ctx+0x40>
2000017a:	a019                	j	20000180 <TMR0_IRQHandler+0x4e>
2000017c:	b601a623          	sw	zero,-1172(gp) # 20001454 <mb_slave_ctx+0x2c>
20000180:	30200073          	mret
20000184:	4709                	li	a4,2
20000186:	fef77de3          	bgeu	a4,a5,20000180 <TMR0_IRQHandler+0x4e>
2000018a:	478d                	li	a5,3
2000018c:	b7ed                	j	20000176 <TMR0_IRQHandler+0x44>
2000018e:	4719                	li	a4,6
20000190:	fef778e3          	bgeu	a4,a5,20000180 <TMR0_IRQHandler+0x4e>
20000194:	b701c783          	lbu	a5,-1168(gp) # 20001458 <mb_slave_ctx+0x30>
20000198:	cf85                	beqz	a5,200001d0 <TMR0_IRQHandler+0x9e>
2000019a:	b6018823          	sb	zero,-1168(gp) # 20001458 <mb_slave_ctx+0x30>
2000019e:	b601a623          	sw	zero,-1172(gp) # 20001454 <mb_slave_ctx+0x2c>
200001a2:	b801aa23          	sw	zero,-1132(gp) # 2000147c <mb_slave_ctx+0x54>
200001a6:	4785                	li	a5,1
200001a8:	b8f1a023          	sw	a5,-1152(gp) # 20001468 <mb_slave_ctx+0x40>
200001ac:	8211c783          	lbu	a5,-2015(gp) # 20001109 <mb_timer_ref>
200001b0:	17fd                	addi	a5,a5,-1
200001b2:	07e2                	slli	a5,a5,0x18
200001b4:	87e1                	srai	a5,a5,0x18
200001b6:	82f180a3          	sb	a5,-2015(gp) # 20001109 <mb_timer_ref>
200001ba:	fcf043e3          	bgtz	a5,20000180 <TMR0_IRQHandler+0x4e>
200001be:	40002737          	lui	a4,0x40002
200001c2:	00074783          	lbu	a5,0(a4) # 40002000 <_eusrstack+0x1fffa000>
200001c6:	0fb7f793          	andi	a5,a5,251
200001ca:	00f70023          	sb	a5,0(a4)
200001ce:	bf4d                	j	20000180 <TMR0_IRQHandler+0x4e>
200001d0:	4791                	li	a5,4
200001d2:	bfd9                	j	200001a8 <TMR0_IRQHandler+0x76>

200001d4 <UART0_IRQHandler>:
200001d4:	1101                	addi	sp,sp,-32
200001d6:	ce22                	sw	s0,28(sp)
200001d8:	cc26                	sw	s1,24(sp)
200001da:	000107a3          	sb	zero,15(sp)
200001de:	40003737          	lui	a4,0x40003
200001e2:	00474783          	lbu	a5,4(a4) # 40003004 <_eusrstack+0x1fffb004>
200001e6:	4699                	li	a3,6
200001e8:	8bbd                	andi	a5,a5,15
200001ea:	06d78863          	beq	a5,a3,2000025a <UART0_IRQHandler+0x86>
200001ee:	4731                	li	a4,12
200001f0:	02e79a63          	bne	a5,a4,20000224 <UART0_IRQHandler+0x50>
200001f4:	00001497          	auipc	s1,0x1
200001f8:	b3848493          	addi	s1,s1,-1224 # 20000d2c <uart_ctx>
200001fc:	40003437          	lui	s0,0x40003
20000200:	5098                	lw	a4,32(s1)
20000202:	00a44783          	lbu	a5,10(s0) # 4000300a <_eusrstack+0x1fffb00a>
20000206:	0ff7f793          	andi	a5,a5,255
2000020a:	cbb1                	beqz	a5,2000025e <UART0_IRQHandler+0x8a>
2000020c:	00844783          	lbu	a5,8(s0)
20000210:	00f107a3          	sb	a5,15(sp)
20000214:	d77d                	beqz	a4,20000202 <UART0_IRQHandler+0x2e>
20000216:	50d4                	lw	a3,36(s1)
20000218:	4605                	li	a2,1
2000021a:	00f10593          	addi	a1,sp,15
2000021e:	4501                	li	a0,0
20000220:	9702                	jalr	a4
20000222:	bff9                	j	20000200 <UART0_IRQHandler+0x2c>
20000224:	4711                	li	a4,4
20000226:	02e79c63          	bne	a5,a4,2000025e <UART0_IRQHandler+0x8a>
2000022a:	00001497          	auipc	s1,0x1
2000022e:	b0248493          	addi	s1,s1,-1278 # 20000d2c <uart_ctx>
20000232:	40003437          	lui	s0,0x40003
20000236:	5098                	lw	a4,32(s1)
20000238:	00a44783          	lbu	a5,10(s0) # 4000300a <_eusrstack+0x1fffb00a>
2000023c:	0ff7f793          	andi	a5,a5,255
20000240:	cf99                	beqz	a5,2000025e <UART0_IRQHandler+0x8a>
20000242:	00844783          	lbu	a5,8(s0)
20000246:	00f107a3          	sb	a5,15(sp)
2000024a:	d77d                	beqz	a4,20000238 <UART0_IRQHandler+0x64>
2000024c:	50d4                	lw	a3,36(s1)
2000024e:	4605                	li	a2,1
20000250:	00f10593          	addi	a1,sp,15
20000254:	4501                	li	a0,0
20000256:	9702                	jalr	a4
20000258:	bff9                	j	20000236 <UART0_IRQHandler+0x62>
2000025a:	00574783          	lbu	a5,5(a4)
2000025e:	4472                	lw	s0,28(sp)
20000260:	44e2                	lw	s1,24(sp)
20000262:	6105                	addi	sp,sp,32
20000264:	30200073          	mret

20000268 <UART1_IRQHandler>:
20000268:	1101                	addi	sp,sp,-32
2000026a:	ce22                	sw	s0,28(sp)
2000026c:	cc26                	sw	s1,24(sp)
2000026e:	000107a3          	sb	zero,15(sp)
20000272:	40003737          	lui	a4,0x40003
20000276:	40474783          	lbu	a5,1028(a4) # 40003404 <_eusrstack+0x1fffb404>
2000027a:	4699                	li	a3,6
2000027c:	8bbd                	andi	a5,a5,15
2000027e:	06d78c63          	beq	a5,a3,200002f6 <UART1_IRQHandler+0x8e>
20000282:	4731                	li	a4,12
20000284:	02e79c63          	bne	a5,a4,200002bc <UART1_IRQHandler+0x54>
20000288:	00001497          	auipc	s1,0x1
2000028c:	aa448493          	addi	s1,s1,-1372 # 20000d2c <uart_ctx>
20000290:	40003437          	lui	s0,0x40003
20000294:	09c4a703          	lw	a4,156(s1)
20000298:	40a44783          	lbu	a5,1034(s0) # 4000340a <_eusrstack+0x1fffb40a>
2000029c:	0ff7f793          	andi	a5,a5,255
200002a0:	cfa9                	beqz	a5,200002fa <UART1_IRQHandler+0x92>
200002a2:	40844783          	lbu	a5,1032(s0)
200002a6:	00f107a3          	sb	a5,15(sp)
200002aa:	d77d                	beqz	a4,20000298 <UART1_IRQHandler+0x30>
200002ac:	0a04a683          	lw	a3,160(s1)
200002b0:	4605                	li	a2,1
200002b2:	00f10593          	addi	a1,sp,15
200002b6:	4505                	li	a0,1
200002b8:	9702                	jalr	a4
200002ba:	bfe9                	j	20000294 <UART1_IRQHandler+0x2c>
200002bc:	4711                	li	a4,4
200002be:	02e79e63          	bne	a5,a4,200002fa <UART1_IRQHandler+0x92>
200002c2:	00001497          	auipc	s1,0x1
200002c6:	a6a48493          	addi	s1,s1,-1430 # 20000d2c <uart_ctx>
200002ca:	40003437          	lui	s0,0x40003
200002ce:	09c4a703          	lw	a4,156(s1)
200002d2:	40a44783          	lbu	a5,1034(s0) # 4000340a <_eusrstack+0x1fffb40a>
200002d6:	0ff7f793          	andi	a5,a5,255
200002da:	c385                	beqz	a5,200002fa <UART1_IRQHandler+0x92>
200002dc:	40844783          	lbu	a5,1032(s0)
200002e0:	00f107a3          	sb	a5,15(sp)
200002e4:	d77d                	beqz	a4,200002d2 <UART1_IRQHandler+0x6a>
200002e6:	0a04a683          	lw	a3,160(s1)
200002ea:	4605                	li	a2,1
200002ec:	00f10593          	addi	a1,sp,15
200002f0:	4505                	li	a0,1
200002f2:	9702                	jalr	a4
200002f4:	bfe9                	j	200002ce <UART1_IRQHandler+0x66>
200002f6:	40574783          	lbu	a5,1029(a4)
200002fa:	4472                	lw	s0,28(sp)
200002fc:	44e2                	lw	s1,24(sp)
200002fe:	6105                	addi	sp,sp,32
20000300:	30200073          	mret

20000304 <UART2_IRQHandler>:
20000304:	1101                	addi	sp,sp,-32
20000306:	ce22                	sw	s0,28(sp)
20000308:	cc26                	sw	s1,24(sp)
2000030a:	000107a3          	sb	zero,15(sp)
2000030e:	40004737          	lui	a4,0x40004
20000312:	80474783          	lbu	a5,-2044(a4) # 40003804 <_eusrstack+0x1fffb804>
20000316:	4699                	li	a3,6
20000318:	8bbd                	andi	a5,a5,15
2000031a:	06d78c63          	beq	a5,a3,20000392 <UART2_IRQHandler+0x8e>
2000031e:	4731                	li	a4,12
20000320:	02e79c63          	bne	a5,a4,20000358 <UART2_IRQHandler+0x54>
20000324:	00001497          	auipc	s1,0x1
20000328:	a0848493          	addi	s1,s1,-1528 # 20000d2c <uart_ctx>
2000032c:	40004437          	lui	s0,0x40004
20000330:	1184a703          	lw	a4,280(s1)
20000334:	80a44783          	lbu	a5,-2038(s0) # 4000380a <_eusrstack+0x1fffb80a>
20000338:	0ff7f793          	andi	a5,a5,255
2000033c:	cfa9                	beqz	a5,20000396 <UART2_IRQHandler+0x92>
2000033e:	80844783          	lbu	a5,-2040(s0)
20000342:	00f107a3          	sb	a5,15(sp)
20000346:	d77d                	beqz	a4,20000334 <UART2_IRQHandler+0x30>
20000348:	11c4a683          	lw	a3,284(s1)
2000034c:	4605                	li	a2,1
2000034e:	00f10593          	addi	a1,sp,15
20000352:	4509                	li	a0,2
20000354:	9702                	jalr	a4
20000356:	bfe9                	j	20000330 <UART2_IRQHandler+0x2c>
20000358:	4711                	li	a4,4
2000035a:	02e79e63          	bne	a5,a4,20000396 <UART2_IRQHandler+0x92>
2000035e:	00001497          	auipc	s1,0x1
20000362:	9ce48493          	addi	s1,s1,-1586 # 20000d2c <uart_ctx>
20000366:	40004437          	lui	s0,0x40004
2000036a:	1184a703          	lw	a4,280(s1)
2000036e:	80a44783          	lbu	a5,-2038(s0) # 4000380a <_eusrstack+0x1fffb80a>
20000372:	0ff7f793          	andi	a5,a5,255
20000376:	c385                	beqz	a5,20000396 <UART2_IRQHandler+0x92>
20000378:	80844783          	lbu	a5,-2040(s0)
2000037c:	00f107a3          	sb	a5,15(sp)
20000380:	d77d                	beqz	a4,2000036e <UART2_IRQHandler+0x6a>
20000382:	11c4a683          	lw	a3,284(s1)
20000386:	4605                	li	a2,1
20000388:	00f10593          	addi	a1,sp,15
2000038c:	4509                	li	a0,2
2000038e:	9702                	jalr	a4
20000390:	bfe9                	j	2000036a <UART2_IRQHandler+0x66>
20000392:	80574783          	lbu	a5,-2043(a4)
20000396:	4472                	lw	s0,28(sp)
20000398:	44e2                	lw	s1,24(sp)
2000039a:	6105                	addi	sp,sp,32
2000039c:	30200073          	mret

200003a0 <UART3_IRQHandler>:
200003a0:	1101                	addi	sp,sp,-32
200003a2:	ce22                	sw	s0,28(sp)
200003a4:	cc26                	sw	s1,24(sp)
200003a6:	000107a3          	sb	zero,15(sp)
200003aa:	40004737          	lui	a4,0x40004
200003ae:	c0474783          	lbu	a5,-1020(a4) # 40003c04 <_eusrstack+0x1fffbc04>
200003b2:	4699                	li	a3,6
200003b4:	8bbd                	andi	a5,a5,15
200003b6:	06d78c63          	beq	a5,a3,2000042e <UART3_IRQHandler+0x8e>
200003ba:	4731                	li	a4,12
200003bc:	02e79c63          	bne	a5,a4,200003f4 <UART3_IRQHandler+0x54>
200003c0:	00001497          	auipc	s1,0x1
200003c4:	96c48493          	addi	s1,s1,-1684 # 20000d2c <uart_ctx>
200003c8:	40004437          	lui	s0,0x40004
200003cc:	1944a703          	lw	a4,404(s1)
200003d0:	c0a44783          	lbu	a5,-1014(s0) # 40003c0a <_eusrstack+0x1fffbc0a>
200003d4:	0ff7f793          	andi	a5,a5,255
200003d8:	cfa9                	beqz	a5,20000432 <UART3_IRQHandler+0x92>
200003da:	c0844783          	lbu	a5,-1016(s0)
200003de:	00f107a3          	sb	a5,15(sp)
200003e2:	d77d                	beqz	a4,200003d0 <UART3_IRQHandler+0x30>
200003e4:	1984a683          	lw	a3,408(s1)
200003e8:	4605                	li	a2,1
200003ea:	00f10593          	addi	a1,sp,15
200003ee:	450d                	li	a0,3
200003f0:	9702                	jalr	a4
200003f2:	bfe9                	j	200003cc <UART3_IRQHandler+0x2c>
200003f4:	4711                	li	a4,4
200003f6:	02e79e63          	bne	a5,a4,20000432 <UART3_IRQHandler+0x92>
200003fa:	00001497          	auipc	s1,0x1
200003fe:	93248493          	addi	s1,s1,-1742 # 20000d2c <uart_ctx>
20000402:	40004437          	lui	s0,0x40004
20000406:	1944a703          	lw	a4,404(s1)
2000040a:	c0a44783          	lbu	a5,-1014(s0) # 40003c0a <_eusrstack+0x1fffbc0a>
2000040e:	0ff7f793          	andi	a5,a5,255
20000412:	c385                	beqz	a5,20000432 <UART3_IRQHandler+0x92>
20000414:	c0844783          	lbu	a5,-1016(s0)
20000418:	00f107a3          	sb	a5,15(sp)
2000041c:	d77d                	beqz	a4,2000040a <UART3_IRQHandler+0x6a>
2000041e:	1984a683          	lw	a3,408(s1)
20000422:	4605                	li	a2,1
20000424:	00f10593          	addi	a1,sp,15
20000428:	450d                	li	a0,3
2000042a:	9702                	jalr	a4
2000042c:	bfe9                	j	20000406 <UART3_IRQHandler+0x66>
2000042e:	c0574783          	lbu	a5,-1019(a4)
20000432:	4472                	lw	s0,28(sp)
20000434:	44e2                	lw	s1,24(sp)
20000436:	6105                	addi	sp,sp,32
20000438:	30200073          	mret

2000043c <SysTick_Handler>:
2000043c:	83018713          	addi	a4,gp,-2000 # 20001118 <worktime>
20000440:	431c                	lw	a5,0(a4)
20000442:	4350                	lw	a2,4(a4)
20000444:	00178693          	addi	a3,a5,1
20000448:	00f6b7b3          	sltu	a5,a3,a5
2000044c:	97b2                	add	a5,a5,a2
2000044e:	c35c                	sw	a5,4(a4)
20000450:	c314                	sw	a3,0(a4)
20000452:	e000f7b7          	lui	a5,0xe000f
20000456:	0007a223          	sw	zero,4(a5) # e000f004 <_eusrstack+0xc0007004>
2000045a:	30200073          	mret

2000045e <SetSysClock>:
2000045e:	400017b7          	lui	a5,0x40001
20000462:	05700693          	li	a3,87
20000466:	04d78023          	sb	a3,64(a5) # 40001040 <_eusrstack+0x1fff9040>
2000046a:	fa800713          	li	a4,-88
2000046e:	04e78023          	sb	a4,64(a5)
20000472:	0001                	nop
20000474:	0001                	nop
20000476:	04b7c603          	lbu	a2,75(a5)
2000047a:	0df67613          	andi	a2,a2,223
2000047e:	04c785a3          	sb	a2,75(a5)
20000482:	04078023          	sb	zero,64(a5)
20000486:	02057613          	andi	a2,a0,32
2000048a:	ce59                	beqz	a2,20000528 <SetSysClock+0xca>
2000048c:	00a7c603          	lbu	a2,10(a5)
20000490:	8a11                	andi	a2,a2,4
20000492:	e21d                	bnez	a2,200004b8 <SetSysClock+0x5a>
20000494:	04d78023          	sb	a3,64(a5)
20000498:	04e78023          	sb	a4,64(a5)
2000049c:	0001                	nop
2000049e:	0001                	nop
200004a0:	00a7c703          	lbu	a4,10(a5)
200004a4:	00476713          	ori	a4,a4,4
200004a8:	00e78523          	sb	a4,10(a5)
200004ac:	4b000793          	li	a5,1200
200004b0:	0001                	nop
200004b2:	0001                	nop
200004b4:	17fd                	addi	a5,a5,-1
200004b6:	ffed                	bnez	a5,200004b0 <SetSysClock+0x52>
200004b8:	400017b7          	lui	a5,0x40001
200004bc:	05700693          	li	a3,87
200004c0:	04d78023          	sb	a3,64(a5) # 40001040 <_eusrstack+0x1fff9040>
200004c4:	fa800713          	li	a4,-88
200004c8:	04e78023          	sb	a4,64(a5)
200004cc:	0001                	nop
200004ce:	0001                	nop
200004d0:	897d                	andi	a0,a0,31
200004d2:	00a79423          	sh	a0,8(a5)
200004d6:	0001                	nop
200004d8:	0001                	nop
200004da:	0001                	nop
200004dc:	0001                	nop
200004de:	04078023          	sb	zero,64(a5)
200004e2:	04d78023          	sb	a3,64(a5)
200004e6:	04e78023          	sb	a4,64(a5)
200004ea:	0001                	nop
200004ec:	0001                	nop
200004ee:	40002737          	lui	a4,0x40002
200004f2:	05100693          	li	a3,81
200004f6:	80d703a3          	sb	a3,-2041(a4) # 40001807 <_eusrstack+0x1fff9807>
200004fa:	04078023          	sb	zero,64(a5)
200004fe:	400017b7          	lui	a5,0x40001
20000502:	05700713          	li	a4,87
20000506:	04e78023          	sb	a4,64(a5) # 40001040 <_eusrstack+0x1fff9040>
2000050a:	fa800713          	li	a4,-88
2000050e:	04e78023          	sb	a4,64(a5)
20000512:	0001                	nop
20000514:	0001                	nop
20000516:	04b7c703          	lbu	a4,75(a5)
2000051a:	08076713          	ori	a4,a4,128
2000051e:	04e785a3          	sb	a4,75(a5)
20000522:	04078023          	sb	zero,64(a5)
20000526:	8082                	ret
20000528:	04057613          	andi	a2,a0,64
2000052c:	ca2d                	beqz	a2,2000059e <SetSysClock+0x140>
2000052e:	00a7c603          	lbu	a2,10(a5)
20000532:	8a41                	andi	a2,a2,16
20000534:	e21d                	bnez	a2,2000055a <SetSysClock+0xfc>
20000536:	04d78023          	sb	a3,64(a5)
2000053a:	04e78023          	sb	a4,64(a5)
2000053e:	0001                	nop
20000540:	0001                	nop
20000542:	00a7c703          	lbu	a4,10(a5)
20000546:	01076713          	ori	a4,a4,16
2000054a:	00e78523          	sb	a4,10(a5)
2000054e:	7d000793          	li	a5,2000
20000552:	0001                	nop
20000554:	0001                	nop
20000556:	17fd                	addi	a5,a5,-1
20000558:	ffed                	bnez	a5,20000552 <SetSysClock+0xf4>
2000055a:	400017b7          	lui	a5,0x40001
2000055e:	05700693          	li	a3,87
20000562:	04d78023          	sb	a3,64(a5) # 40001040 <_eusrstack+0x1fff9040>
20000566:	fa800713          	li	a4,-88
2000056a:	04e78023          	sb	a4,64(a5)
2000056e:	0001                	nop
20000570:	0001                	nop
20000572:	897d                	andi	a0,a0,31
20000574:	04056513          	ori	a0,a0,64
20000578:	00a79423          	sh	a0,8(a5)
2000057c:	0001                	nop
2000057e:	0001                	nop
20000580:	0001                	nop
20000582:	0001                	nop
20000584:	04078023          	sb	zero,64(a5)
20000588:	04d78023          	sb	a3,64(a5)
2000058c:	04e78023          	sb	a4,64(a5)
20000590:	0001                	nop
20000592:	0001                	nop
20000594:	40002737          	lui	a4,0x40002
20000598:	05200693          	li	a3,82
2000059c:	bfa9                	j	200004f6 <SetSysClock+0x98>
2000059e:	04d78023          	sb	a3,64(a5)
200005a2:	04e78023          	sb	a4,64(a5)
200005a6:	0001                	nop
200005a8:	0001                	nop
200005aa:	0087d703          	lhu	a4,8(a5)
200005ae:	0c076713          	ori	a4,a4,192
200005b2:	00e79423          	sh	a4,8(a5)
200005b6:	b7a1                	j	200004fe <SetSysClock+0xa0>

200005b8 <SYS_ResetExecute>:
200005b8:	1141                	addi	sp,sp,-16
200005ba:	4681                	li	a3,0
200005bc:	4601                	li	a2,0
200005be:	4581                	li	a1,0
200005c0:	4511                	li	a0,4
200005c2:	c606                	sw	ra,12(sp)
200005c4:	2ab1                	jal	20000720 <FLASH_EEPROM_CMD>
200005c6:	400017b7          	lui	a5,0x40001
200005ca:	05700713          	li	a4,87
200005ce:	04e78023          	sb	a4,64(a5) # 40001040 <_eusrstack+0x1fff9040>
200005d2:	fa800713          	li	a4,-88
200005d6:	04e78023          	sb	a4,64(a5)
200005da:	0001                	nop
200005dc:	0001                	nop
200005de:	0467c703          	lbu	a4,70(a5)
200005e2:	00176713          	ori	a4,a4,1
200005e6:	04e78323          	sb	a4,70(a5)
200005ea:	04078023          	sb	zero,64(a5)
200005ee:	40b2                	lw	ra,12(sp)
200005f0:	0141                	addi	sp,sp,16
200005f2:	8082                	ret

200005f4 <HardFault_Handler>:
200005f4:	4681                	li	a3,0
200005f6:	4601                	li	a2,0
200005f8:	4581                	li	a1,0
200005fa:	4511                	li	a0,4
200005fc:	2215                	jal	20000720 <FLASH_EEPROM_CMD>
200005fe:	400017b7          	lui	a5,0x40001
20000602:	05700713          	li	a4,87
20000606:	04e78023          	sb	a4,64(a5) # 40001040 <_eusrstack+0x1fff9040>
2000060a:	fa800713          	li	a4,-88
2000060e:	04e78023          	sb	a4,64(a5)
20000612:	0001                	nop
20000614:	0001                	nop
20000616:	577d                	li	a4,-1
20000618:	02e79623          	sh	a4,44(a5)
2000061c:	0467c703          	lbu	a4,70(a5)
20000620:	00176713          	ori	a4,a4,1
20000624:	04e78323          	sb	a4,70(a5)
20000628:	04078023          	sb	zero,64(a5)
2000062c:	a001                	j	2000062c <HardFault_Handler+0x38>

2000062e <mDelayuS>:
2000062e:	47bd                	li	a5,15
20000630:	02f50533          	mul	a0,a0,a5
20000634:	0001                	nop
20000636:	157d                	addi	a0,a0,-1
20000638:	fd75                	bnez	a0,20000634 <mDelayuS+0x6>
2000063a:	8082                	ret

2000063c <mDelaymS>:
2000063c:	1141                	addi	sp,sp,-16
2000063e:	c422                	sw	s0,8(sp)
20000640:	c226                	sw	s1,4(sp)
20000642:	c606                	sw	ra,12(sp)
20000644:	84aa                	mv	s1,a0
20000646:	4401                	li	s0,0
20000648:	00941763          	bne	s0,s1,20000656 <mDelaymS+0x1a>
2000064c:	40b2                	lw	ra,12(sp)
2000064e:	4422                	lw	s0,8(sp)
20000650:	4492                	lw	s1,4(sp)
20000652:	0141                	addi	sp,sp,16
20000654:	8082                	ret
20000656:	0405                	addi	s0,s0,1
20000658:	3e800513          	li	a0,1000
2000065c:	0442                	slli	s0,s0,0x10
2000065e:	3fc1                	jal	2000062e <mDelayuS>
20000660:	8041                	srli	s0,s0,0x10
20000662:	b7dd                	j	20000648 <mDelaymS+0xc>

20000664 <FLASH_ROM_BEG>:
20000664:	80040323          	sb	zero,-2042(s0)
20000668:	4715                	li	a4,5
2000066a:	80e40323          	sb	a4,-2042(s0)
2000066e:	0001                	nop
20000670:	80a40223          	sb	a0,-2044(s0)
20000674:	8082                	ret

20000676 <FLASH_ROM_END>:
20000676:	80640783          	lb	a5,-2042(s0)
2000067a:	fe07cee3          	bltz	a5,20000676 <FLASH_ROM_END>
2000067e:	80040323          	sb	zero,-2042(s0)
20000682:	8082                	ret

20000684 <FLASH_ROM_IN>:
20000684:	80640783          	lb	a5,-2042(s0)
20000688:	fe07cee3          	bltz	a5,20000684 <FLASH_ROM_IN>
2000068c:	80444503          	lbu	a0,-2044(s0)
20000690:	8082                	ret

20000692 <FLASH_ROM_OUT>:
20000692:	80640783          	lb	a5,-2042(s0)
20000696:	fe07cee3          	bltz	a5,20000692 <FLASH_ROM_OUT>
2000069a:	80a40223          	sb	a0,-2044(s0)
2000069e:	8082                	ret

200006a0 <FLASH_ROM_ADDR>:
200006a0:	1141                	addi	sp,sp,-16
200006a2:	c426                	sw	s1,8(sp)
200006a4:	c24a                	sw	s2,4(sp)
200006a6:	c04e                	sw	s3,0(sp)
200006a8:	c606                	sw	ra,12(sp)
200006aa:	0bf57713          	andi	a4,a0,191
200006ae:	47ad                	li	a5,11
200006b0:	89aa                	mv	s3,a0
200006b2:	892e                	mv	s2,a1
200006b4:	4495                	li	s1,5
200006b6:	00f70663          	beq	a4,a5,200006c2 <FLASH_ROM_ADDR+0x22>
200006ba:	4519                	li	a0,6
200006bc:	3765                	jal	20000664 <FLASH_ROM_BEG>
200006be:	3f65                	jal	20000676 <FLASH_ROM_END>
200006c0:	448d                	li	s1,3
200006c2:	854e                	mv	a0,s3
200006c4:	3745                	jal	20000664 <FLASH_ROM_BEG>
200006c6:	59fd                	li	s3,-1
200006c8:	14fd                	addi	s1,s1,-1
200006ca:	01349863          	bne	s1,s3,200006da <FLASH_ROM_ADDR+0x3a>
200006ce:	40b2                	lw	ra,12(sp)
200006d0:	44a2                	lw	s1,8(sp)
200006d2:	4912                	lw	s2,4(sp)
200006d4:	4982                	lw	s3,0(sp)
200006d6:	0141                	addi	sp,sp,16
200006d8:	8082                	ret
200006da:	01095513          	srli	a0,s2,0x10
200006de:	0ff57513          	andi	a0,a0,255
200006e2:	3f45                	jal	20000692 <FLASH_ROM_OUT>
200006e4:	0922                	slli	s2,s2,0x8
200006e6:	b7cd                	j	200006c8 <FLASH_ROM_ADDR+0x28>

200006e8 <FLASH_ROM_WAIT>:
200006e8:	1101                	addi	sp,sp,-32
200006ea:	cc26                	sw	s1,24(sp)
200006ec:	ce06                	sw	ra,28(sp)
200006ee:	000804b7          	lui	s1,0x80
200006f2:	3751                	jal	20000676 <FLASH_ROM_END>
200006f4:	4515                	li	a0,5
200006f6:	37bd                	jal	20000664 <FLASH_ROM_BEG>
200006f8:	3771                	jal	20000684 <FLASH_ROM_IN>
200006fa:	3769                	jal	20000684 <FLASH_ROM_IN>
200006fc:	c62a                	sw	a0,12(sp)
200006fe:	3fa5                	jal	20000676 <FLASH_ROM_END>
20000700:	4532                	lw	a0,12(sp)
20000702:	00157793          	andi	a5,a0,1
20000706:	eb89                	bnez	a5,20000718 <FLASH_ROM_WAIT+0x30>
20000708:	00156513          	ori	a0,a0,1
2000070c:	0ff57513          	andi	a0,a0,255
20000710:	40f2                	lw	ra,28(sp)
20000712:	44e2                	lw	s1,24(sp)
20000714:	6105                	addi	sp,sp,32
20000716:	8082                	ret
20000718:	14fd                	addi	s1,s1,-1
2000071a:	fce9                	bnez	s1,200006f4 <FLASH_ROM_WAIT+0xc>
2000071c:	4501                	li	a0,0
2000071e:	bfcd                	j	20000710 <FLASH_ROM_WAIT+0x28>

20000720 <FLASH_EEPROM_CMD>:
20000720:	7139                	addi	sp,sp,-64
20000722:	dc26                	sw	s1,56(sp)
20000724:	da4a                	sw	s2,52(sp)
20000726:	d84e                	sw	s3,48(sp)
20000728:	d652                	sw	s4,44(sp)
2000072a:	d456                	sw	s5,40(sp)
2000072c:	d25a                	sw	s6,36(sp)
2000072e:	d05e                	sw	s7,32(sp)
20000730:	de06                	sw	ra,60(sp)
20000732:	ce62                	sw	s8,28(sp)
20000734:	cc66                	sw	s9,24(sp)
20000736:	e000e7b7          	lui	a5,0xe000e
2000073a:	577d                	li	a4,-1
2000073c:	0007aa83          	lw	s5,0(a5) # e000e000 <_eusrstack+0xc0006000>
20000740:	c622                	sw	s0,12(sp)
20000742:	0047aa03          	lw	s4,4(a5)
20000746:	18e7a023          	sw	a4,384(a5)
2000074a:	18e7a223          	sw	a4,388(a5)
2000074e:	400017b7          	lui	a5,0x40001
20000752:	05700713          	li	a4,87
20000756:	04e78023          	sb	a4,64(a5) # 40001040 <_eusrstack+0x1fff9040>
2000075a:	fa800713          	li	a4,-88
2000075e:	04e78023          	sb	a4,64(a5)
20000762:	0447c783          	lbu	a5,68(a5)
20000766:	ff750b93          	addi	s7,a0,-9
2000076a:	84b6                	mv	s1,a3
2000076c:	07e2                	slli	a5,a5,0x18
2000076e:	0ffbfb93          	andi	s7,s7,255
20000772:	4685                	li	a3,1
20000774:	89aa                	mv	s3,a0
20000776:	8b2e                	mv	s6,a1
20000778:	8932                	mv	s2,a2
2000077a:	40002437          	lui	s0,0x40002
2000077e:	87e1                	srai	a5,a5,0x18
20000780:	5701                	li	a4,-32
20000782:	0176fa63          	bgeu	a3,s7,20000796 <FLASH_EEPROM_CMD+0x76>
20000786:	00d50863          	beq	a0,a3,20000796 <FLASH_EEPROM_CMD+0x76>
2000078a:	4689                	li	a3,2
2000078c:	02000713          	li	a4,32
20000790:	00d51363          	bne	a0,a3,20000796 <FLASH_EEPROM_CMD+0x76>
20000794:	5701                	li	a4,-32
20000796:	8fd9                	or	a5,a5,a4
20000798:	0ff7f793          	andi	a5,a5,255
2000079c:	40001cb7          	lui	s9,0x40001
200007a0:	04fc8223          	sb	a5,68(s9) # 40001044 <_eusrstack+0x1fff9044>
200007a4:	4711                	li	a4,4
200007a6:	80e40323          	sb	a4,-2042(s0) # 40001806 <_eusrstack+0x1fff9806>
200007aa:	0ff00513          	li	a0,255
200007ae:	3d5d                	jal	20000664 <FLASH_ROM_BEG>
200007b0:	4c09                	li	s8,2
200007b2:	35d1                	jal	20000676 <FLASH_ROM_END>
200007b4:	117c6d63          	bltu	s8,s7,200008ce <FLASH_EEPROM_CMD+0x1ae>
200007b8:	000705b7          	lui	a1,0x70
200007bc:	95da                	add	a1,a1,s6
200007be:	00078737          	lui	a4,0x78
200007c2:	5579                	li	a0,-2
200007c4:	04e5f263          	bgeu	a1,a4,20000808 <FLASH_EEPROM_CMD+0xe8>
200007c8:	009587b3          	add	a5,a1,s1
200007cc:	02f76e63          	bltu	a4,a5,20000808 <FLASH_EEPROM_CMD+0xe8>
200007d0:	00080b37          	lui	s6,0x80
200007d4:	47a9                	li	a5,10
200007d6:	0165eb33          	or	s6,a1,s6
200007da:	06f99963          	bne	s3,a5,2000084c <FLASH_EEPROM_CMD+0x12c>
200007de:	e489                	bnez	s1,200007e8 <FLASH_EEPROM_CMD+0xc8>
200007e0:	4481                	li	s1,0
200007e2:	3d51                	jal	20000676 <FLASH_ROM_END>
200007e4:	8526                	mv	a0,s1
200007e6:	a00d                	j	20000808 <FLASH_EEPROM_CMD+0xe8>
200007e8:	85da                	mv	a1,s6
200007ea:	4509                	li	a0,2
200007ec:	3d55                	jal	200006a0 <FLASH_ROM_ADDR>
200007ee:	0905                	addi	s2,s2,1
200007f0:	fff94503          	lbu	a0,-1(s2)
200007f4:	14fd                	addi	s1,s1,-1
200007f6:	0b05                	addi	s6,s6,1
200007f8:	3d69                	jal	20000692 <FLASH_ROM_OUT>
200007fa:	c481                	beqz	s1,20000802 <FLASH_EEPROM_CMD+0xe2>
200007fc:	0ffb7793          	andi	a5,s6,255
20000800:	f7fd                	bnez	a5,200007ee <FLASH_EEPROM_CMD+0xce>
20000802:	35dd                	jal	200006e8 <FLASH_ROM_WAIT>
20000804:	fd69                	bnez	a0,200007de <FLASH_EEPROM_CMD+0xbe>
20000806:	557d                	li	a0,-1
20000808:	400017b7          	lui	a5,0x40001
2000080c:	05700713          	li	a4,87
20000810:	04e78023          	sb	a4,64(a5) # 40001040 <_eusrstack+0x1fff9040>
20000814:	fa800713          	li	a4,-88
20000818:	04e78023          	sb	a4,64(a5)
2000081c:	0447c703          	lbu	a4,68(a5)
20000820:	8b41                	andi	a4,a4,16
20000822:	04e78223          	sb	a4,68(a5)
20000826:	50f2                	lw	ra,60(sp)
20000828:	e000e7b7          	lui	a5,0xe000e
2000082c:	1157a023          	sw	s5,256(a5) # e000e100 <_eusrstack+0xc0006100>
20000830:	1147a223          	sw	s4,260(a5)
20000834:	54e2                	lw	s1,56(sp)
20000836:	4432                	lw	s0,12(sp)
20000838:	5952                	lw	s2,52(sp)
2000083a:	59c2                	lw	s3,48(sp)
2000083c:	5a32                	lw	s4,44(sp)
2000083e:	5aa2                	lw	s5,40(sp)
20000840:	5b12                	lw	s6,36(sp)
20000842:	5b82                	lw	s7,32(sp)
20000844:	4c72                	lw	s8,28(sp)
20000846:	4ce2                	lw	s9,24(sp)
20000848:	6121                	addi	sp,sp,64
2000084a:	8082                	ret
2000084c:	47a5                	li	a5,9
2000084e:	06f99563          	bne	s3,a5,200008b8 <FLASH_EEPROM_CMD+0x198>
20000852:	6985                	lui	s3,0x1
20000854:	0ff00913          	li	s2,255
20000858:	009906b3          	add	a3,s2,s1
2000085c:	012b74b3          	and	s1,s6,s2
20000860:	94b6                	add	s1,s1,a3
20000862:	fff94913          	not	s2,s2
20000866:	009974b3          	and	s1,s2,s1
2000086a:	6b85                	lui	s7,0x1
2000086c:	01697933          	and	s2,s2,s6
20000870:	6b41                	lui	s6,0x10
20000872:	fff98793          	addi	a5,s3,-1 # fff <check_crc16+0xb>
20000876:	0127f7b3          	and	a5,a5,s2
2000087a:	e399                	bnez	a5,20000880 <FLASH_EEPROM_CMD+0x160>
2000087c:	0134fc63          	bgeu	s1,s3,20000894 <FLASH_EEPROM_CMD+0x174>
20000880:	0049d993          	srli	s3,s3,0x4
20000884:	47c1                	li	a5,16
20000886:	ff37e6e3          	bltu	a5,s3,20000872 <FLASH_EEPROM_CMD+0x152>
2000088a:	bf99                	j	200007e0 <FLASH_EEPROM_CMD+0xc0>
2000088c:	6905                	lui	s2,0x1
2000088e:	69c1                	lui	s3,0x10
20000890:	197d                	addi	s2,s2,-1
20000892:	b7d9                	j	20000858 <FLASH_EEPROM_CMD+0x138>
20000894:	0d800513          	li	a0,216
20000898:	01698863          	beq	s3,s6,200008a8 <FLASH_EEPROM_CMD+0x188>
2000089c:	02000513          	li	a0,32
200008a0:	01798463          	beq	s3,s7,200008a8 <FLASH_EEPROM_CMD+0x188>
200008a4:	08100513          	li	a0,129
200008a8:	85ca                	mv	a1,s2
200008aa:	3bdd                	jal	200006a0 <FLASH_ROM_ADDR>
200008ac:	3d35                	jal	200006e8 <FLASH_ROM_WAIT>
200008ae:	dd21                	beqz	a0,20000806 <FLASH_EEPROM_CMD+0xe6>
200008b0:	994e                	add	s2,s2,s3
200008b2:	413484b3          	sub	s1,s1,s3
200008b6:	b7d9                	j	2000087c <FLASH_EEPROM_CMD+0x15c>
200008b8:	85da                	mv	a1,s6
200008ba:	452d                	li	a0,11
200008bc:	33d5                	jal	200006a0 <FLASH_ROM_ADDR>
200008be:	94ca                	add	s1,s1,s2
200008c0:	f29900e3          	beq	s2,s1,200007e0 <FLASH_EEPROM_CMD+0xc0>
200008c4:	0905                	addi	s2,s2,1
200008c6:	3b7d                	jal	20000684 <FLASH_ROM_IN>
200008c8:	fea90fa3          	sb	a0,-1(s2) # fff <check_crc16+0xb>
200008cc:	bfd5                	j	200008c0 <FLASH_EEPROM_CMD+0x1a0>
200008ce:	fff98793          	addi	a5,s3,-1 # ffff <_data_lma+0x28ef>
200008d2:	0ff7f793          	andi	a5,a5,255
200008d6:	0cfc6163          	bltu	s8,a5,20000998 <.loop402+0x7a>
200008da:	041cc783          	lbu	a5,65(s9)
200008de:	08300713          	li	a4,131
200008e2:	04f71f63          	bne	a4,a5,20000940 <.loop402+0x22>
200008e6:	00080737          	lui	a4,0x80
200008ea:	04eb6b63          	bltu	s6,a4,20000940 <.loop402+0x22>
200008ee:	009b07b3          	add	a5,s6,s1
200008f2:	001006b7          	lui	a3,0x100
200008f6:	04d7f563          	bgeu	a5,a3,20000940 <.loop402+0x22>
200008fa:	00eb4b33          	xor	s6,s6,a4
200008fe:	4789                	li	a5,2
20000900:	06f99363          	bne	s3,a5,20000966 <.loop402+0x48>
20000904:	8089                	srli	s1,s1,0x2
20000906:	49d5                	li	s3,21
20000908:	ec048ce3          	beqz	s1,200007e0 <FLASH_EEPROM_CMD+0xc0>
2000090c:	85da                	mv	a1,s6
2000090e:	4509                	li	a0,2
20000910:	3b41                	jal	200006a0 <FLASH_ROM_ADDR>
20000912:	0911                	addi	s2,s2,4
20000914:	ffc92703          	lw	a4,-4(s2)
20000918:	4791                	li	a5,4
2000091a:	80e42023          	sw	a4,-2048(s0)

2000091e <.loop402>:
2000091e:	80640703          	lb	a4,-2042(s0)
20000922:	fe074ee3          	bltz	a4,2000091e <.loop402>
20000926:	81340323          	sb	s3,-2042(s0)
2000092a:	17fd                	addi	a5,a5,-1
2000092c:	fbed                	bnez	a5,2000091e <.loop402>
2000092e:	14fd                	addi	s1,s1,-1
20000930:	0b11                	addi	s6,s6,4
20000932:	c481                	beqz	s1,2000093a <.loop402+0x1c>
20000934:	0ffb7793          	andi	a5,s6,255
20000938:	ffe9                	bnez	a5,20000912 <FLASH_EEPROM_CMD+0x1f2>
2000093a:	337d                	jal	200006e8 <FLASH_ROM_WAIT>
2000093c:	f571                	bnez	a0,20000908 <FLASH_EEPROM_CMD+0x1e8>
2000093e:	b5e1                	j	20000806 <FLASH_EEPROM_CMD+0xe6>
20000940:	400017b7          	lui	a5,0x40001
20000944:	0457c703          	lbu	a4,69(a5) # 40001045 <_eusrstack+0x1fff9045>
20000948:	000807b7          	lui	a5,0x80
2000094c:	02077713          	andi	a4,a4,32
20000950:	e319                	bnez	a4,20000956 <.loop402+0x38>
20000952:	000787b7          	lui	a5,0x78
20000956:	5579                	li	a0,-2
20000958:	eafb78e3          	bgeu	s6,a5,20000808 <FLASH_EEPROM_CMD+0xe8>
2000095c:	009b0733          	add	a4,s6,s1
20000960:	f8e7ffe3          	bgeu	a5,a4,200008fe <FLASH_EEPROM_CMD+0x1de>
20000964:	b555                	j	20000808 <FLASH_EEPROM_CMD+0xe8>
20000966:	4785                	li	a5,1
20000968:	f2f982e3          	beq	s3,a5,2000088c <FLASH_EEPROM_CMD+0x16c>
2000096c:	85da                	mv	a1,s6
2000096e:	452d                	li	a0,11
20000970:	3b05                	jal	200006a0 <FLASH_ROM_ADDR>
20000972:	fff48993          	addi	s3,s1,-1 # 7ffff <_data_lma+0x728ef>
20000976:	e60485e3          	beqz	s1,200007e0 <FLASH_EEPROM_CMD+0xc0>
2000097a:	3329                	jal	20000684 <FLASH_ROM_IN>
2000097c:	0039f793          	andi	a5,s3,3
20000980:	eb91                	bnez	a5,20000994 <.loop402+0x76>
20000982:	80042683          	lw	a3,-2048(s0)
20000986:	00092703          	lw	a4,0(s2)
2000098a:	00490793          	addi	a5,s2,4
2000098e:	e4e69ae3          	bne	a3,a4,200007e2 <FLASH_EEPROM_CMD+0xc2>
20000992:	893e                	mv	s2,a5
20000994:	84ce                	mv	s1,s3
20000996:	bff1                	j	20000972 <.loop402+0x54>
20000998:	47b5                	li	a5,13
2000099a:	00f99663          	bne	s3,a5,200009a6 <.loop402+0x88>
2000099e:	0b900513          	li	a0,185
200009a2:	31c9                	jal	20000664 <FLASH_ROM_BEG>
200009a4:	bd35                	j	200007e0 <FLASH_EEPROM_CMD+0xc0>
200009a6:	47b1                	li	a5,12
200009a8:	0ab00513          	li	a0,171
200009ac:	fef98be3          	beq	s3,a5,200009a2 <.loop402+0x84>
200009b0:	4799                	li	a5,6
200009b2:	04f99163          	bne	s3,a5,200009f4 <.loop402+0xd6>
200009b6:	000805b7          	lui	a1,0x80
200009ba:	00bb65b3          	or	a1,s6,a1
200009be:	452d                	li	a0,11
200009c0:	31c5                	jal	200006a0 <FLASH_ROM_ADDR>
200009c2:	4481                	li	s1,0
200009c4:	4b8d                	li	s7,3
200009c6:	49a1                	li	s3,8
200009c8:	3975                	jal	20000684 <FLASH_ROM_IN>
200009ca:	01749663          	bne	s1,s7,200009d6 <.loop402+0xb8>
200009ce:	80042783          	lw	a5,-2048(s0)
200009d2:	00f92023          	sw	a5,0(s2)
200009d6:	0485                	addi	s1,s1,1
200009d8:	ff3498e3          	bne	s1,s3,200009c8 <.loop402+0xaa>
200009dc:	80042783          	lw	a5,-2048(s0)
200009e0:	012b1713          	slli	a4,s6,0x12
200009e4:	00075563          	bgez	a4,200009ee <.loop402+0xd0>
200009e8:	00f91223          	sh	a5,4(s2)
200009ec:	bbd5                	j	200007e0 <FLASH_EEPROM_CMD+0xc0>
200009ee:	00f92223          	sw	a5,4(s2)
200009f2:	b3fd                	j	200007e0 <FLASH_EEPROM_CMD+0xc0>
200009f4:	479d                	li	a5,7
200009f6:	02f99963          	bne	s3,a5,20000a28 <.loop402+0x10a>
200009fa:	4581                	li	a1,0
200009fc:	04b00513          	li	a0,75
20000a00:	3145                	jal	200006a0 <FLASH_ROM_ADDR>
20000a02:	44bd                	li	s1,15
20000a04:	00092023          	sw	zero,0(s2)
20000a08:	00092223          	sw	zero,4(s2)
20000a0c:	59fd                	li	s3,-1
20000a0e:	399d                	jal	20000684 <FLASH_ROM_IN>
20000a10:	0074f793          	andi	a5,s1,7
20000a14:	97ca                	add	a5,a5,s2
20000a16:	0007c703          	lbu	a4,0(a5) # 78000 <_data_lma+0x6a8f0>
20000a1a:	14fd                	addi	s1,s1,-1
20000a1c:	8d39                	xor	a0,a0,a4
20000a1e:	00a78023          	sb	a0,0(a5)
20000a22:	ff3496e3          	bne	s1,s3,20000a0e <.loop402+0xf0>
20000a26:	bb6d                	j	200007e0 <FLASH_EEPROM_CMD+0xc0>
20000a28:	47a1                	li	a5,8
20000a2a:	04f99263          	bne	s3,a5,20000a6e <.loop402+0x150>
20000a2e:	396d                	jal	200006e8 <FLASH_ROM_WAIT>
20000a30:	4481                	li	s1,0
20000a32:	000b0d63          	beqz	s6,20000a4c <.loop402+0x12e>
20000a36:	478d                	li	a5,3
20000a38:	03c00493          	li	s1,60
20000a3c:	00fb0863          	beq	s6,a5,20000a4c <.loop402+0x12e>
20000a40:	05000493          	li	s1,80
20000a44:	018b0463          	beq	s6,s8,20000a4c <.loop402+0x12e>
20000a48:	04400493          	li	s1,68
20000a4c:	07c57513          	andi	a0,a0,124
20000a50:	d89508e3          	beq	a0,s1,200007e0 <FLASH_EEPROM_CMD+0xc0>
20000a54:	4519                	li	a0,6
20000a56:	3139                	jal	20000664 <FLASH_ROM_BEG>
20000a58:	3939                	jal	20000676 <FLASH_ROM_END>
20000a5a:	4505                	li	a0,1
20000a5c:	3121                	jal	20000664 <FLASH_ROM_BEG>
20000a5e:	8526                	mv	a0,s1
20000a60:	390d                	jal	20000692 <FLASH_ROM_OUT>
20000a62:	4509                	li	a0,2
20000a64:	313d                	jal	20000692 <FLASH_ROM_OUT>
20000a66:	3149                	jal	200006e8 <FLASH_ROM_WAIT>
20000a68:	d6051ce3          	bnez	a0,200007e0 <FLASH_EEPROM_CMD+0xc0>
20000a6c:	bb69                	j	20000806 <FLASH_EEPROM_CMD+0xe6>
20000a6e:	4791                	li	a5,4
20000a70:	00f99963          	bne	s3,a5,20000a82 <.loop402+0x164>
20000a74:	06600513          	li	a0,102
20000a78:	36f5                	jal	20000664 <FLASH_ROM_BEG>
20000a7a:	3ef5                	jal	20000676 <FLASH_ROM_END>
20000a7c:	09900513          	li	a0,153
20000a80:	b70d                	j	200009a2 <.loop402+0x84>
20000a82:	d4098fe3          	beqz	s3,200007e0 <FLASH_EEPROM_CMD+0xc0>
20000a86:	54f1                	li	s1,-4
20000a88:	bba9                	j	200007e2 <FLASH_EEPROM_CMD+0xc2>
	...

Disassembly of section .text:

00000b10 <handle_reset>:
     b10:	20001197          	auipc	gp,0x20001
     b14:	dd818193          	addi	gp,gp,-552 # 200018e8 <__global_pointer$>
     b18:	20007117          	auipc	sp,0x20007
     b1c:	4e810113          	addi	sp,sp,1256 # 20008000 <_eusrstack>
     b20:	08400513          	li	a0,132
     b24:	1ffff597          	auipc	a1,0x1ffff
     b28:	4dc58593          	addi	a1,a1,1244 # 20000000 <_highcode_vma_start>
     b2c:	20000617          	auipc	a2,0x20000
     b30:	f6060613          	addi	a2,a2,-160 # 20000a8c <_highcode_vma_end>
     b34:	00c5fa63          	bgeu	a1,a2,b48 <handle_reset+0x38>
     b38:	00052283          	lw	t0,0(a0)
     b3c:	0055a023          	sw	t0,0(a1)
     b40:	0511                	addi	a0,a0,4
     b42:	0591                	addi	a1,a1,4
     b44:	fec5eae3          	bltu	a1,a2,b38 <handle_reset+0x28>
     b48:	0000d517          	auipc	a0,0xd
     b4c:	bc850513          	addi	a0,a0,-1080 # d710 <_data_lma>
     b50:	20000597          	auipc	a1,0x20000
     b54:	f3c58593          	addi	a1,a1,-196 # 20000a8c <_highcode_vma_end>
     b58:	81018613          	addi	a2,gp,-2032 # 200010f8 <_edata>
     b5c:	00c5fa63          	bgeu	a1,a2,b70 <handle_reset+0x60>
     b60:	00052283          	lw	t0,0(a0)
     b64:	0055a023          	sw	t0,0(a1)
     b68:	0511                	addi	a0,a0,4
     b6a:	0591                	addi	a1,a1,4
     b6c:	fec5eae3          	bltu	a1,a2,b60 <handle_reset+0x50>
     b70:	81018513          	addi	a0,gp,-2032 # 200010f8 <_edata>
     b74:	66c18593          	addi	a1,gp,1644 # 20001f54 <_ebss>
     b78:	00b57763          	bgeu	a0,a1,b86 <handle_reset+0x76>
     b7c:	00052023          	sw	zero,0(a0)
     b80:	0511                	addi	a0,a0,4
     b82:	feb56de3          	bltu	a0,a1,b7c <handle_reset+0x6c>
     b86:	42fd                	li	t0,31
     b88:	bc029073          	csrw	0xbc0,t0
     b8c:	428d                	li	t0,3
     b8e:	80429073          	csrw	0x804,t0
     b92:	08800293          	li	t0,136
     b96:	3002a073          	csrs	mstatus,t0
     b9a:	1ffff297          	auipc	t0,0x1ffff
     b9e:	46628293          	addi	t0,t0,1126 # 20000000 <_highcode_vma_start>
     ba2:	0032e293          	ori	t0,t0,3
     ba6:	30529073          	csrw	mtvec,t0
     baa:	00001297          	auipc	t0,0x1
     bae:	1b628293          	addi	t0,t0,438 # 1d60 <main>
     bb2:	34129073          	csrw	mepc,t0
     bb6:	30200073          	mret

00000bba <memset>:
     bba:	433d                	li	t1,15
     bbc:	872a                	mv	a4,a0
     bbe:	02c37363          	bgeu	t1,a2,be4 <memset+0x2a>
     bc2:	00f77793          	andi	a5,a4,15
     bc6:	efbd                	bnez	a5,c44 <memset+0x8a>
     bc8:	e5ad                	bnez	a1,c32 <memset+0x78>
     bca:	ff067693          	andi	a3,a2,-16
     bce:	8a3d                	andi	a2,a2,15
     bd0:	96ba                	add	a3,a3,a4
     bd2:	c30c                	sw	a1,0(a4)
     bd4:	c34c                	sw	a1,4(a4)
     bd6:	c70c                	sw	a1,8(a4)
     bd8:	c74c                	sw	a1,12(a4)
     bda:	0741                	addi	a4,a4,16
     bdc:	fed76be3          	bltu	a4,a3,bd2 <memset+0x18>
     be0:	e211                	bnez	a2,be4 <memset+0x2a>
     be2:	8082                	ret
     be4:	40c306b3          	sub	a3,t1,a2
     be8:	068a                	slli	a3,a3,0x2
     bea:	00000297          	auipc	t0,0x0
     bee:	9696                	add	a3,a3,t0
     bf0:	00a68067          	jr	10(a3) # 10000a <_data_lma+0xf28fa>
     bf4:	00b70723          	sb	a1,14(a4) # 8000e <_data_lma+0x728fe>
     bf8:	00b706a3          	sb	a1,13(a4)
     bfc:	00b70623          	sb	a1,12(a4)
     c00:	00b705a3          	sb	a1,11(a4)
     c04:	00b70523          	sb	a1,10(a4)
     c08:	00b704a3          	sb	a1,9(a4)
     c0c:	00b70423          	sb	a1,8(a4)
     c10:	00b703a3          	sb	a1,7(a4)
     c14:	00b70323          	sb	a1,6(a4)
     c18:	00b702a3          	sb	a1,5(a4)
     c1c:	00b70223          	sb	a1,4(a4)
     c20:	00b701a3          	sb	a1,3(a4)
     c24:	00b70123          	sb	a1,2(a4)
     c28:	00b700a3          	sb	a1,1(a4)
     c2c:	00b70023          	sb	a1,0(a4)
     c30:	8082                	ret
     c32:	0ff5f593          	andi	a1,a1,255
     c36:	00859693          	slli	a3,a1,0x8
     c3a:	8dd5                	or	a1,a1,a3
     c3c:	01059693          	slli	a3,a1,0x10
     c40:	8dd5                	or	a1,a1,a3
     c42:	b761                	j	bca <memset+0x10>
     c44:	00279693          	slli	a3,a5,0x2
     c48:	00000297          	auipc	t0,0x0
     c4c:	9696                	add	a3,a3,t0
     c4e:	8286                	mv	t0,ra
     c50:	fa8680e7          	jalr	-88(a3)
     c54:	8096                	mv	ra,t0
     c56:	17c1                	addi	a5,a5,-16
     c58:	8f1d                	sub	a4,a4,a5
     c5a:	963e                	add	a2,a2,a5
     c5c:	f8c374e3          	bgeu	t1,a2,be4 <memset+0x2a>
     c60:	b7a5                	j	bc8 <memset+0xe>

00000c62 <reflected_data>:
     c62:	01051793          	slli	a5,a0,0x10
     c66:	8141                	srli	a0,a0,0x10
     c68:	8d5d                	or	a0,a0,a5
     c6a:	00ff0737          	lui	a4,0xff0
     c6e:	00855793          	srli	a5,a0,0x8
     c72:	0ff70713          	addi	a4,a4,255 # ff00ff <_data_lma+0xfe29ef>
     c76:	8ff9                	and	a5,a5,a4
     c78:	ff010737          	lui	a4,0xff010
     c7c:	f0070713          	addi	a4,a4,-256 # ff00ff00 <_eusrstack+0xdf007f00>
     c80:	0522                	slli	a0,a0,0x8
     c82:	8d79                	and	a0,a0,a4
     c84:	8d5d                	or	a0,a0,a5
     c86:	0f0f1737          	lui	a4,0xf0f1
     c8a:	00455793          	srli	a5,a0,0x4
     c8e:	f0f70713          	addi	a4,a4,-241 # f0f0f0f <_data_lma+0xf0e37ff>
     c92:	8ff9                	and	a5,a5,a4
     c94:	f0f0f737          	lui	a4,0xf0f0f
     c98:	0f070713          	addi	a4,a4,240 # f0f0f0f0 <_eusrstack+0xd0f070f0>
     c9c:	0512                	slli	a0,a0,0x4
     c9e:	8d79                	and	a0,a0,a4
     ca0:	8d5d                	or	a0,a0,a5
     ca2:	33333737          	lui	a4,0x33333
     ca6:	00255793          	srli	a5,a0,0x2
     caa:	33370713          	addi	a4,a4,819 # 33333333 <_eusrstack+0x1332b333>
     cae:	8ff9                	and	a5,a5,a4
     cb0:	ccccd737          	lui	a4,0xccccd
     cb4:	ccc70713          	addi	a4,a4,-820 # cccccccc <_eusrstack+0xaccc4ccc>
     cb8:	050a                	slli	a0,a0,0x2
     cba:	8d79                	and	a0,a0,a4
     cbc:	8fc9                	or	a5,a5,a0
     cbe:	55555737          	lui	a4,0x55555
     cc2:	0017d513          	srli	a0,a5,0x1
     cc6:	55570713          	addi	a4,a4,1365 # 55555555 <_eusrstack+0x3554d555>
     cca:	8d79                	and	a0,a0,a4
     ccc:	aaaab737          	lui	a4,0xaaaab
     cd0:	0786                	slli	a5,a5,0x1
     cd2:	aaa70713          	addi	a4,a4,-1366 # aaaaaaaa <_eusrstack+0x8aaa2aaa>
     cd6:	8ff9                	and	a5,a5,a4
     cd8:	8d5d                	or	a0,a0,a5
     cda:	479d                	li	a5,7
     cdc:	02f58b63          	beq	a1,a5,d12 <reflected_data+0xb0>
     ce0:	00b7ed63          	bltu	a5,a1,cfa <reflected_data+0x98>
     ce4:	4795                	li	a5,5
     ce6:	02f58a63          	beq	a1,a5,d1a <reflected_data+0xb8>
     cea:	02b7e663          	bltu	a5,a1,d16 <reflected_data+0xb4>
     cee:	4791                	li	a5,4
     cf0:	8171                	srli	a0,a0,0x1c
     cf2:	02f58563          	beq	a1,a5,d1c <reflected_data+0xba>
     cf6:	4501                	li	a0,0
     cf8:	8082                	ret
     cfa:	47c1                	li	a5,16
     cfc:	00f58963          	beq	a1,a5,d0e <reflected_data+0xac>
     d00:	02000793          	li	a5,32
     d04:	00f58c63          	beq	a1,a5,d1c <reflected_data+0xba>
     d08:	47a1                	li	a5,8
     d0a:	8161                	srli	a0,a0,0x18
     d0c:	b7dd                	j	cf2 <reflected_data+0x90>
     d0e:	8141                	srli	a0,a0,0x10
     d10:	8082                	ret
     d12:	8165                	srli	a0,a0,0x19
     d14:	8082                	ret
     d16:	8169                	srli	a0,a0,0x1a
     d18:	8082                	ret
     d1a:	816d                	srli	a0,a0,0x1b
     d1c:	8082                	ret

00000d1e <check_crc4>:
     d1e:	1101                	addi	sp,sp,-32
     d20:	cc22                	sw	s0,24(sp)
     d22:	ca26                	sw	s1,20(sp)
     d24:	ce06                	sw	ra,28(sp)
     d26:	842e                	mv	s0,a1
     d28:	010784b3          	add	s1,a5,a6
     d2c:	c239                	beqz	a2,d72 <check_crc4+0x54>
     d2e:	4591                	li	a1,4
     d30:	c63e                	sw	a5,12(sp)
     d32:	c43a                	sw	a4,8(sp)
     d34:	373d                	jal	c62 <reflected_data>
     d36:	4722                	lw	a4,8(sp)
     d38:	47b2                	lw	a5,12(sp)
     d3a:	0ff57513          	andi	a0,a0,255
     d3e:	00979963          	bne	a5,s1,d50 <check_crc4+0x32>
     d42:	00874533          	xor	a0,a4,s0
     d46:	40f2                	lw	ra,28(sp)
     d48:	4462                	lw	s0,24(sp)
     d4a:	44d2                	lw	s1,20(sp)
     d4c:	6105                	addi	sp,sp,32
     d4e:	8082                	ret
     d50:	0785                	addi	a5,a5,1
     d52:	fff7c683          	lbu	a3,-1(a5)
     d56:	8c35                	xor	s0,s0,a3
     d58:	46a1                	li	a3,8
     d5a:	00147613          	andi	a2,s0,1
     d5e:	8005                	srli	s0,s0,0x1
     d60:	c601                	beqz	a2,d68 <check_crc4+0x4a>
     d62:	8c29                	xor	s0,s0,a0
     d64:	0ff47413          	andi	s0,s0,255
     d68:	16fd                	addi	a3,a3,-1
     d6a:	0ff6f693          	andi	a3,a3,255
     d6e:	f6f5                	bnez	a3,d5a <check_crc4+0x3c>
     d70:	b7f9                	j	d3e <check_crc4+0x20>
     d72:	00459693          	slli	a3,a1,0x4
     d76:	00451893          	slli	a7,a0,0x4
     d7a:	0ff6f693          	andi	a3,a3,255
     d7e:	0ff8f893          	andi	a7,a7,255
     d82:	00979663          	bne	a5,s1,d8e <check_crc4+0x70>
     d86:	8291                	srli	a3,a3,0x4
     d88:	00e6c533          	xor	a0,a3,a4
     d8c:	bf6d                	j	d46 <check_crc4+0x28>
     d8e:	0785                	addi	a5,a5,1
     d90:	fff7c603          	lbu	a2,-1(a5)
     d94:	8eb1                	xor	a3,a3,a2
     d96:	4621                	li	a2,8
     d98:	01869593          	slli	a1,a3,0x18
     d9c:	85e1                	srai	a1,a1,0x18
     d9e:	0686                	slli	a3,a3,0x1
     da0:	0ff6f693          	andi	a3,a3,255
     da4:	0005d463          	bgez	a1,dac <check_crc4+0x8e>
     da8:	0116c6b3          	xor	a3,a3,a7
     dac:	167d                	addi	a2,a2,-1
     dae:	0ff67613          	andi	a2,a2,255
     db2:	f27d                	bnez	a2,d98 <check_crc4+0x7a>
     db4:	b7f9                	j	d82 <check_crc4+0x64>

00000db6 <check_crc5>:
     db6:	1101                	addi	sp,sp,-32
     db8:	cc22                	sw	s0,24(sp)
     dba:	ca26                	sw	s1,20(sp)
     dbc:	ce06                	sw	ra,28(sp)
     dbe:	842e                	mv	s0,a1
     dc0:	010784b3          	add	s1,a5,a6
     dc4:	c239                	beqz	a2,e0a <check_crc5+0x54>
     dc6:	4595                	li	a1,5
     dc8:	c63e                	sw	a5,12(sp)
     dca:	c43a                	sw	a4,8(sp)
     dcc:	3d59                	jal	c62 <reflected_data>
     dce:	4722                	lw	a4,8(sp)
     dd0:	47b2                	lw	a5,12(sp)
     dd2:	0ff57513          	andi	a0,a0,255
     dd6:	00979963          	bne	a5,s1,de8 <check_crc5+0x32>
     dda:	00874533          	xor	a0,a4,s0
     dde:	40f2                	lw	ra,28(sp)
     de0:	4462                	lw	s0,24(sp)
     de2:	44d2                	lw	s1,20(sp)
     de4:	6105                	addi	sp,sp,32
     de6:	8082                	ret
     de8:	0785                	addi	a5,a5,1
     dea:	fff7c683          	lbu	a3,-1(a5)
     dee:	8c35                	xor	s0,s0,a3
     df0:	46a1                	li	a3,8
     df2:	00147613          	andi	a2,s0,1
     df6:	8005                	srli	s0,s0,0x1
     df8:	c601                	beqz	a2,e00 <check_crc5+0x4a>
     dfa:	8c29                	xor	s0,s0,a0
     dfc:	0ff47413          	andi	s0,s0,255
     e00:	16fd                	addi	a3,a3,-1
     e02:	0ff6f693          	andi	a3,a3,255
     e06:	f6f5                	bnez	a3,df2 <check_crc5+0x3c>
     e08:	b7f9                	j	dd6 <check_crc5+0x20>
     e0a:	00359693          	slli	a3,a1,0x3
     e0e:	00351893          	slli	a7,a0,0x3
     e12:	0ff6f693          	andi	a3,a3,255
     e16:	0ff8f893          	andi	a7,a7,255
     e1a:	00979663          	bne	a5,s1,e26 <check_crc5+0x70>
     e1e:	828d                	srli	a3,a3,0x3
     e20:	00e6c533          	xor	a0,a3,a4
     e24:	bf6d                	j	dde <check_crc5+0x28>
     e26:	0785                	addi	a5,a5,1
     e28:	fff7c603          	lbu	a2,-1(a5)
     e2c:	8eb1                	xor	a3,a3,a2
     e2e:	4621                	li	a2,8
     e30:	01869593          	slli	a1,a3,0x18
     e34:	85e1                	srai	a1,a1,0x18
     e36:	0686                	slli	a3,a3,0x1
     e38:	0ff6f693          	andi	a3,a3,255
     e3c:	0005d463          	bgez	a1,e44 <check_crc5+0x8e>
     e40:	0116c6b3          	xor	a3,a3,a7
     e44:	167d                	addi	a2,a2,-1
     e46:	0ff67613          	andi	a2,a2,255
     e4a:	f27d                	bnez	a2,e30 <check_crc5+0x7a>
     e4c:	b7f9                	j	e1a <check_crc5+0x64>

00000e4e <check_crc6>:
     e4e:	1101                	addi	sp,sp,-32
     e50:	cc22                	sw	s0,24(sp)
     e52:	ca26                	sw	s1,20(sp)
     e54:	ce06                	sw	ra,28(sp)
     e56:	842e                	mv	s0,a1
     e58:	010784b3          	add	s1,a5,a6
     e5c:	c239                	beqz	a2,ea2 <check_crc6+0x54>
     e5e:	4599                	li	a1,6
     e60:	c63e                	sw	a5,12(sp)
     e62:	c43a                	sw	a4,8(sp)
     e64:	3bfd                	jal	c62 <reflected_data>
     e66:	4722                	lw	a4,8(sp)
     e68:	47b2                	lw	a5,12(sp)
     e6a:	0ff57513          	andi	a0,a0,255
     e6e:	00979963          	bne	a5,s1,e80 <check_crc6+0x32>
     e72:	00874533          	xor	a0,a4,s0
     e76:	40f2                	lw	ra,28(sp)
     e78:	4462                	lw	s0,24(sp)
     e7a:	44d2                	lw	s1,20(sp)
     e7c:	6105                	addi	sp,sp,32
     e7e:	8082                	ret
     e80:	0785                	addi	a5,a5,1
     e82:	fff7c683          	lbu	a3,-1(a5)
     e86:	8c35                	xor	s0,s0,a3
     e88:	46a1                	li	a3,8
     e8a:	00147613          	andi	a2,s0,1
     e8e:	8005                	srli	s0,s0,0x1
     e90:	c601                	beqz	a2,e98 <check_crc6+0x4a>
     e92:	8c29                	xor	s0,s0,a0
     e94:	0ff47413          	andi	s0,s0,255
     e98:	16fd                	addi	a3,a3,-1
     e9a:	0ff6f693          	andi	a3,a3,255
     e9e:	f6f5                	bnez	a3,e8a <check_crc6+0x3c>
     ea0:	b7f9                	j	e6e <check_crc6+0x20>
     ea2:	00259693          	slli	a3,a1,0x2
     ea6:	00251893          	slli	a7,a0,0x2
     eaa:	0ff6f693          	andi	a3,a3,255
     eae:	0ff8f893          	andi	a7,a7,255
     eb2:	00979663          	bne	a5,s1,ebe <check_crc6+0x70>
     eb6:	8289                	srli	a3,a3,0x2
     eb8:	00e6c533          	xor	a0,a3,a4
     ebc:	bf6d                	j	e76 <check_crc6+0x28>
     ebe:	0785                	addi	a5,a5,1
     ec0:	fff7c603          	lbu	a2,-1(a5)
     ec4:	8eb1                	xor	a3,a3,a2
     ec6:	4621                	li	a2,8
     ec8:	01869593          	slli	a1,a3,0x18
     ecc:	85e1                	srai	a1,a1,0x18
     ece:	0686                	slli	a3,a3,0x1
     ed0:	0ff6f693          	andi	a3,a3,255
     ed4:	0005d463          	bgez	a1,edc <check_crc6+0x8e>
     ed8:	0116c6b3          	xor	a3,a3,a7
     edc:	167d                	addi	a2,a2,-1
     ede:	0ff67613          	andi	a2,a2,255
     ee2:	f27d                	bnez	a2,ec8 <check_crc6+0x7a>
     ee4:	b7f9                	j	eb2 <check_crc6+0x64>

00000ee6 <check_crc7>:
     ee6:	1101                	addi	sp,sp,-32
     ee8:	cc22                	sw	s0,24(sp)
     eea:	ca26                	sw	s1,20(sp)
     eec:	ce06                	sw	ra,28(sp)
     eee:	842e                	mv	s0,a1
     ef0:	010784b3          	add	s1,a5,a6
     ef4:	c239                	beqz	a2,f3a <check_crc7+0x54>
     ef6:	459d                	li	a1,7
     ef8:	c63e                	sw	a5,12(sp)
     efa:	c43a                	sw	a4,8(sp)
     efc:	339d                	jal	c62 <reflected_data>
     efe:	4722                	lw	a4,8(sp)
     f00:	47b2                	lw	a5,12(sp)
     f02:	0ff57513          	andi	a0,a0,255
     f06:	00979963          	bne	a5,s1,f18 <check_crc7+0x32>
     f0a:	00874533          	xor	a0,a4,s0
     f0e:	40f2                	lw	ra,28(sp)
     f10:	4462                	lw	s0,24(sp)
     f12:	44d2                	lw	s1,20(sp)
     f14:	6105                	addi	sp,sp,32
     f16:	8082                	ret
     f18:	0785                	addi	a5,a5,1
     f1a:	fff7c683          	lbu	a3,-1(a5)
     f1e:	8c35                	xor	s0,s0,a3
     f20:	46a1                	li	a3,8
     f22:	00147613          	andi	a2,s0,1
     f26:	8005                	srli	s0,s0,0x1
     f28:	c601                	beqz	a2,f30 <check_crc7+0x4a>
     f2a:	8c29                	xor	s0,s0,a0
     f2c:	0ff47413          	andi	s0,s0,255
     f30:	16fd                	addi	a3,a3,-1
     f32:	0ff6f693          	andi	a3,a3,255
     f36:	f6f5                	bnez	a3,f22 <check_crc7+0x3c>
     f38:	b7f9                	j	f06 <check_crc7+0x20>
     f3a:	00159693          	slli	a3,a1,0x1
     f3e:	00151893          	slli	a7,a0,0x1
     f42:	0ff6f693          	andi	a3,a3,255
     f46:	0ff8f893          	andi	a7,a7,255
     f4a:	00979663          	bne	a5,s1,f56 <check_crc7+0x70>
     f4e:	8285                	srli	a3,a3,0x1
     f50:	00e6c533          	xor	a0,a3,a4
     f54:	bf6d                	j	f0e <check_crc7+0x28>
     f56:	0785                	addi	a5,a5,1
     f58:	fff7c603          	lbu	a2,-1(a5)
     f5c:	8eb1                	xor	a3,a3,a2
     f5e:	4621                	li	a2,8
     f60:	01869593          	slli	a1,a3,0x18
     f64:	85e1                	srai	a1,a1,0x18
     f66:	0686                	slli	a3,a3,0x1
     f68:	0ff6f693          	andi	a3,a3,255
     f6c:	0005d463          	bgez	a1,f74 <check_crc7+0x8e>
     f70:	0116c6b3          	xor	a3,a3,a7
     f74:	167d                	addi	a2,a2,-1
     f76:	0ff67613          	andi	a2,a2,255
     f7a:	f27d                	bnez	a2,f60 <check_crc7+0x7a>
     f7c:	b7f9                	j	f4a <check_crc7+0x64>

00000f7e <check_crc8>:
     f7e:	7179                	addi	sp,sp,-48
     f80:	d422                	sw	s0,40(sp)
     f82:	d226                	sw	s1,36(sp)
     f84:	d04a                	sw	s2,32(sp)
     f86:	ce4e                	sw	s3,28(sp)
     f88:	d606                	sw	ra,44(sp)
     f8a:	89aa                	mv	s3,a0
     f8c:	842e                	mv	s0,a1
     f8e:	84ba                	mv	s1,a4
     f90:	01078933          	add	s2,a5,a6
     f94:	02f91163          	bne	s2,a5,fb6 <check_crc8+0x38>
     f98:	c691                	beqz	a3,fa4 <check_crc8+0x26>
     f9a:	8522                	mv	a0,s0
     f9c:	45a1                	li	a1,8
     f9e:	31d1                	jal	c62 <reflected_data>
     fa0:	0ff57413          	andi	s0,a0,255
     fa4:	00944533          	xor	a0,s0,s1
     fa8:	50b2                	lw	ra,44(sp)
     faa:	5422                	lw	s0,40(sp)
     fac:	5492                	lw	s1,36(sp)
     fae:	5902                	lw	s2,32(sp)
     fb0:	49f2                	lw	s3,28(sp)
     fb2:	6145                	addi	sp,sp,48
     fb4:	8082                	ret
     fb6:	0007c503          	lbu	a0,0(a5)
     fba:	0785                	addi	a5,a5,1
     fbc:	ca15                	beqz	a2,ff0 <check_crc8+0x72>
     fbe:	45a1                	li	a1,8
     fc0:	c63e                	sw	a5,12(sp)
     fc2:	c436                	sw	a3,8(sp)
     fc4:	c232                	sw	a2,4(sp)
     fc6:	3971                	jal	c62 <reflected_data>
     fc8:	4612                	lw	a2,4(sp)
     fca:	46a2                	lw	a3,8(sp)
     fcc:	47b2                	lw	a5,12(sp)
     fce:	8c29                	xor	s0,s0,a0
     fd0:	0ff47413          	andi	s0,s0,255
     fd4:	45a1                	li	a1,8
     fd6:	01841713          	slli	a4,s0,0x18
     fda:	8761                	srai	a4,a4,0x18
     fdc:	0406                	slli	s0,s0,0x1
     fde:	0ff47413          	andi	s0,s0,255
     fe2:	00075463          	bgez	a4,fea <check_crc8+0x6c>
     fe6:	0089c433          	xor	s0,s3,s0
     fea:	15fd                	addi	a1,a1,-1
     fec:	f5ed                	bnez	a1,fd6 <check_crc8+0x58>
     fee:	b75d                	j	f94 <check_crc8+0x16>
     ff0:	8c29                	xor	s0,s0,a0
     ff2:	b7cd                	j	fd4 <check_crc8+0x56>

00000ff4 <check_crc16>:
     ff4:	7179                	addi	sp,sp,-48
     ff6:	d422                	sw	s0,40(sp)
     ff8:	d226                	sw	s1,36(sp)
     ffa:	d04a                	sw	s2,32(sp)
     ffc:	ce4e                	sw	s3,28(sp)
     ffe:	d606                	sw	ra,44(sp)
    1000:	89aa                	mv	s3,a0
    1002:	842e                	mv	s0,a1
    1004:	84ba                	mv	s1,a4
    1006:	01078933          	add	s2,a5,a6
    100a:	02f91263          	bne	s2,a5,102e <check_crc16+0x3a>
    100e:	c699                	beqz	a3,101c <check_crc16+0x28>
    1010:	8522                	mv	a0,s0
    1012:	45c1                	li	a1,16
    1014:	31b9                	jal	c62 <reflected_data>
    1016:	01051413          	slli	s0,a0,0x10
    101a:	8041                	srli	s0,s0,0x10
    101c:	00944533          	xor	a0,s0,s1
    1020:	50b2                	lw	ra,44(sp)
    1022:	5422                	lw	s0,40(sp)
    1024:	5492                	lw	s1,36(sp)
    1026:	5902                	lw	s2,32(sp)
    1028:	49f2                	lw	s3,28(sp)
    102a:	6145                	addi	sp,sp,48
    102c:	8082                	ret
    102e:	0007c503          	lbu	a0,0(a5)
    1032:	0785                	addi	a5,a5,1
    1034:	ca1d                	beqz	a2,106a <check_crc16+0x76>
    1036:	45a1                	li	a1,8
    1038:	c63e                	sw	a5,12(sp)
    103a:	c436                	sw	a3,8(sp)
    103c:	c232                	sw	a2,4(sp)
    103e:	3115                	jal	c62 <reflected_data>
    1040:	0522                	slli	a0,a0,0x8
    1042:	8c29                	xor	s0,s0,a0
    1044:	4612                	lw	a2,4(sp)
    1046:	46a2                	lw	a3,8(sp)
    1048:	47b2                	lw	a5,12(sp)
    104a:	0442                	slli	s0,s0,0x10
    104c:	8041                	srli	s0,s0,0x10
    104e:	45a1                	li	a1,8
    1050:	01041713          	slli	a4,s0,0x10
    1054:	0406                	slli	s0,s0,0x1
    1056:	0442                	slli	s0,s0,0x10
    1058:	8741                	srai	a4,a4,0x10
    105a:	8041                	srli	s0,s0,0x10
    105c:	00075463          	bgez	a4,1064 <check_crc16+0x70>
    1060:	0089c433          	xor	s0,s3,s0
    1064:	15fd                	addi	a1,a1,-1
    1066:	f5ed                	bnez	a1,1050 <check_crc16+0x5c>
    1068:	b74d                	j	100a <check_crc16+0x16>
    106a:	0522                	slli	a0,a0,0x8
    106c:	8c29                	xor	s0,s0,a0
    106e:	b7c5                	j	104e <check_crc16+0x5a>

00001070 <check_crc32>:
    1070:	7179                	addi	sp,sp,-48
    1072:	d422                	sw	s0,40(sp)
    1074:	d226                	sw	s1,36(sp)
    1076:	d04a                	sw	s2,32(sp)
    1078:	ce4e                	sw	s3,28(sp)
    107a:	d606                	sw	ra,44(sp)
    107c:	89aa                	mv	s3,a0
    107e:	842e                	mv	s0,a1
    1080:	84ba                	mv	s1,a4
    1082:	01078933          	add	s2,a5,a6
    1086:	02f91163          	bne	s2,a5,10a8 <check_crc32+0x38>
    108a:	c691                	beqz	a3,1096 <check_crc32+0x26>
    108c:	8522                	mv	a0,s0
    108e:	02000593          	li	a1,32
    1092:	3ec1                	jal	c62 <reflected_data>
    1094:	842a                	mv	s0,a0
    1096:	00944533          	xor	a0,s0,s1
    109a:	50b2                	lw	ra,44(sp)
    109c:	5422                	lw	s0,40(sp)
    109e:	5492                	lw	s1,36(sp)
    10a0:	5902                	lw	s2,32(sp)
    10a2:	49f2                	lw	s3,28(sp)
    10a4:	6145                	addi	sp,sp,48
    10a6:	8082                	ret
    10a8:	0007c503          	lbu	a0,0(a5)
    10ac:	0785                	addi	a5,a5,1
    10ae:	c60d                	beqz	a2,10d8 <check_crc32+0x68>
    10b0:	45a1                	li	a1,8
    10b2:	c63e                	sw	a5,12(sp)
    10b4:	c436                	sw	a3,8(sp)
    10b6:	c232                	sw	a2,4(sp)
    10b8:	366d                	jal	c62 <reflected_data>
    10ba:	4612                	lw	a2,4(sp)
    10bc:	46a2                	lw	a3,8(sp)
    10be:	47b2                	lw	a5,12(sp)
    10c0:	0562                	slli	a0,a0,0x18
    10c2:	8c29                	xor	s0,s0,a0
    10c4:	45a1                	li	a1,8
    10c6:	8722                	mv	a4,s0
    10c8:	0406                	slli	s0,s0,0x1
    10ca:	00075463          	bgez	a4,10d2 <check_crc32+0x62>
    10ce:	01344433          	xor	s0,s0,s3
    10d2:	15fd                	addi	a1,a1,-1
    10d4:	f9ed                	bnez	a1,10c6 <check_crc32+0x56>
    10d6:	bf45                	j	1086 <check_crc32+0x16>
    10d8:	0562                	slli	a0,a0,0x18
    10da:	8c29                	xor	s0,s0,a0
    10dc:	b7e5                	j	10c4 <check_crc32+0x54>

000010de <crc_check>:
    10de:	1141                	addi	sp,sp,-16
    10e0:	c606                	sw	ra,12(sp)
    10e2:	00054703          	lbu	a4,0(a0)
    10e6:	469d                	li	a3,7
    10e8:	87ae                	mv	a5,a1
    10ea:	8832                	mv	a6,a2
    10ec:	08d70a63          	beq	a4,a3,1180 <crc_check+0xa2>
    10f0:	00e6ee63          	bltu	a3,a4,110c <crc_check+0x2e>
    10f4:	4695                	li	a3,5
    10f6:	04d70d63          	beq	a4,a3,1150 <crc_check+0x72>
    10fa:	06e6e763          	bltu	a3,a4,1168 <crc_check+0x8a>
    10fe:	4691                	li	a3,4
    1100:	02d70c63          	beq	a4,a3,1138 <crc_check+0x5a>
    1104:	4501                	li	a0,0
    1106:	40b2                	lw	ra,12(sp)
    1108:	0141                	addi	sp,sp,16
    110a:	8082                	ret
    110c:	46c1                	li	a3,16
    110e:	08d70563          	beq	a4,a3,1198 <crc_check+0xba>
    1112:	02000693          	li	a3,32
    1116:	08d70d63          	beq	a4,a3,11b0 <crc_check+0xd2>
    111a:	46a1                	li	a3,8
    111c:	fed714e3          	bne	a4,a3,1104 <crc_check+0x26>
    1120:	01054703          	lbu	a4,16(a0)
    1124:	00d54683          	lbu	a3,13(a0)
    1128:	00c54603          	lbu	a2,12(a0)
    112c:	00854583          	lbu	a1,8(a0)
    1130:	00454503          	lbu	a0,4(a0)
    1134:	35a9                	jal	f7e <check_crc8>
    1136:	bfc1                	j	1106 <crc_check+0x28>
    1138:	01054703          	lbu	a4,16(a0)
    113c:	00d54683          	lbu	a3,13(a0)
    1140:	00c54603          	lbu	a2,12(a0)
    1144:	00854583          	lbu	a1,8(a0)
    1148:	00454503          	lbu	a0,4(a0)
    114c:	3ec9                	jal	d1e <check_crc4>
    114e:	bf65                	j	1106 <crc_check+0x28>
    1150:	01054703          	lbu	a4,16(a0)
    1154:	00d54683          	lbu	a3,13(a0)
    1158:	00c54603          	lbu	a2,12(a0)
    115c:	00854583          	lbu	a1,8(a0)
    1160:	00454503          	lbu	a0,4(a0)
    1164:	3989                	jal	db6 <check_crc5>
    1166:	b745                	j	1106 <crc_check+0x28>
    1168:	01054703          	lbu	a4,16(a0)
    116c:	00d54683          	lbu	a3,13(a0)
    1170:	00c54603          	lbu	a2,12(a0)
    1174:	00854583          	lbu	a1,8(a0)
    1178:	00454503          	lbu	a0,4(a0)
    117c:	39c9                	jal	e4e <check_crc6>
    117e:	b761                	j	1106 <crc_check+0x28>
    1180:	01054703          	lbu	a4,16(a0)
    1184:	00d54683          	lbu	a3,13(a0)
    1188:	00c54603          	lbu	a2,12(a0)
    118c:	00854583          	lbu	a1,8(a0)
    1190:	00454503          	lbu	a0,4(a0)
    1194:	3b89                	jal	ee6 <check_crc7>
    1196:	bf85                	j	1106 <crc_check+0x28>
    1198:	01055703          	lhu	a4,16(a0)
    119c:	00d54683          	lbu	a3,13(a0)
    11a0:	00c54603          	lbu	a2,12(a0)
    11a4:	00855583          	lhu	a1,8(a0)
    11a8:	00455503          	lhu	a0,4(a0)
    11ac:	35a1                	jal	ff4 <check_crc16>
    11ae:	bfa1                	j	1106 <crc_check+0x28>
    11b0:	4918                	lw	a4,16(a0)
    11b2:	00d54683          	lbu	a3,13(a0)
    11b6:	00c54603          	lbu	a2,12(a0)
    11ba:	450c                	lw	a1,8(a0)
    11bc:	40b2                	lw	ra,12(sp)
    11be:	4148                	lw	a0,4(a0)
    11c0:	0141                	addi	sp,sp,16
    11c2:	b57d                	j	1070 <check_crc32>

000011c4 <log_buffer_hex>:
    11c4:	ca71                	beqz	a2,1298 <log_buffer_hex+0xd4>
    11c6:	7175                	addi	sp,sp,-144
    11c8:	c326                	sw	s1,132(sp)
    11ca:	c14a                	sw	s2,128(sp)
    11cc:	dece                	sw	s3,124(sp)
    11ce:	dcd2                	sw	s4,120(sp)
    11d0:	dad6                	sw	s5,116(sp)
    11d2:	d8da                	sw	s6,112(sp)
    11d4:	d6de                	sw	s7,108(sp)
    11d6:	d4e2                	sw	s8,104(sp)
    11d8:	d2e6                	sw	s9,100(sp)
    11da:	d0ea                	sw	s10,96(sp)
    11dc:	ceee                	sw	s11,92(sp)
    11de:	c706                	sw	ra,140(sp)
    11e0:	c522                	sw	s0,136(sp)
    11e2:	892a                	mv	s2,a0
    11e4:	8a2e                	mv	s4,a1
    11e6:	84b2                	mv	s1,a2
    11e8:	89b6                	mv	s3,a3
    11ea:	4ac1                	li	s5,16
    11ec:	0000bb97          	auipc	s7,0xb
    11f0:	070b8b93          	addi	s7,s7,112 # c25c <_sbrk+0x48>
    11f4:	4b05                	li	s6,1
    11f6:	4c09                	li	s8,2
    11f8:	4c91                	li	s9,4
    11fa:	4d15                	li	s10,5
    11fc:	0000bd97          	auipc	s11,0xb
    1200:	098d8d93          	addi	s11,s11,152 # c294 <_sbrk+0x80>
    1204:	8426                	mv	s0,s1
    1206:	009af363          	bgeu	s5,s1,120c <log_buffer_hex+0x48>
    120a:	4441                	li	s0,16
    120c:	0442                	slli	s0,s0,0x10
    120e:	8041                	srli	s0,s0,0x10
    1210:	0874                	addi	a3,sp,28
    1212:	4701                	li	a4,0
    1214:	00ea0633          	add	a2,s4,a4
    1218:	00064603          	lbu	a2,0(a2)
    121c:	8536                	mv	a0,a3
    121e:	85de                	mv	a1,s7
    1220:	c63a                	sw	a4,12(sp)
    1222:	c436                	sw	a3,8(sp)
    1224:	086050ef          	jal	ra,62aa <siprintf>
    1228:	4732                	lw	a4,12(sp)
    122a:	46a2                	lw	a3,8(sp)
    122c:	087c                	addi	a5,sp,28
    122e:	0705                	addi	a4,a4,1
    1230:	068d                	addi	a3,a3,3
    1232:	fe8741e3          	blt	a4,s0,1214 <log_buffer_hex+0x50>
    1236:	863e                	mv	a2,a5
    1238:	85ca                	mv	a1,s2
    123a:	0000b517          	auipc	a0,0xb
    123e:	02a50513          	addi	a0,a0,42 # c264 <_sbrk+0x50>
    1242:	03698563          	beq	s3,s6,126c <log_buffer_hex+0xa8>
    1246:	0000b517          	auipc	a0,0xb
    124a:	02a50513          	addi	a0,a0,42 # c270 <_sbrk+0x5c>
    124e:	01898f63          	beq	s3,s8,126c <log_buffer_hex+0xa8>
    1252:	0000b517          	auipc	a0,0xb
    1256:	02a50513          	addi	a0,a0,42 # c27c <_sbrk+0x68>
    125a:	01998963          	beq	s3,s9,126c <log_buffer_hex+0xa8>
    125e:	0000b517          	auipc	a0,0xb
    1262:	02a50513          	addi	a0,a0,42 # c288 <_sbrk+0x74>
    1266:	01a98363          	beq	s3,s10,126c <log_buffer_hex+0xa8>
    126a:	856e                	mv	a0,s11
    126c:	8c81                	sub	s1,s1,s0
    126e:	04c2                	slli	s1,s1,0x10
    1270:	80c1                	srli	s1,s1,0x10
    1272:	6d3040ef          	jal	ra,6144 <iprintf>
    1276:	9a22                	add	s4,s4,s0
    1278:	f4d1                	bnez	s1,1204 <log_buffer_hex+0x40>
    127a:	40ba                	lw	ra,140(sp)
    127c:	442a                	lw	s0,136(sp)
    127e:	449a                	lw	s1,132(sp)
    1280:	490a                	lw	s2,128(sp)
    1282:	59f6                	lw	s3,124(sp)
    1284:	5a66                	lw	s4,120(sp)
    1286:	5ad6                	lw	s5,116(sp)
    1288:	5b46                	lw	s6,112(sp)
    128a:	5bb6                	lw	s7,108(sp)
    128c:	5c26                	lw	s8,104(sp)
    128e:	5c96                	lw	s9,100(sp)
    1290:	5d06                	lw	s10,96(sp)
    1292:	4df6                	lw	s11,92(sp)
    1294:	6149                	addi	sp,sp,144
    1296:	8082                	ret
    1298:	8082                	ret

0000129a <modbus_coil_callback>:
    129a:	41d8                	lw	a4,4(a1)
    129c:	4689                	li	a3,2
    129e:	00d70b63          	beq	a4,a3,12b4 <modbus_coil_callback+0x1a>
    12a2:	4795                	li	a5,5
    12a4:	00d76663          	bltu	a4,a3,12b0 <modbus_coil_callback+0x16>
    12a8:	478d                	li	a5,3
    12aa:	00f70863          	beq	a4,a5,12ba <modbus_coil_callback+0x20>
    12ae:	4781                	li	a5,0
    12b0:	853e                	mv	a0,a5
    12b2:	8082                	ret
    12b4:	00061223          	sh	zero,4(a2)
    12b8:	bfdd                	j	12ae <modbus_coil_callback+0x14>
    12ba:	4198                	lw	a4,0(a1)
    12bc:	4791                	li	a5,4
    12be:	fef718e3          	bne	a4,a5,12ae <modbus_coil_callback+0x14>
    12c2:	d575                	beqz	a0,12ae <modbus_coil_callback+0x14>
    12c4:	457c                	lw	a5,76(a0)
    12c6:	1141                	addi	sp,sp,-16
    12c8:	c422                	sw	s0,8(sp)
    12ca:	c226                	sw	s1,4(sp)
    12cc:	c606                	sw	ra,12(sp)
    12ce:	842e                	mv	s0,a1
    12d0:	84aa                	mv	s1,a0
    12d2:	c799                	beqz	a5,12e0 <modbus_coil_callback+0x46>
    12d4:	00a5d583          	lhu	a1,10(a1)
    12d8:	00845503          	lhu	a0,8(s0)
    12dc:	9782                	jalr	a5
    12de:	e901                	bnez	a0,12ee <modbus_coil_callback+0x54>
    12e0:	48bc                	lw	a5,80(s1)
    12e2:	c791                	beqz	a5,12ee <modbus_coil_callback+0x54>
    12e4:	00a45583          	lhu	a1,10(s0)
    12e8:	00845503          	lhu	a0,8(s0)
    12ec:	9782                	jalr	a5
    12ee:	40b2                	lw	ra,12(sp)
    12f0:	4422                	lw	s0,8(sp)
    12f2:	4781                	li	a5,0
    12f4:	4492                	lw	s1,4(sp)
    12f6:	853e                	mv	a0,a5
    12f8:	0141                	addi	sp,sp,16
    12fa:	8082                	ret

000012fc <modbus_di_callback>:
    12fc:	41dc                	lw	a5,4(a1)
    12fe:	c791                	beqz	a5,130a <modbus_di_callback+0xe>
    1300:	4709                	li	a4,2
    1302:	02e78663          	beq	a5,a4,132e <modbus_di_callback+0x32>
    1306:	450d                	li	a0,3
    1308:	8082                	ret
    130a:	0085d703          	lhu	a4,8(a1)
    130e:	20000697          	auipc	a3,0x20000
    1312:	dda6d683          	lhu	a3,-550(a3) # 200010e8 <mb_di_list>
    1316:	4515                	li	a0,5
    1318:	00d76a63          	bltu	a4,a3,132c <modbus_di_callback+0x30>
    131c:	20000797          	auipc	a5,0x20000
    1320:	dce7d783          	lhu	a5,-562(a5) # 200010ea <mb_di_list+0x2>
    1324:	97b6                	add	a5,a5,a3
    1326:	00f75363          	bge	a4,a5,132c <modbus_di_callback+0x30>
    132a:	4501                	li	a0,0
    132c:	8082                	ret
    132e:	0085d783          	lhu	a5,8(a1)
    1332:	20000697          	auipc	a3,0x20000
    1336:	db66d683          	lhu	a3,-586(a3) # 200010e8 <mb_di_list>
    133a:	4701                	li	a4,0
    133c:	02d7eb63          	bltu	a5,a3,1372 <modbus_di_callback+0x76>
    1340:	20000597          	auipc	a1,0x20000
    1344:	daa5d583          	lhu	a1,-598(a1) # 200010ea <mb_di_list+0x2>
    1348:	95b6                	add	a1,a1,a3
    134a:	02b7d463          	bge	a5,a1,1372 <modbus_di_callback+0x76>
    134e:	8f95                	sub	a5,a5,a3
    1350:	20000717          	auipc	a4,0x20000
    1354:	d9870713          	addi	a4,a4,-616 # 200010e8 <mb_di_list>
    1358:	07c2                	slli	a5,a5,0x10
    135a:	4358                	lw	a4,4(a4)
    135c:	83c1                	srli	a5,a5,0x10
    135e:	0037d693          	srli	a3,a5,0x3
    1362:	9736                	add	a4,a4,a3
    1364:	00074703          	lbu	a4,0(a4)
    1368:	8b9d                	andi	a5,a5,7
    136a:	40f757b3          	sra	a5,a4,a5
    136e:	0017f713          	andi	a4,a5,1
    1372:	00e61223          	sh	a4,4(a2)
    1376:	bf55                	j	132a <modbus_di_callback+0x2e>

00001378 <modbus_ireg_callback>:
    1378:	41dc                	lw	a5,4(a1)
    137a:	00062023          	sw	zero,0(a2)
    137e:	c791                	beqz	a5,138a <modbus_ireg_callback+0x12>
    1380:	4709                	li	a4,2
    1382:	00e78b63          	beq	a5,a4,1398 <modbus_ireg_callback+0x20>
    1386:	4515                	li	a0,5
    1388:	8082                	ret
    138a:	0085d703          	lhu	a4,8(a1)
    138e:	4785                	li	a5,1
    1390:	4501                	li	a0,0
    1392:	fee7eae3          	bltu	a5,a4,1386 <modbus_ireg_callback+0xe>
    1396:	8082                	ret
    1398:	0085d783          	lhu	a5,8(a1)
    139c:	4685                	li	a3,1
    139e:	4701                	li	a4,0
    13a0:	00f6e863          	bltu	a3,a5,13b0 <modbus_ireg_callback+0x38>
    13a4:	81418713          	addi	a4,gp,-2028 # 200010fc <mb_iregs>
    13a8:	0786                	slli	a5,a5,0x1
    13aa:	97ba                	add	a5,a5,a4
    13ac:	0007d703          	lhu	a4,0(a5)
    13b0:	00e61223          	sh	a4,4(a2)
    13b4:	4501                	li	a0,0
    13b6:	b7c5                	j	1396 <modbus_ireg_callback+0x1e>

000013b8 <modbus_reg_update>:
    13b8:	0000b717          	auipc	a4,0xb
    13bc:	ee870713          	addi	a4,a4,-280 # c2a0 <mb_reg_segs>
    13c0:	0000b617          	auipc	a2,0xb
    13c4:	f1060613          	addi	a2,a2,-240 # c2d0 <mb_reg_segs+0x30>
    13c8:	00475783          	lhu	a5,4(a4)
    13cc:	00f56e63          	bltu	a0,a5,13e8 <modbus_reg_update+0x30>
    13d0:	00675683          	lhu	a3,6(a4)
    13d4:	96be                	add	a3,a3,a5
    13d6:	00d57963          	bgeu	a0,a3,13e8 <modbus_reg_update+0x30>
    13da:	4714                	lw	a3,8(a4)
    13dc:	40f507b3          	sub	a5,a0,a5
    13e0:	0786                	slli	a5,a5,0x1
    13e2:	97b6                	add	a5,a5,a3
    13e4:	00b79023          	sh	a1,0(a5)
    13e8:	0731                	addi	a4,a4,12
    13ea:	fcc71fe3          	bne	a4,a2,13c8 <modbus_reg_update+0x10>
    13ee:	8082                	ret

000013f0 <modbus_reg_get>:
    13f0:	0000b717          	auipc	a4,0xb
    13f4:	eb070713          	addi	a4,a4,-336 # c2a0 <mb_reg_segs>
    13f8:	4781                	li	a5,0
    13fa:	86ba                	mv	a3,a4
    13fc:	4811                	li	a6,4
    13fe:	00475603          	lhu	a2,4(a4)
    1402:	02c56263          	bltu	a0,a2,1426 <modbus_reg_get+0x36>
    1406:	00675583          	lhu	a1,6(a4)
    140a:	95b2                	add	a1,a1,a2
    140c:	00b57d63          	bgeu	a0,a1,1426 <modbus_reg_get+0x36>
    1410:	4731                	li	a4,12
    1412:	02e787b3          	mul	a5,a5,a4
    1416:	8d11                	sub	a0,a0,a2
    1418:	0506                	slli	a0,a0,0x1
    141a:	97b6                	add	a5,a5,a3
    141c:	479c                	lw	a5,8(a5)
    141e:	953e                	add	a0,a0,a5
    1420:	00055503          	lhu	a0,0(a0)
    1424:	8082                	ret
    1426:	0785                	addi	a5,a5,1
    1428:	0731                	addi	a4,a4,12
    142a:	fd079ae3          	bne	a5,a6,13fe <modbus_reg_get+0xe>
    142e:	4501                	li	a0,0
    1430:	8082                	ret

00001432 <modbus_reg_callback>:
    1432:	41d8                	lw	a4,4(a1)
    1434:	00062023          	sw	zero,0(a2)
    1438:	4685                	li	a3,1
    143a:	08d70063          	beq	a4,a3,14ba <modbus_reg_callback+0x88>
    143e:	c71d                	beqz	a4,146c <modbus_reg_callback+0x3a>
    1440:	1141                	addi	sp,sp,-16
    1442:	c422                	sw	s0,8(sp)
    1444:	c226                	sw	s1,4(sp)
    1446:	c04a                	sw	s2,0(sp)
    1448:	c606                	sw	ra,12(sp)
    144a:	4789                	li	a5,2
    144c:	8932                	mv	s2,a2
    144e:	842e                	mv	s0,a1
    1450:	84aa                	mv	s1,a0
    1452:	04f70a63          	beq	a4,a5,14a6 <modbus_reg_callback+0x74>
    1456:	478d                	li	a5,3
    1458:	0af70e63          	beq	a4,a5,1514 <modbus_reg_callback+0xe2>
    145c:	4781                	li	a5,0
    145e:	40b2                	lw	ra,12(sp)
    1460:	4422                	lw	s0,8(sp)
    1462:	4492                	lw	s1,4(sp)
    1464:	4902                	lw	s2,0(sp)
    1466:	853e                	mv	a0,a5
    1468:	0141                	addi	sp,sp,16
    146a:	8082                	ret
    146c:	4198                	lw	a4,0(a1)
    146e:	478d                	li	a5,3
    1470:	02d71963          	bne	a4,a3,14a2 <modbus_reg_callback+0x70>
    1474:	0085d683          	lhu	a3,8(a1)
    1478:	0000b797          	auipc	a5,0xb
    147c:	e2878793          	addi	a5,a5,-472 # c2a0 <mb_reg_segs>
    1480:	0000b597          	auipc	a1,0xb
    1484:	e5058593          	addi	a1,a1,-432 # c2d0 <mb_reg_segs+0x30>
    1488:	0047d603          	lhu	a2,4(a5)
    148c:	00c6e763          	bltu	a3,a2,149a <modbus_reg_callback+0x68>
    1490:	0067d703          	lhu	a4,6(a5)
    1494:	9732                	add	a4,a4,a2
    1496:	06e6c863          	blt	a3,a4,1506 <modbus_reg_callback+0xd4>
    149a:	07b1                	addi	a5,a5,12
    149c:	fef596e3          	bne	a1,a5,1488 <modbus_reg_callback+0x56>
    14a0:	4795                	li	a5,5
    14a2:	853e                	mv	a0,a5
    14a4:	8082                	ret
    14a6:	4198                	lw	a4,0(a1)
    14a8:	478d                	li	a5,3
    14aa:	fad71ae3          	bne	a4,a3,145e <modbus_reg_callback+0x2c>
    14ae:	0085d503          	lhu	a0,8(a1)
    14b2:	3f3d                	jal	13f0 <modbus_reg_get>
    14b4:	00a91223          	sh	a0,4(s2)
    14b8:	b755                	j	145c <modbus_reg_callback+0x2a>
    14ba:	4194                	lw	a3,0(a1)
    14bc:	478d                	li	a5,3
    14be:	fee692e3          	bne	a3,a4,14a2 <modbus_reg_callback+0x70>
    14c2:	0085d583          	lhu	a1,8(a1)
    14c6:	0000b717          	auipc	a4,0xb
    14ca:	dda70713          	addi	a4,a4,-550 # c2a0 <mb_reg_segs>
    14ce:	4781                	li	a5,0
    14d0:	86ba                	mv	a3,a4
    14d2:	4891                	li	a7,4
    14d4:	00475803          	lhu	a6,4(a4)
    14d8:	0305e963          	bltu	a1,a6,150a <modbus_reg_callback+0xd8>
    14dc:	00675603          	lhu	a2,6(a4)
    14e0:	9642                	add	a2,a2,a6
    14e2:	02c5d463          	bge	a1,a2,150a <modbus_reg_callback+0xd8>
    14e6:	4731                	li	a4,12
    14e8:	02e787b3          	mul	a5,a5,a4
    14ec:	97b6                	add	a5,a5,a3
    14ee:	4398                	lw	a4,0(a5)
    14f0:	4685                	li	a3,1
    14f2:	4781                	li	a5,0
    14f4:	fad707e3          	beq	a4,a3,14a2 <modbus_reg_callback+0x70>
    14f8:	4689                	li	a3,2
    14fa:	4795                	li	a5,5
    14fc:	fad713e3          	bne	a4,a3,14a2 <modbus_reg_callback+0x70>
    1500:	03154703          	lbu	a4,49(a0)
    1504:	df59                	beqz	a4,14a2 <modbus_reg_callback+0x70>
    1506:	4781                	li	a5,0
    1508:	bf69                	j	14a2 <modbus_reg_callback+0x70>
    150a:	0785                	addi	a5,a5,1
    150c:	0731                	addi	a4,a4,12
    150e:	fd1793e3          	bne	a5,a7,14d4 <modbus_reg_callback+0xa2>
    1512:	b779                	j	14a0 <modbus_reg_callback+0x6e>
    1514:	4198                	lw	a4,0(a1)
    1516:	478d                	li	a5,3
    1518:	f4d713e3          	bne	a4,a3,145e <modbus_reg_callback+0x2c>
    151c:	e939                	bnez	a0,1572 <modbus_reg_callback+0x140>
    151e:	00845683          	lhu	a3,8(s0)
    1522:	00a45503          	lhu	a0,10(s0)
    1526:	0000b717          	auipc	a4,0xb
    152a:	d7a70713          	addi	a4,a4,-646 # c2a0 <mb_reg_segs>
    152e:	0000b597          	auipc	a1,0xb
    1532:	da258593          	addi	a1,a1,-606 # c2d0 <mb_reg_segs+0x30>
    1536:	00475783          	lhu	a5,4(a4)
    153a:	00f6ee63          	bltu	a3,a5,1556 <modbus_reg_callback+0x124>
    153e:	00675603          	lhu	a2,6(a4)
    1542:	963e                	add	a2,a2,a5
    1544:	00c6f963          	bgeu	a3,a2,1556 <modbus_reg_callback+0x124>
    1548:	4710                	lw	a2,8(a4)
    154a:	40f687b3          	sub	a5,a3,a5
    154e:	0786                	slli	a5,a5,0x1
    1550:	97b2                	add	a5,a5,a2
    1552:	00a79023          	sh	a0,0(a5)
    1556:	0731                	addi	a4,a4,12
    1558:	fce59fe3          	bne	a1,a4,1536 <modbus_reg_callback+0x104>
    155c:	f00480e3          	beqz	s1,145c <modbus_reg_callback+0x2a>
    1560:	44bc                	lw	a5,72(s1)
    1562:	ee078de3          	beqz	a5,145c <modbus_reg_callback+0x2a>
    1566:	00a45583          	lhu	a1,10(s0)
    156a:	00845503          	lhu	a0,8(s0)
    156e:	9782                	jalr	a5
    1570:	b5f5                	j	145c <modbus_reg_callback+0x2a>
    1572:	417c                	lw	a5,68(a0)
    1574:	d7cd                	beqz	a5,151e <modbus_reg_callback+0xec>
    1576:	00a5d583          	lhu	a1,10(a1)
    157a:	00845503          	lhu	a0,8(s0)
    157e:	9782                	jalr	a5
    1580:	ec051ee3          	bnez	a0,145c <modbus_reg_callback+0x2a>
    1584:	bf69                	j	151e <modbus_reg_callback+0xec>

00001586 <modbus_reg_update_uid>:
    1586:	473d                	li	a4,15
    1588:	85c18793          	addi	a5,gp,-1956 # 20001144 <mb_ro_regs+0x8>
    158c:	00b76463          	bltu	a4,a1,1594 <modbus_reg_update_uid+0xe>
    1590:	8f8d                	sub	a5,a5,a1
    1592:	07c1                	addi	a5,a5,16
    1594:	4741                	li	a4,16
    1596:	862e                	mv	a2,a1
    1598:	00b77363          	bgeu	a4,a1,159e <modbus_reg_update_uid+0x18>
    159c:	4641                	li	a2,16
    159e:	0642                	slli	a2,a2,0x10
    15a0:	85aa                	mv	a1,a0
    15a2:	8241                	srli	a2,a2,0x10
    15a4:	853e                	mv	a0,a5
    15a6:	2fb0306f          	j	50a0 <memcpy>

000015aa <modbus_regs_init>:
    15aa:	1141                	addi	sp,sp,-16
    15ac:	c422                	sw	s0,8(sp)
    15ae:	c226                	sw	s1,4(sp)
    15b0:	c606                	sw	ra,12(sp)
    15b2:	0000b417          	auipc	s0,0xb
    15b6:	cee40413          	addi	s0,s0,-786 # c2a0 <mb_reg_segs>
    15ba:	0000b497          	auipc	s1,0xb
    15be:	d1648493          	addi	s1,s1,-746 # c2d0 <mb_reg_segs+0x30>
    15c2:	00645603          	lhu	a2,6(s0)
    15c6:	4408                	lw	a0,8(s0)
    15c8:	4581                	li	a1,0
    15ca:	0606                	slli	a2,a2,0x1
    15cc:	0431                	addi	s0,s0,12
    15ce:	decff0ef          	jal	ra,bba <memset>
    15d2:	fe9418e3          	bne	s0,s1,15c2 <modbus_regs_init+0x18>
    15d6:	40b2                	lw	ra,12(sp)
    15d8:	4422                	lw	s0,8(sp)
    15da:	4492                	lw	s1,4(sp)
    15dc:	0141                	addi	sp,sp,16
    15de:	8082                	ret

000015e0 <bitacc>:
    15e0:	47a1                	li	a5,8
    15e2:	02f66733          	rem	a4,a2,a5
    15e6:	02f64633          	div	a2,a2,a5
    15ea:	96b2                	add	a3,a3,a2
    15ec:	0006c783          	lbu	a5,0(a3)
    15f0:	e115                	bnez	a0,1614 <bitacc+0x34>
    15f2:	4505                	li	a0,1
    15f4:	00e51533          	sll	a0,a0,a4
    15f8:	07e2                	slli	a5,a5,0x18
    15fa:	0562                	slli	a0,a0,0x18
    15fc:	87e1                	srai	a5,a5,0x18
    15fe:	8561                	srai	a0,a0,0x18
    1600:	c591                	beqz	a1,160c <bitacc+0x2c>
    1602:	8fc9                	or	a5,a5,a0
    1604:	00f68023          	sb	a5,0(a3)
    1608:	4505                	li	a0,1
    160a:	8082                	ret
    160c:	fff54513          	not	a0,a0
    1610:	8fe9                	and	a5,a5,a0
    1612:	bfcd                	j	1604 <bitacc+0x24>
    1614:	40e7d533          	sra	a0,a5,a4
    1618:	8905                	andi	a0,a0,1
    161a:	8082                	ret

0000161c <find_device>:
    161c:	7179                	addi	sp,sp,-48
    161e:	0000b517          	auipc	a0,0xb
    1622:	cb250513          	addi	a0,a0,-846 # c2d0 <mb_reg_segs+0x30>
    1626:	d606                	sw	ra,44(sp)
    1628:	d226                	sw	s1,36(sp)
    162a:	d04a                	sw	s2,32(sp)
    162c:	ce4e                	sw	s3,28(sp)
    162e:	cc52                	sw	s4,24(sp)
    1630:	d422                	sw	s0,40(sp)
    1632:	439040ef          	jal	ra,626a <puts>
    1636:	2b71                	jal	1bd2 <OWFirst>
    1638:	4481                	li	s1,0
    163a:	0000b917          	auipc	s2,0xb
    163e:	ca290913          	addi	s2,s2,-862 # c2dc <mb_reg_segs+0x3c>
    1642:	59fd                	li	s3,-1
    1644:	0000ba17          	auipc	s4,0xb
    1648:	ca0a0a13          	addi	s4,s4,-864 # c2e4 <mb_reg_segs+0x44>
    164c:	e909                	bnez	a0,165e <find_device+0x42>
    164e:	50b2                	lw	ra,44(sp)
    1650:	5422                	lw	s0,40(sp)
    1652:	5492                	lw	s1,36(sp)
    1654:	5902                	lw	s2,32(sp)
    1656:	49f2                	lw	s3,28(sp)
    1658:	4a62                	lw	s4,24(sp)
    165a:	6145                	addi	sp,sp,48
    165c:	8082                	ret
    165e:	441d                	li	s0,7
    1660:	003c                	addi	a5,sp,8
    1662:	97a2                	add	a5,a5,s0
    1664:	0007c583          	lbu	a1,0(a5)
    1668:	854a                	mv	a0,s2
    166a:	147d                	addi	s0,s0,-1
    166c:	2d9040ef          	jal	ra,6144 <iprintf>
    1670:	ff3418e3          	bne	s0,s3,1660 <find_device+0x44>
    1674:	0485                	addi	s1,s1,1
    1676:	85a6                	mv	a1,s1
    1678:	8552                	mv	a0,s4
    167a:	2cb040ef          	jal	ra,6144 <iprintf>
    167e:	238d                	jal	1be0 <OWNext>
    1680:	b7f1                	j	164c <find_device+0x30>

00001682 <docrc8>:
    1682:	64c18713          	addi	a4,gp,1612 # 20001f34 <crc8>
    1686:	00074783          	lbu	a5,0(a4)
    168a:	8d3d                	xor	a0,a0,a5
    168c:	0000b797          	auipc	a5,0xb
    1690:	cf478793          	addi	a5,a5,-780 # c380 <dscrc_table>
    1694:	97aa                	add	a5,a5,a0
    1696:	0007c503          	lbu	a0,0(a5)
    169a:	00a70023          	sb	a0,0(a4)
    169e:	8082                	ret

000016a0 <DS2480B_Detect>:
    16a0:	4789                	li	a5,2
    16a2:	64f1ae23          	sw	a5,1628(gp) # 20001f44 <UMode>
    16a6:	6401a023          	sw	zero,1600(gp) # 20001f28 <UBaud>
    16aa:	7179                	addi	sp,sp,-48
    16ac:	4791                	li	a5,4
    16ae:	0000b597          	auipc	a1,0xb
    16b2:	cc258593          	addi	a1,a1,-830 # c370 <__FUNCTION__.4273>
    16b6:	0000b517          	auipc	a0,0xb
    16ba:	c4250513          	addi	a0,a0,-958 # c2f8 <mb_reg_segs+0x58>
    16be:	d606                	sw	ra,44(sp)
    16c0:	64f1a823          	sw	a5,1616(gp) # 20001f38 <USpeed>
    16c4:	d226                	sw	s1,36(sp)
    16c6:	d422                	sw	s0,40(sp)
    16c8:	c402                	sw	zero,8(sp)
    16ca:	c602                	sw	zero,12(sp)
    16cc:	00011823          	sh	zero,16(sp)
    16d0:	ca02                	sw	zero,20(sp)
    16d2:	cc02                	sw	zero,24(sp)
    16d4:	00011e23          	sh	zero,28(sp)
    16d8:	64018493          	addi	s1,gp,1600 # 20001f28 <UBaud>
    16dc:	269040ef          	jal	ra,6144 <iprintf>
    16e0:	4088                	lw	a0,0(s1)
    16e2:	2385                	jal	1c42 <change_baud_rate>
    16e4:	29fd                	jal	1be2 <uart_send_break>
    16e6:	4509                	li	a0,2
    16e8:	1ffff097          	auipc	ra,0x1ffff
    16ec:	f54080e7          	jalr	-172(ra) # 2000063c <mDelaymS>
    16f0:	fc100793          	li	a5,-63
    16f4:	4585                	li	a1,1
    16f6:	0028                	addi	a0,sp,8
    16f8:	00f10423          	sb	a5,8(sp)
    16fc:	2b29                	jal	1c16 <uart_write>
    16fe:	4785                	li	a5,1
    1700:	04f51063          	bne	a0,a5,1740 <DS2480B_Detect+0xa0>
    1704:	842a                	mv	s0,a0
    1706:	4509                	li	a0,2
    1708:	1ffff097          	auipc	ra,0x1ffff
    170c:	f34080e7          	jalr	-204(ra) # 2000063c <mDelaymS>
    1710:	0f5b47b7          	lui	a5,0xf5b4
    1714:	51778793          	addi	a5,a5,1303 # f5b4517 <_data_lma+0xf5a6e07>
    1718:	c43e                	sw	a5,8(sp)
    171a:	409c                	lw	a5,0(s1)
    171c:	4595                	li	a1,5
    171e:	0028                	addi	a0,sp,8
    1720:	f917e793          	ori	a5,a5,-111
    1724:	00f10623          	sb	a5,12(sp)
    1728:	21fd                	jal	1c16 <uart_write>
    172a:	ed09                	bnez	a0,1744 <DS2480B_Detect+0xa4>
    172c:	0000b597          	auipc	a1,0xb
    1730:	c4458593          	addi	a1,a1,-956 # c370 <__FUNCTION__.4273>
    1734:	0000b517          	auipc	a0,0xb
    1738:	bd850513          	addi	a0,a0,-1064 # c30c <mb_reg_segs+0x6c>
    173c:	209040ef          	jal	ra,6144 <iprintf>
    1740:	4401                	li	s0,0
    1742:	a83d                	j	1780 <DS2480B_Detect+0xe0>
    1744:	06400693          	li	a3,100
    1748:	4615                	li	a2,5
    174a:	084c                	addi	a1,sp,20
    174c:	4501                	li	a0,0
    174e:	1e8030ef          	jal	ra,4936 <uart_read>
    1752:	4795                	li	a5,5
    1754:	fcf51ce3          	bne	a0,a5,172c <DS2480B_Detect+0x8c>
    1758:	01714783          	lbu	a5,23(sp)
    175c:	0f17f713          	andi	a4,a5,241
    1760:	f771                	bnez	a4,172c <DS2480B_Detect+0x8c>
    1762:	4098                	lw	a4,0(s1)
    1764:	8bb9                	andi	a5,a5,14
    1766:	fce793e3          	bne	a5,a4,172c <DS2480B_Detect+0x8c>
    176a:	01814703          	lbu	a4,24(sp)
    176e:	09000693          	li	a3,144
    1772:	0f077613          	andi	a2,a4,240
    1776:	fad61be3          	bne	a2,a3,172c <DS2480B_Detect+0x8c>
    177a:	8b31                	andi	a4,a4,12
    177c:	fae798e3          	bne	a5,a4,172c <DS2480B_Detect+0x8c>
    1780:	8522                	mv	a0,s0
    1782:	50b2                	lw	ra,44(sp)
    1784:	5422                	lw	s0,40(sp)
    1786:	5492                	lw	s1,36(sp)
    1788:	6145                	addi	sp,sp,48
    178a:	8082                	ret

0000178c <OWLevel>:
    178c:	7179                	addi	sp,sp,-48
    178e:	d226                	sw	s1,36(sp)
    1790:	66418493          	addi	s1,gp,1636 # 20001f4c <ULevel>
    1794:	409c                	lw	a5,0(s1)
    1796:	d606                	sw	ra,44(sp)
    1798:	d422                	sw	s0,40(sp)
    179a:	08a78163          	beq	a5,a0,181c <OWLevel+0x90>
    179e:	65c18793          	addi	a5,gp,1628 # 20001f44 <UMode>
    17a2:	4394                	lw	a3,0(a5)
    17a4:	4789                	li	a5,2
    17a6:	4701                	li	a4,0
    17a8:	00f68863          	beq	a3,a5,17b8 <OWLevel+0x2c>
    17ac:	64f1ae23          	sw	a5,1628(gp) # 20001f44 <UMode>
    17b0:	578d                	li	a5,-29
    17b2:	00f10423          	sb	a5,8(sp)
    17b6:	4705                	li	a4,1
    17b8:	00170793          	addi	a5,a4,1
    17bc:	1014                	addi	a3,sp,32
    17be:	1010                	addi	a2,sp,32
    17c0:	842a                	mv	s0,a0
    17c2:	00270593          	addi	a1,a4,2
    17c6:	96ba                	add	a3,a3,a4
    17c8:	97b2                	add	a5,a5,a2
    17ca:	ed39                	bnez	a0,1828 <OWLevel+0x9c>
    17cc:	5645                	li	a2,-15
    17ce:	fec68423          	sb	a2,-24(a3)
    17d2:	56b5                	li	a3,-19
    17d4:	fed78423          	sb	a3,-24(a5)
    17d8:	101c                	addi	a5,sp,32
    17da:	95be                	add	a1,a1,a5
    17dc:	fec58423          	sb	a2,-24(a1)
    17e0:	0028                	addi	a0,sp,8
    17e2:	00370593          	addi	a1,a4,3
    17e6:	2905                	jal	1c16 <uart_write>
    17e8:	c93d                	beqz	a0,185e <OWLevel+0xd2>
    17ea:	4685                	li	a3,1
    17ec:	4609                	li	a2,2
    17ee:	084c                	addi	a1,sp,20
    17f0:	4501                	li	a0,0
    17f2:	144030ef          	jal	ra,4936 <uart_read>
    17f6:	4789                	li	a5,2
    17f8:	06f51363          	bne	a0,a5,185e <OWLevel+0xd2>
    17fc:	01414783          	lbu	a5,20(sp)
    1800:	0e000713          	li	a4,224
    1804:	0e07f793          	andi	a5,a5,224
    1808:	04e79b63          	bne	a5,a4,185e <OWLevel+0xd2>
    180c:	01514703          	lbu	a4,21(sp)
    1810:	0e077713          	andi	a4,a4,224
    1814:	04f71563          	bne	a4,a5,185e <OWLevel+0xd2>
    1818:	6601a223          	sw	zero,1636(gp) # 20001f4c <ULevel>
    181c:	50b2                	lw	ra,44(sp)
    181e:	5422                	lw	s0,40(sp)
    1820:	4088                	lw	a0,0(s1)
    1822:	5492                	lw	s1,36(sp)
    1824:	6145                	addi	sp,sp,48
    1826:	8082                	ret
    1828:	03f00713          	li	a4,63
    182c:	fee68423          	sb	a4,-24(a3)
    1830:	0028                	addi	a0,sp,8
    1832:	5735                	li	a4,-19
    1834:	fee78423          	sb	a4,-24(a5)
    1838:	2ef9                	jal	1c16 <uart_write>
    183a:	c115                	beqz	a0,185e <OWLevel+0xd2>
    183c:	4685                	li	a3,1
    183e:	4605                	li	a2,1
    1840:	084c                	addi	a1,sp,20
    1842:	4501                	li	a0,0
    1844:	0f2030ef          	jal	ra,4936 <uart_read>
    1848:	4785                	li	a5,1
    184a:	00f51a63          	bne	a0,a5,185e <OWLevel+0xd2>
    184e:	01414783          	lbu	a5,20(sp)
    1852:	0817f793          	andi	a5,a5,129
    1856:	e781                	bnez	a5,185e <OWLevel+0xd2>
    1858:	6681a223          	sw	s0,1636(gp) # 20001f4c <ULevel>
    185c:	b7c1                	j	181c <OWLevel+0x90>
    185e:	3589                	jal	16a0 <DS2480B_Detect>
    1860:	bf75                	j	181c <OWLevel+0x90>

00001862 <OWReset>:
    1862:	7179                	addi	sp,sp,-48
    1864:	4501                	li	a0,0
    1866:	d606                	sw	ra,44(sp)
    1868:	d422                	sw	s0,40(sp)
    186a:	d226                	sw	s1,36(sp)
    186c:	d04a                	sw	s2,32(sp)
    186e:	c402                	sw	zero,8(sp)
    1870:	c602                	sw	zero,12(sp)
    1872:	00011823          	sh	zero,16(sp)
    1876:	ca02                	sw	zero,20(sp)
    1878:	cc02                	sw	zero,24(sp)
    187a:	00011e23          	sh	zero,28(sp)
    187e:	000103a3          	sb	zero,7(sp)
    1882:	3729                	jal	178c <OWLevel>
    1884:	65c18793          	addi	a5,gp,1628 # 20001f44 <UMode>
    1888:	4398                	lw	a4,0(a5)
    188a:	4789                	li	a5,2
    188c:	02f70363          	beq	a4,a5,18b2 <OWReset+0x50>
    1890:	64f1ae23          	sw	a5,1628(gp) # 20001f44 <UMode>
    1894:	00714783          	lbu	a5,7(sp)
    1898:	0ff7f793          	andi	a5,a5,255
    189c:	00178713          	addi	a4,a5,1
    18a0:	0ff77713          	andi	a4,a4,255
    18a4:	00e103a3          	sb	a4,7(sp)
    18a8:	1018                	addi	a4,sp,32
    18aa:	97ba                	add	a5,a5,a4
    18ac:	570d                	li	a4,-29
    18ae:	fee78a23          	sb	a4,-12(a5)
    18b2:	4791                	li	a5,4
    18b4:	64f1a823          	sw	a5,1616(gp) # 20001f38 <USpeed>
    18b8:	00714783          	lbu	a5,7(sp)
    18bc:	0000b517          	auipc	a0,0xb
    18c0:	a6450513          	addi	a0,a0,-1436 # c320 <mb_reg_segs+0x80>
    18c4:	0ff7f793          	andi	a5,a5,255
    18c8:	00178713          	addi	a4,a5,1
    18cc:	0ff77713          	andi	a4,a4,255
    18d0:	00e103a3          	sb	a4,7(sp)
    18d4:	1018                	addi	a4,sp,32
    18d6:	97ba                	add	a5,a5,a4
    18d8:	fc500713          	li	a4,-59
    18dc:	fee78a23          	sb	a4,-12(a5)
    18e0:	01414583          	lbu	a1,20(sp)
    18e4:	061040ef          	jal	ra,6144 <iprintf>
    18e8:	01514583          	lbu	a1,21(sp)
    18ec:	0000b517          	auipc	a0,0xb
    18f0:	a3450513          	addi	a0,a0,-1484 # c320 <mb_reg_segs+0x80>
    18f4:	051040ef          	jal	ra,6144 <iprintf>
    18f8:	00714603          	lbu	a2,7(sp)
    18fc:	084c                	addi	a1,sp,20
    18fe:	4501                	li	a0,0
    1900:	771020ef          	jal	ra,4870 <uart_send>
    1904:	842a                	mv	s0,a0
    1906:	cd09                	beqz	a0,1920 <OWReset+0xbe>
    1908:	6505                	lui	a0,0x1
    190a:	1ffff097          	auipc	ra,0x1ffff
    190e:	d24080e7          	jalr	-732(ra) # 2000062e <mDelayuS>
    1912:	3379                	jal	16a0 <DS2480B_Detect>
    1914:	50b2                	lw	ra,44(sp)
    1916:	5422                	lw	s0,40(sp)
    1918:	5492                	lw	s1,36(sp)
    191a:	5902                	lw	s2,32(sp)
    191c:	6145                	addi	sp,sp,48
    191e:	8082                	ret
    1920:	46a9                	li	a3,10
    1922:	4629                	li	a2,10
    1924:	002c                	addi	a1,sp,8
    1926:	010030ef          	jal	ra,4936 <uart_read>
    192a:	47a9                	li	a5,10
    192c:	fcf51ee3          	bne	a0,a5,1908 <OWReset+0xa6>
    1930:	0000b917          	auipc	s2,0xb
    1934:	9f890913          	addi	s2,s2,-1544 # c328 <mb_reg_segs+0x88>
    1938:	44a9                	li	s1,10
    193a:	003c                	addi	a5,sp,8
    193c:	97a2                	add	a5,a5,s0
    193e:	0007c583          	lbu	a1,0(a5)
    1942:	854a                	mv	a0,s2
    1944:	0405                	addi	s0,s0,1
    1946:	7fe040ef          	jal	ra,6144 <iprintf>
    194a:	fe9418e3          	bne	s0,s1,193a <OWReset+0xd8>
    194e:	81c18793          	addi	a5,gp,-2020 # 20001104 <ALARM_RESET_COMPLIANCE>
    1952:	439c                	lw	a5,0(a5)
    1954:	cb81                	beqz	a5,1964 <OWReset+0x102>
    1956:	4515                	li	a0,5
    1958:	1ffff097          	auipc	ra,0x1ffff
    195c:	ce4080e7          	jalr	-796(ra) # 2000063c <mDelaymS>
    1960:	4505                	li	a0,1
    1962:	bf4d                	j	1914 <OWReset+0xb2>
    1964:	00814783          	lbu	a5,8(sp)
    1968:	4705                	li	a4,1
    196a:	4505                	li	a0,1
    196c:	8b8d                	andi	a5,a5,3
    196e:	17fd                	addi	a5,a5,-1
    1970:	f8f76ce3          	bltu	a4,a5,1908 <OWReset+0xa6>
    1974:	b745                	j	1914 <OWReset+0xb2>

00001976 <OWSearch>:
    1976:	7119                	addi	sp,sp,-128
    1978:	0000b597          	auipc	a1,0xb
    197c:	9ec58593          	addi	a1,a1,-1556 # c364 <__FUNCTION__.4199>
    1980:	0000b517          	auipc	a0,0xb
    1984:	9bc50513          	addi	a0,a0,-1604 # c33c <mb_reg_segs+0x9c>
    1988:	d4d2                	sw	s4,104(sp)
    198a:	de86                	sw	ra,124(sp)
    198c:	dca2                	sw	s0,120(sp)
    198e:	daa6                	sw	s1,116(sp)
    1990:	d8ca                	sw	s2,112(sp)
    1992:	d6ce                	sw	s3,108(sp)
    1994:	d2d6                	sw	s5,100(sp)
    1996:	d0da                	sw	s6,96(sp)
    1998:	cede                	sw	s7,92(sp)
    199a:	cce2                	sw	s8,88(sp)
    199c:	7a8040ef          	jal	ra,6144 <iprintf>
    19a0:	65818793          	addi	a5,gp,1624 # 20001f40 <LastDeviceFlag>
    19a4:	0007aa03          	lw	s4,0(a5)
    19a8:	020a0563          	beqz	s4,19d2 <OWSearch+0x5c>
    19ac:	6601a023          	sw	zero,1632(gp) # 20001f48 <LastDiscrepancy>
    19b0:	6401ac23          	sw	zero,1624(gp) # 20001f40 <LastDeviceFlag>
    19b4:	6401aa23          	sw	zero,1620(gp) # 20001f3c <LastFamilyDiscrepancy>
    19b8:	4501                	li	a0,0
    19ba:	50f6                	lw	ra,124(sp)
    19bc:	5466                	lw	s0,120(sp)
    19be:	54d6                	lw	s1,116(sp)
    19c0:	5946                	lw	s2,112(sp)
    19c2:	59b6                	lw	s3,108(sp)
    19c4:	5a26                	lw	s4,104(sp)
    19c6:	5a96                	lw	s5,100(sp)
    19c8:	5b06                	lw	s6,96(sp)
    19ca:	4bf6                	lw	s7,92(sp)
    19cc:	4c66                	lw	s8,88(sp)
    19ce:	6109                	addi	sp,sp,128
    19d0:	8082                	ret
    19d2:	3d41                	jal	1862 <OWReset>
    19d4:	e511                	bnez	a0,19e0 <OWSearch+0x6a>
    19d6:	6601a023          	sw	zero,1632(gp) # 20001f48 <LastDiscrepancy>
    19da:	6401aa23          	sw	zero,1620(gp) # 20001f3c <LastFamilyDiscrepancy>
    19de:	bff1                	j	19ba <OWSearch+0x44>
    19e0:	65c18793          	addi	a5,gp,1628 # 20001f44 <UMode>
    19e4:	439c                	lw	a5,0(a5)
    19e6:	4401                	li	s0,0
    19e8:	c789                	beqz	a5,19f2 <OWSearch+0x7c>
    19ea:	5785                	li	a5,-31
    19ec:	02f10423          	sb	a5,40(sp)
    19f0:	4405                	li	s0,1
    19f2:	089c                	addi	a5,sp,80
    19f4:	5741                	li	a4,-16
    19f6:	97a2                	add	a5,a5,s0
    19f8:	fce78c23          	sb	a4,-40(a5)
    19fc:	089c                	addi	a5,sp,80
    19fe:	570d                	li	a4,-29
    1a00:	97a2                	add	a5,a5,s0
    1a02:	65018a93          	addi	s5,gp,1616 # 20001f38 <USpeed>
    1a06:	fce78ca3          	sb	a4,-39(a5)
    1a0a:	000aa703          	lw	a4,0(s5)
    1a0e:	089c                	addi	a5,sp,80
    1a10:	97a2                	add	a5,a5,s0
    1a12:	fb176713          	ori	a4,a4,-79
    1a16:	fce78d23          	sb	a4,-38(a5)
    1a1a:	6401ae23          	sw	zero,1628(gp) # 20001f44 <UMode>
    1a1e:	089c                	addi	a5,sp,80
    1a20:	5705                	li	a4,-31
    1a22:	97a2                	add	a5,a5,s0
    1a24:	00440b13          	addi	s6,s0,4
    1a28:	01440913          	addi	s2,s0,20
    1a2c:	fce78da3          	sb	a4,-37(a5)
    1a30:	0ff97713          	andi	a4,s2,255
    1a34:	87da                	mv	a5,s6
    1a36:	0890                	addi	a2,sp,80
    1a38:	00178693          	addi	a3,a5,1
    1a3c:	97b2                	add	a5,a5,a2
    1a3e:	fc078c23          	sb	zero,-40(a5)
    1a42:	0ff6f793          	andi	a5,a3,255
    1a46:	fee798e3          	bne	a5,a4,1a36 <OWSearch+0xc0>
    1a4a:	66018993          	addi	s3,gp,1632 # 20001f48 <LastDiscrepancy>
    1a4e:	0009a783          	lw	a5,0(s3)
    1a52:	0ff97913          	andi	s2,s2,255
    1a56:	10079363          	bnez	a5,1b5c <OWSearch+0x1e6>
    1a5a:	4789                	li	a5,2
    1a5c:	64f1ae23          	sw	a5,1628(gp) # 20001f44 <UMode>
    1a60:	089c                	addi	a5,sp,80
    1a62:	993e                	add	s2,s2,a5
    1a64:	578d                	li	a5,-29
    1a66:	fcf90c23          	sb	a5,-40(s2)
    1a6a:	089c                	addi	a5,sp,80
    1a6c:	00878733          	add	a4,a5,s0
    1a70:	000aa783          	lw	a5,0(s5)
    1a74:	01640593          	addi	a1,s0,22
    1a78:	1028                	addi	a0,sp,40
    1a7a:	fa17e793          	ori	a5,a5,-95
    1a7e:	fef706a3          	sb	a5,-19(a4)
    1a82:	2a51                	jal	1c16 <uart_write>
    1a84:	c55d                	beqz	a0,1b32 <OWSearch+0x1bc>
    1a86:	4685                	li	a3,1
    1a88:	4645                	li	a2,17
    1a8a:	084c                	addi	a1,sp,20
    1a8c:	4501                	li	a0,0
    1a8e:	6a9020ef          	jal	ra,4936 <uart_read>
    1a92:	47c5                	li	a5,17
    1a94:	08f51f63          	bne	a0,a5,1b32 <OWSearch+0x1bc>
    1a98:	4401                	li	s0,0
    1a9a:	4481                	li	s1,0
    1a9c:	4b9d                	li	s7,7
    1a9e:	04000b13          	li	s6,64
    1aa2:	00141913          	slli	s2,s0,0x1
    1aa6:	00190a93          	addi	s5,s2,1
    1aaa:	01510693          	addi	a3,sp,21
    1aae:	8656                	mv	a2,s5
    1ab0:	4581                	li	a1,0
    1ab2:	4505                	li	a0,1
    1ab4:	3635                	jal	15e0 <bitacc>
    1ab6:	85aa                	mv	a1,a0
    1ab8:	0074                	addi	a3,sp,12
    1aba:	8622                	mv	a2,s0
    1abc:	4501                	li	a0,0
    1abe:	360d                	jal	15e0 <bitacc>
    1ac0:	864a                	mv	a2,s2
    1ac2:	01510693          	addi	a3,sp,21
    1ac6:	4581                	li	a1,0
    1ac8:	4505                	li	a0,1
    1aca:	3e19                	jal	15e0 <bitacc>
    1acc:	00140913          	addi	s2,s0,1
    1ad0:	4785                	li	a5,1
    1ad2:	0ff97c13          	andi	s8,s2,255
    1ad6:	00f51d63          	bne	a0,a5,1af0 <OWSearch+0x17a>
    1ada:	01510693          	addi	a3,sp,21
    1ade:	8656                	mv	a2,s5
    1ae0:	4581                	li	a1,0
    1ae2:	3cfd                	jal	15e0 <bitacc>
    1ae4:	e511                	bnez	a0,1af0 <OWSearch+0x17a>
    1ae6:	84e2                	mv	s1,s8
    1ae8:	008be463          	bltu	s7,s0,1af0 <OWSearch+0x17a>
    1aec:	6521aa23          	sw	s2,1620(gp) # 20001f3c <LastFamilyDiscrepancy>
    1af0:	844a                	mv	s0,s2
    1af2:	fb6918e3          	bne	s2,s6,1aa2 <OWSearch+0x12c>
    1af6:	64018623          	sb	zero,1612(gp) # 20001f34 <crc8>
    1afa:	4401                	li	s0,0
    1afc:	4921                	li	s2,8
    1afe:	007c                	addi	a5,sp,12
    1b00:	97a2                	add	a5,a5,s0
    1b02:	0007c503          	lbu	a0,0(a5)
    1b06:	0405                	addi	s0,s0,1
    1b08:	3ead                	jal	1682 <docrc8>
    1b0a:	ff241ae3          	bne	s0,s2,1afe <OWSearch+0x188>
    1b0e:	64c1c783          	lbu	a5,1612(gp) # 20001f34 <crc8>
    1b12:	eb91                	bnez	a5,1b26 <OWSearch+0x1b0>
    1b14:	0009a703          	lw	a4,0(s3)
    1b18:	03f00793          	li	a5,63
    1b1c:	00f70563          	beq	a4,a5,1b26 <OWSearch+0x1b0>
    1b20:	00c14783          	lbu	a5,12(sp)
    1b24:	e3c1                	bnez	a5,1ba4 <OWSearch+0x22e>
    1b26:	6601a023          	sw	zero,1632(gp) # 20001f48 <LastDiscrepancy>
    1b2a:	6401ac23          	sw	zero,1624(gp) # 20001f40 <LastDeviceFlag>
    1b2e:	6401aa23          	sw	zero,1620(gp) # 20001f3c <LastFamilyDiscrepancy>
    1b32:	36bd                	jal	16a0 <DS2480B_Detect>
    1b34:	e901                	bnez	a0,1b44 <OWSearch+0x1ce>
    1b36:	6601a023          	sw	zero,1632(gp) # 20001f48 <LastDiscrepancy>
    1b3a:	6401ac23          	sw	zero,1624(gp) # 20001f40 <LastDeviceFlag>
    1b3e:	6401aa23          	sw	zero,1620(gp) # 20001f3c <LastFamilyDiscrepancy>
    1b42:	4a01                	li	s4,0
    1b44:	0000b597          	auipc	a1,0xb
    1b48:	82058593          	addi	a1,a1,-2016 # c364 <__FUNCTION__.4199>
    1b4c:	0000b517          	auipc	a0,0xb
    1b50:	80450513          	addi	a0,a0,-2044 # c350 <mb_reg_segs+0xb0>
    1b54:	5f0040ef          	jal	ra,6144 <iprintf>
    1b58:	8552                	mv	a0,s4
    1b5a:	b585                	j	19ba <OWSearch+0x44>
    1b5c:	103c                	addi	a5,sp,40
    1b5e:	4481                	li	s1,0
    1b60:	9b3e                	add	s6,s6,a5
    1b62:	64418c13          	addi	s8,gp,1604 # 20001f2c <ROM_NO>
    1b66:	04000b93          	li	s7,64
    1b6a:	0009a783          	lw	a5,0(s3)
    1b6e:	17fd                	addi	a5,a5,-1
    1b70:	02f4d263          	bge	s1,a5,1b94 <OWSearch+0x21e>
    1b74:	86e2                	mv	a3,s8
    1b76:	8626                	mv	a2,s1
    1b78:	4581                	li	a1,0
    1b7a:	4505                	li	a0,1
    1b7c:	3495                	jal	15e0 <bitacc>
    1b7e:	00149613          	slli	a2,s1,0x1
    1b82:	86da                	mv	a3,s6
    1b84:	0605                	addi	a2,a2,1
    1b86:	85aa                	mv	a1,a0
    1b88:	4501                	li	a0,0
    1b8a:	3c99                	jal	15e0 <bitacc>
    1b8c:	0485                	addi	s1,s1,1
    1b8e:	fd749ee3          	bne	s1,s7,1b6a <OWSearch+0x1f4>
    1b92:	b5e1                	j	1a5a <OWSearch+0xe4>
    1b94:	fef49ce3          	bne	s1,a5,1b8c <OWSearch+0x216>
    1b98:	00149613          	slli	a2,s1,0x1
    1b9c:	86da                	mv	a3,s6
    1b9e:	0605                	addi	a2,a2,1
    1ba0:	4585                	li	a1,1
    1ba2:	b7dd                	j	1b88 <OWSearch+0x212>
    1ba4:	6691a023          	sw	s1,1632(gp) # 20001f48 <LastDiscrepancy>
    1ba8:	e481                	bnez	s1,1bb0 <OWSearch+0x23a>
    1baa:	4785                	li	a5,1
    1bac:	64f1ac23          	sw	a5,1624(gp) # 20001f40 <LastDeviceFlag>
    1bb0:	4781                	li	a5,0
    1bb2:	64418593          	addi	a1,gp,1604 # 20001f2c <ROM_NO>
    1bb6:	4721                	li	a4,8
    1bb8:	0070                	addi	a2,sp,12
    1bba:	963e                	add	a2,a2,a5
    1bbc:	00064603          	lbu	a2,0(a2)
    1bc0:	00b786b3          	add	a3,a5,a1
    1bc4:	0785                	addi	a5,a5,1
    1bc6:	00c68023          	sb	a2,0(a3)
    1bca:	fee797e3          	bne	a5,a4,1bb8 <OWSearch+0x242>
    1bce:	4a05                	li	s4,1
    1bd0:	b78d                	j	1b32 <OWSearch+0x1bc>

00001bd2 <OWFirst>:
    1bd2:	6601a023          	sw	zero,1632(gp) # 20001f48 <LastDiscrepancy>
    1bd6:	6401ac23          	sw	zero,1624(gp) # 20001f40 <LastDeviceFlag>
    1bda:	6401aa23          	sw	zero,1620(gp) # 20001f3c <LastFamilyDiscrepancy>
    1bde:	bb61                	j	1976 <OWSearch>

00001be0 <OWNext>:
    1be0:	bb59                	j	1976 <OWSearch>

00001be2 <uart_send_break>:
    1be2:	1141                	addi	sp,sp,-16
    1be4:	c422                	sw	s0,8(sp)
    1be6:	c606                	sw	ra,12(sp)
    1be8:	40003437          	lui	s0,0x40003
    1bec:	00344783          	lbu	a5,3(s0) # 40003003 <_eusrstack+0x1fffb003>
    1bf0:	4509                	li	a0,2
    1bf2:	0407e793          	ori	a5,a5,64
    1bf6:	00f401a3          	sb	a5,3(s0)
    1bfa:	1ffff097          	auipc	ra,0x1ffff
    1bfe:	a42080e7          	jalr	-1470(ra) # 2000063c <mDelaymS>
    1c02:	00344783          	lbu	a5,3(s0)
    1c06:	0bf7f793          	andi	a5,a5,191
    1c0a:	00f401a3          	sb	a5,3(s0)
    1c0e:	40b2                	lw	ra,12(sp)
    1c10:	4422                	lw	s0,8(sp)
    1c12:	0141                	addi	sp,sp,16
    1c14:	8082                	ret

00001c16 <uart_write>:
    1c16:	05c2                	slli	a1,a1,0x10
    1c18:	1141                	addi	sp,sp,-16
    1c1a:	81c1                	srli	a1,a1,0x10
    1c1c:	c606                	sw	ra,12(sp)
    1c1e:	052030ef          	jal	ra,4c70 <UART0_SendString>
    1c22:	40003737          	lui	a4,0x40003
    1c26:	00b74783          	lbu	a5,11(a4) # 4000300b <_eusrstack+0x1fffb00b>
    1c2a:	0ff7f793          	andi	a5,a5,255
    1c2e:	ffe5                	bnez	a5,1c26 <uart_write+0x10>
    1c30:	00574783          	lbu	a5,5(a4)
    1c34:	0407f793          	andi	a5,a5,64
    1c38:	d7fd                	beqz	a5,1c26 <uart_write+0x10>
    1c3a:	40b2                	lw	ra,12(sp)
    1c3c:	4505                	li	a0,1
    1c3e:	0141                	addi	sp,sp,16
    1c40:	8082                	ret

00001c42 <change_baud_rate>:
    1c42:	1141                	addi	sp,sp,-16
    1c44:	c606                	sw	ra,12(sp)
    1c46:	7fb020ef          	jal	ra,4c40 <UART0_BaudRateCfg>
    1c4a:	40b2                	lw	ra,12(sp)
    1c4c:	4505                	li	a0,1
    1c4e:	0141                	addi	sp,sp,16
    1c50:	8082                	ret

00001c52 <uuid_dump>:
    1c52:	1101                	addi	sp,sp,-32
    1c54:	4681                	li	a3,0
    1c56:	0050                	addi	a2,sp,4
    1c58:	4581                	li	a1,0
    1c5a:	451d                	li	a0,7
    1c5c:	ce06                	sw	ra,28(sp)
    1c5e:	cc22                	sw	s0,24(sp)
    1c60:	ca26                	sw	s1,20(sp)
    1c62:	c84a                	sw	s2,16(sp)
    1c64:	c202                	sw	zero,4(sp)
    1c66:	c402                	sw	zero,8(sp)
    1c68:	00011623          	sh	zero,12(sp)
    1c6c:	1ffff097          	auipc	ra,0x1ffff
    1c70:	ab4080e7          	jalr	-1356(ra) # 20000720 <FLASH_EEPROM_CMD>
    1c74:	0000b517          	auipc	a0,0xb
    1c78:	8c050513          	addi	a0,a0,-1856 # c534 <dscrc_table+0x1b4>
    1c7c:	4c8040ef          	jal	ra,6144 <iprintf>
    1c80:	4401                	li	s0,0
    1c82:	0000b917          	auipc	s2,0xb
    1c86:	8be90913          	addi	s2,s2,-1858 # c540 <dscrc_table+0x1c0>
    1c8a:	44a1                	li	s1,8
    1c8c:	005c                	addi	a5,sp,4
    1c8e:	97a2                	add	a5,a5,s0
    1c90:	0007c583          	lbu	a1,0(a5)
    1c94:	854a                	mv	a0,s2
    1c96:	0405                	addi	s0,s0,1
    1c98:	4ac040ef          	jal	ra,6144 <iprintf>
    1c9c:	fe9418e3          	bne	s0,s1,1c8c <uuid_dump+0x3a>
    1ca0:	0000b517          	auipc	a0,0xb
    1ca4:	8a850513          	addi	a0,a0,-1880 # c548 <dscrc_table+0x1c8>
    1ca8:	5c2040ef          	jal	ra,626a <puts>
    1cac:	40f2                	lw	ra,28(sp)
    1cae:	4462                	lw	s0,24(sp)
    1cb0:	44d2                	lw	s1,20(sp)
    1cb2:	4942                	lw	s2,16(sp)
    1cb4:	4501                	li	a0,0
    1cb6:	6105                	addi	sp,sp,32
    1cb8:	8082                	ret

00001cba <reset_dump>:
    1cba:	1141                	addi	sp,sp,-16
    1cbc:	400017b7          	lui	a5,0x40001
    1cc0:	c606                	sw	ra,12(sp)
    1cc2:	c422                	sw	s0,8(sp)
    1cc4:	0447c403          	lbu	s0,68(a5) # 40001044 <_eusrstack+0x1fff9044>
    1cc8:	0000a517          	auipc	a0,0xa
    1ccc:	7fc50513          	addi	a0,a0,2044 # c4c4 <dscrc_table+0x144>
    1cd0:	474040ef          	jal	ra,6144 <iprintf>
    1cd4:	0ff47413          	andi	s0,s0,255
    1cd8:	00747793          	andi	a5,s0,7
    1cdc:	17fd                	addi	a5,a5,-1
    1cde:	0ff7f793          	andi	a5,a5,255
    1ce2:	4719                	li	a4,6
    1ce4:	0000a517          	auipc	a0,0xa
    1ce8:	7e850513          	addi	a0,a0,2024 # c4cc <dscrc_table+0x14c>
    1cec:	00f76f63          	bltu	a4,a5,1d0a <reset_dump+0x50>
    1cf0:	0000a717          	auipc	a4,0xa
    1cf4:	79070713          	addi	a4,a4,1936 # c480 <dscrc_table+0x100>
    1cf8:	078a                	slli	a5,a5,0x2
    1cfa:	97ba                	add	a5,a5,a4
    1cfc:	439c                	lw	a5,0(a5)
    1cfe:	97ba                	add	a5,a5,a4
    1d00:	8782                	jr	a5
    1d02:	0000a517          	auipc	a0,0xa
    1d06:	7d650513          	addi	a0,a0,2006 # c4d8 <dscrc_table+0x158>
    1d0a:	43a040ef          	jal	ra,6144 <iprintf>
    1d0e:	0000b517          	auipc	a0,0xb
    1d12:	82250513          	addi	a0,a0,-2014 # c530 <dscrc_table+0x1b0>
    1d16:	554040ef          	jal	ra,626a <puts>
    1d1a:	40b2                	lw	ra,12(sp)
    1d1c:	4422                	lw	s0,8(sp)
    1d1e:	4501                	li	a0,0
    1d20:	0141                	addi	sp,sp,16
    1d22:	8082                	ret
    1d24:	0000a517          	auipc	a0,0xa
    1d28:	7bc50513          	addi	a0,a0,1980 # c4e0 <dscrc_table+0x160>
    1d2c:	bff9                	j	1d0a <reset_dump+0x50>
    1d2e:	0000a517          	auipc	a0,0xa
    1d32:	7b650513          	addi	a0,a0,1974 # c4e4 <dscrc_table+0x164>
    1d36:	bfd1                	j	1d0a <reset_dump+0x50>
    1d38:	0000a517          	auipc	a0,0xa
    1d3c:	7bc50513          	addi	a0,a0,1980 # c4f4 <dscrc_table+0x174>
    1d40:	b7e9                	j	1d0a <reset_dump+0x50>
    1d42:	0000a517          	auipc	a0,0xa
    1d46:	7c250513          	addi	a0,a0,1986 # c504 <dscrc_table+0x184>
    1d4a:	b7c1                	j	1d0a <reset_dump+0x50>
    1d4c:	0000a517          	auipc	a0,0xa
    1d50:	7c850513          	addi	a0,a0,1992 # c514 <dscrc_table+0x194>
    1d54:	bf5d                	j	1d0a <reset_dump+0x50>
    1d56:	0000a517          	auipc	a0,0xa
    1d5a:	7ca50513          	addi	a0,a0,1994 # c520 <dscrc_table+0x1a0>
    1d5e:	b775                	j	1d0a <reset_dump+0x50>

00001d60 <main>:
    1d60:	711d                	addi	sp,sp,-96
    1d62:	04800513          	li	a0,72
    1d66:	ce86                	sw	ra,92(sp)
    1d68:	cca2                	sw	s0,88(sp)
    1d6a:	1fffe097          	auipc	ra,0x1fffe
    1d6e:	6f4080e7          	jalr	1780(ra) # 2000045e <SetSysClock>
    1d72:	4a9020ef          	jal	ra,4a1a <worktime_init>
    1d76:	02800613          	li	a2,40
    1d7a:	4581                	li	a1,0
    1d7c:	850a                	mv	a0,sp
    1d7e:	e3dfe0ef          	jal	ra,bba <memset>
    1d82:	67f1                	lui	a5,0x1c
    1d84:	20078793          	addi	a5,a5,512 # 1c200 <_data_lma+0xeaf0>
    1d88:	858a                	mv	a1,sp
    1d8a:	4421                	li	s0,8
    1d8c:	4505                	li	a0,1
    1d8e:	c23e                	sw	a5,4(sp)
    1d90:	00810423          	sb	s0,8(sp)
    1d94:	137020ef          	jal	ra,46ca <uart_init>
    1d98:	370d                	jal	1cba <reset_dump>
    1d9a:	0000a517          	auipc	a0,0xa
    1d9e:	70250513          	addi	a0,a0,1794 # c49c <dscrc_table+0x11c>
    1da2:	4c8040ef          	jal	ra,626a <puts>
    1da6:	3575                	jal	1c52 <uuid_dump>
    1da8:	02800613          	li	a2,40
    1dac:	4581                	li	a1,0
    1dae:	1028                	addi	a0,sp,40
    1db0:	e0bfe0ef          	jal	ra,bba <memset>
    1db4:	6789                	lui	a5,0x2
    1db6:	58078793          	addi	a5,a5,1408 # 2580 <modbusParseRequest0506+0xd2>
    1dba:	102c                	addi	a1,sp,40
    1dbc:	d63e                	sw	a5,44(sp)
    1dbe:	4501                	li	a0,0
    1dc0:	4785                	li	a5,1
    1dc2:	02f10423          	sb	a5,40(sp)
    1dc6:	02810823          	sb	s0,48(sp)
    1dca:	101020ef          	jal	ra,46ca <uart_init>
    1dce:	348010ef          	jal	ra,3116 <OLED_Init>
    1dd2:	4785                	li	a5,1
    1dd4:	1ffff717          	auipc	a4,0x1ffff
    1dd8:	cb870713          	addi	a4,a4,-840 # 20000a8c <_highcode_vma_end>
    1ddc:	04000693          	li	a3,64
    1de0:	04000613          	li	a2,64
    1de4:	4581                	li	a1,0
    1de6:	02000513          	li	a0,32
    1dea:	1e8010ef          	jal	ra,2fd2 <OLED_ShowPicture>
    1dee:	0f6010ef          	jal	ra,2ee4 <OLED_Refresh>
    1df2:	2cf9                	jal	20d0 <display_init>
    1df4:	2add                	jal	1fea <cfg_init>
    1df6:	55e010ef          	jal	ra,3354 <sensor_init>
    1dfa:	3e700413          	li	s0,999
    1dfe:	4501                	li	a0,0
    1e00:	4581                	li	a1,0
    1e02:	45d020ef          	jal	ra,4a5e <worktime_since>
    1e06:	e199                	bnez	a1,1e0c <main+0xac>
    1e08:	02a47163          	bgeu	s0,a0,1e2a <main+0xca>
    1e0c:	14c010ef          	jal	ra,2f58 <OLED_Clear>
    1e10:	0000a517          	auipc	a0,0xa
    1e14:	69c50513          	addi	a0,a0,1692 # c4ac <dscrc_table+0x12c>
    1e18:	452040ef          	jal	ra,626a <puts>
    1e1c:	0c8010ef          	jal	ra,2ee4 <OLED_Refresh>
    1e20:	ffcff0ef          	jal	ra,161c <find_device>
    1e24:	556010ef          	jal	ra,337a <sensor_run>
    1e28:	bfd5                	j	1e1c <main+0xbc>
    1e2a:	0001                	nop
    1e2c:	bfc9                	j	1dfe <main+0x9e>

00001e2e <appinfo_get>:
    1e2e:	00400513          	li	a0,4
    1e32:	8082                	ret

00001e34 <cfg_save_item>:
    1e34:	7179                	addi	sp,sp,-48
    1e36:	ce4e                	sw	s3,28(sp)
    1e38:	49d1                	li	s3,20
    1e3a:	033509b3          	mul	s3,a0,s3
    1e3e:	d422                	sw	s0,40(sp)
    1e40:	d226                	sw	s1,36(sp)
    1e42:	d04a                	sw	s2,32(sp)
    1e44:	cc52                	sw	s4,24(sp)
    1e46:	ca56                	sw	s5,20(sp)
    1e48:	c85a                	sw	s6,16(sp)
    1e4a:	c65e                	sw	s7,12(sp)
    1e4c:	d606                	sw	ra,44(sp)
    1e4e:	1800                	addi	s0,sp,48
    1e50:	1ffff497          	auipc	s1,0x1ffff
    1e54:	e3c48493          	addi	s1,s1,-452 # 20000c8c <cfg_items>
    1e58:	99a6                	add	s3,s3,s1
    1e5a:	0089a903          	lw	s2,8(s3)
    1e5e:	8a2a                	mv	s4,a0
    1e60:	8bae                	mv	s7,a1
    1e62:	00191793          	slli	a5,s2,0x1
    1e66:	07bd                	addi	a5,a5,15
    1e68:	9bc1                	andi	a5,a5,-16
    1e6a:	40f10133          	sub	sp,sp,a5
    1e6e:	00c9a783          	lw	a5,12(s3)
    1e72:	8ab2                	mv	s5,a2
    1e74:	8b0a                	mv	s6,sp
    1e76:	c3b1                	beqz	a5,1eba <cfg_save_item+0x86>
    1e78:	860a                	mv	a2,sp
    1e7a:	85d6                	mv	a1,s5
    1e7c:	855e                	mv	a0,s7
    1e7e:	9782                	jalr	a5
    1e80:	04055a63          	bgez	a0,1ed4 <cfg_save_item+0xa0>
    1e84:	0009d603          	lhu	a2,0(s3)
    1e88:	0000a597          	auipc	a1,0xa
    1e8c:	76c58593          	addi	a1,a1,1900 # c5f4 <__FUNCTION__.4111+0x84>
    1e90:	0000a517          	auipc	a0,0xa
    1e94:	76850513          	addi	a0,a0,1896 # c5f8 <__FUNCTION__.4111+0x88>
    1e98:	2ac040ef          	jal	ra,6144 <iprintf>
    1e9c:	57fd                	li	a5,-1
    1e9e:	fd040113          	addi	sp,s0,-48
    1ea2:	50b2                	lw	ra,44(sp)
    1ea4:	853e                	mv	a0,a5
    1ea6:	5422                	lw	s0,40(sp)
    1ea8:	5492                	lw	s1,36(sp)
    1eaa:	5902                	lw	s2,32(sp)
    1eac:	49f2                	lw	s3,28(sp)
    1eae:	4a62                	lw	s4,24(sp)
    1eb0:	4ad2                	lw	s5,20(sp)
    1eb2:	4b42                	lw	s6,16(sp)
    1eb4:	4bb2                	lw	s7,12(sp)
    1eb6:	6145                	addi	sp,sp,48
    1eb8:	8082                	ret
    1eba:	864a                	mv	a2,s2
    1ebc:	4581                	li	a1,0
    1ebe:	850a                	mv	a0,sp
    1ec0:	cfbfe0ef          	jal	ra,bba <memset>
    1ec4:	864a                	mv	a2,s2
    1ec6:	012ad363          	bge	s5,s2,1ecc <cfg_save_item+0x98>
    1eca:	8656                	mv	a2,s5
    1ecc:	85de                	mv	a1,s7
    1ece:	855a                	mv	a0,s6
    1ed0:	1d0030ef          	jal	ra,50a0 <memcpy>
    1ed4:	47d1                	li	a5,20
    1ed6:	02fa0a33          	mul	s4,s4,a5
    1eda:	85da                	mv	a1,s6
    1edc:	94d2                	add	s1,s1,s4
    1ede:	4490                	lw	a2,8(s1)
    1ee0:	0004d503          	lhu	a0,0(s1)
    1ee4:	13e020ef          	jal	ra,4022 <st_write_item>
    1ee8:	4781                	li	a5,0
    1eea:	fa055ae3          	bgez	a0,1e9e <cfg_save_item+0x6a>
    1eee:	0004d603          	lhu	a2,0(s1)
    1ef2:	0000a597          	auipc	a1,0xa
    1ef6:	70258593          	addi	a1,a1,1794 # c5f4 <__FUNCTION__.4111+0x84>
    1efa:	0000a517          	auipc	a0,0xa
    1efe:	71a50513          	addi	a0,a0,1818 # c614 <__FUNCTION__.4111+0xa4>
    1f02:	bf59                	j	1e98 <cfg_save_item+0x64>

00001f04 <cfg_get_mb_uart>:
    1f04:	cd1d                	beqz	a0,1f42 <cfg_get_mb_uart+0x3e>
    1f06:	1141                	addi	sp,sp,-16
    1f08:	c606                	sw	ra,12(sp)
    1f0a:	8201c783          	lbu	a5,-2016(gp) # 20001108 <cfg_flag_init>
    1f0e:	e39d                	bnez	a5,1f34 <cfg_get_mb_uart+0x30>
    1f10:	0000a617          	auipc	a2,0xa
    1f14:	63c60613          	addi	a2,a2,1596 # c54c <__FUNCTION__.4089>
    1f18:	0000a597          	auipc	a1,0xa
    1f1c:	6dc58593          	addi	a1,a1,1756 # c5f4 <__FUNCTION__.4111+0x84>
    1f20:	0000a517          	auipc	a0,0xa
    1f24:	66050513          	addi	a0,a0,1632 # c580 <__FUNCTION__.4111+0x10>
    1f28:	21c040ef          	jal	ra,6144 <iprintf>
    1f2c:	557d                	li	a0,-1
    1f2e:	40b2                	lw	ra,12(sp)
    1f30:	0141                	addi	sp,sp,16
    1f32:	8082                	ret
    1f34:	4621                	li	a2,8
    1f36:	95818593          	addi	a1,gp,-1704 # 20001240 <cfg_cache+0x4>
    1f3a:	166030ef          	jal	ra,50a0 <memcpy>
    1f3e:	4501                	li	a0,0
    1f40:	b7fd                	j	1f2e <cfg_get_mb_uart+0x2a>
    1f42:	557d                	li	a0,-1
    1f44:	8082                	ret

00001f46 <cfg_update_mb_uart>:
    1f46:	e119                	bnez	a0,1f4c <cfg_update_mb_uart+0x6>
    1f48:	557d                	li	a0,-1
    1f4a:	8082                	ret
    1f4c:	1141                	addi	sp,sp,-16
    1f4e:	c422                	sw	s0,8(sp)
    1f50:	c606                	sw	ra,12(sp)
    1f52:	8201c783          	lbu	a5,-2016(gp) # 20001108 <cfg_flag_init>
    1f56:	842a                	mv	s0,a0
    1f58:	e785                	bnez	a5,1f80 <cfg_update_mb_uart+0x3a>
    1f5a:	0000a617          	auipc	a2,0xa
    1f5e:	60260613          	addi	a2,a2,1538 # c55c <__FUNCTION__.4094>
    1f62:	0000a597          	auipc	a1,0xa
    1f66:	69258593          	addi	a1,a1,1682 # c5f4 <__FUNCTION__.4111+0x84>
    1f6a:	0000a517          	auipc	a0,0xa
    1f6e:	61650513          	addi	a0,a0,1558 # c580 <__FUNCTION__.4111+0x10>
    1f72:	1d2040ef          	jal	ra,6144 <iprintf>
    1f76:	557d                	li	a0,-1
    1f78:	40b2                	lw	ra,12(sp)
    1f7a:	4422                	lw	s0,8(sp)
    1f7c:	0141                	addi	sp,sp,16
    1f7e:	8082                	ret
    1f80:	85aa                	mv	a1,a0
    1f82:	4621                	li	a2,8
    1f84:	95818513          	addi	a0,gp,-1704 # 20001240 <cfg_cache+0x4>
    1f88:	0f2030ef          	jal	ra,507a <memcmp>
    1f8c:	d575                	beqz	a0,1f78 <cfg_update_mb_uart+0x32>
    1f8e:	4621                	li	a2,8
    1f90:	85a2                	mv	a1,s0
    1f92:	4505                	li	a0,1
    1f94:	3545                	jal	1e34 <cfg_save_item>
    1f96:	fe0540e3          	bltz	a0,1f76 <cfg_update_mb_uart+0x30>
    1f9a:	4621                	li	a2,8
    1f9c:	85a2                	mv	a1,s0
    1f9e:	95818513          	addi	a0,gp,-1704 # 20001240 <cfg_cache+0x4>
    1fa2:	0fe030ef          	jal	ra,50a0 <memcpy>
    1fa6:	4501                	li	a0,0
    1fa8:	bfc1                	j	1f78 <cfg_update_mb_uart+0x32>

00001faa <cfg_get_mb_addr>:
    1faa:	cd15                	beqz	a0,1fe6 <cfg_get_mb_addr+0x3c>
    1fac:	8201c783          	lbu	a5,-2016(gp) # 20001108 <cfg_flag_init>
    1fb0:	e78d                	bnez	a5,1fda <cfg_get_mb_addr+0x30>
    1fb2:	1141                	addi	sp,sp,-16
    1fb4:	0000a617          	auipc	a2,0xa
    1fb8:	5bc60613          	addi	a2,a2,1468 # c570 <__FUNCTION__.4111>
    1fbc:	0000a597          	auipc	a1,0xa
    1fc0:	63858593          	addi	a1,a1,1592 # c5f4 <__FUNCTION__.4111+0x84>
    1fc4:	0000a517          	auipc	a0,0xa
    1fc8:	5bc50513          	addi	a0,a0,1468 # c580 <__FUNCTION__.4111+0x10>
    1fcc:	c606                	sw	ra,12(sp)
    1fce:	176040ef          	jal	ra,6144 <iprintf>
    1fd2:	40b2                	lw	ra,12(sp)
    1fd4:	557d                	li	a0,-1
    1fd6:	0141                	addi	sp,sp,16
    1fd8:	8082                	ret
    1fda:	9541c783          	lbu	a5,-1708(gp) # 2000123c <cfg_cache>
    1fde:	00f50023          	sb	a5,0(a0)
    1fe2:	4501                	li	a0,0
    1fe4:	8082                	ret
    1fe6:	557d                	li	a0,-1
    1fe8:	8082                	ret

00001fea <cfg_init>:
    1fea:	8201c703          	lbu	a4,-2016(gp) # 20001108 <cfg_flag_init>
    1fee:	4781                	li	a5,0
    1ff0:	0c071e63          	bnez	a4,20cc <cfg_init+0xe2>
    1ff4:	1101                	addi	sp,sp,-32
    1ff6:	ce06                	sw	ra,28(sp)
    1ff8:	cc22                	sw	s0,24(sp)
    1ffa:	ca26                	sw	s1,20(sp)
    1ffc:	c84a                	sw	s2,16(sp)
    1ffe:	c64e                	sw	s3,12(sp)
    2000:	c452                	sw	s4,8(sp)
    2002:	c256                	sw	s5,4(sp)
    2004:	49d010ef          	jal	ra,3ca0 <st_init>
    2008:	57fd                	li	a5,-1
    200a:	0a054063          	bltz	a0,20aa <cfg_init+0xc0>
    200e:	04c00613          	li	a2,76
    2012:	4581                	li	a1,0
    2014:	95418513          	addi	a0,gp,-1708 # 2000123c <cfg_cache>
    2018:	ba3fe0ef          	jal	ra,bba <memset>
    201c:	4785                	li	a5,1
    201e:	94f18a23          	sb	a5,-1708(gp) # 2000123c <cfg_cache>
    2022:	6789                	lui	a5,0x2
    2024:	58078793          	addi	a5,a5,1408 # 2580 <modbusParseRequest0506+0xd2>
    2028:	94f1ac23          	sw	a5,-1704(gp) # 20001240 <cfg_cache+0x4>
    202c:	47a1                	li	a5,8
    202e:	94f18e23          	sb	a5,-1700(gp) # 20001244 <cfg_cache+0x8>
    2032:	1ffff417          	auipc	s0,0x1ffff
    2036:	c5a40413          	addi	s0,s0,-934 # 20000c8c <cfg_items>
    203a:	1ffff917          	auipc	s2,0x1ffff
    203e:	ca290913          	addi	s2,s2,-862 # 20000cdc <modbusSlaveDefaultFunctions>
    2042:	0000a497          	auipc	s1,0xa
    2046:	5b248493          	addi	s1,s1,1458 # c5f4 <__FUNCTION__.4111+0x84>
    204a:	0000a997          	auipc	s3,0xa
    204e:	58e98993          	addi	s3,s3,1422 # c5d8 <__FUNCTION__.4111+0x68>
    2052:	0000aa17          	auipc	s4,0xa
    2056:	542a0a13          	addi	s4,s4,1346 # c594 <__FUNCTION__.4111+0x24>
    205a:	0000aa97          	auipc	s5,0xa
    205e:	562a8a93          	addi	s5,s5,1378 # c5bc <__FUNCTION__.4111+0x4c>
    2062:	4410                	lw	a2,8(s0)
    2064:	404c                	lw	a1,4(s0)
    2066:	00045503          	lhu	a0,0(s0)
    206a:	400020ef          	jal	ra,446a <st_read_item>
    206e:	04a04a63          	bgtz	a0,20c2 <cfg_init+0xd8>
    2072:	00045603          	lhu	a2,0(s0)
    2076:	85a6                	mv	a1,s1
    2078:	e139                	bnez	a0,20be <cfg_init+0xd4>
    207a:	8552                	mv	a0,s4
    207c:	0c8040ef          	jal	ra,6144 <iprintf>
    2080:	4410                	lw	a2,8(s0)
    2082:	404c                	lw	a1,4(s0)
    2084:	00045503          	lhu	a0,0(s0)
    2088:	79b010ef          	jal	ra,4022 <st_write_item>
    208c:	02055b63          	bgez	a0,20c2 <cfg_init+0xd8>
    2090:	00045603          	lhu	a2,0(s0)
    2094:	85a6                	mv	a1,s1
    2096:	8556                	mv	a0,s5
    2098:	0ac040ef          	jal	ra,6144 <iprintf>
    209c:	0451                	addi	s0,s0,20
    209e:	fd2412e3          	bne	s0,s2,2062 <cfg_init+0x78>
    20a2:	4785                	li	a5,1
    20a4:	82f18023          	sb	a5,-2016(gp) # 20001108 <cfg_flag_init>
    20a8:	4781                	li	a5,0
    20aa:	40f2                	lw	ra,28(sp)
    20ac:	4462                	lw	s0,24(sp)
    20ae:	44d2                	lw	s1,20(sp)
    20b0:	4942                	lw	s2,16(sp)
    20b2:	49b2                	lw	s3,12(sp)
    20b4:	4a22                	lw	s4,8(sp)
    20b6:	4a92                	lw	s5,4(sp)
    20b8:	853e                	mv	a0,a5
    20ba:	6105                	addi	sp,sp,32
    20bc:	8082                	ret
    20be:	854e                	mv	a0,s3
    20c0:	bfe1                	j	2098 <cfg_init+0xae>
    20c2:	481c                	lw	a5,16(s0)
    20c4:	dfe1                	beqz	a5,209c <cfg_init+0xb2>
    20c6:	8522                	mv	a0,s0
    20c8:	9782                	jalr	a5
    20ca:	bfc9                	j	209c <cfg_init+0xb2>
    20cc:	853e                	mv	a0,a5
    20ce:	8082                	ret

000020d0 <display_init>:
    20d0:	9a018793          	addi	a5,gp,-1632 # 20001288 <line_idx>
    20d4:	9b018713          	addi	a4,gp,-1616 # 20001298 <lines>
    20d8:	c398                	sw	a4,0(a5)
    20da:	9c218713          	addi	a4,gp,-1598 # 200012aa <lines+0x12>
    20de:	c3d8                	sw	a4,4(a5)
    20e0:	9d418713          	addi	a4,gp,-1580 # 200012bc <lines+0x24>
    20e4:	c798                	sw	a4,8(a5)
    20e6:	9e618713          	addi	a4,gp,-1562 # 200012ce <lines+0x36>
    20ea:	c7d8                	sw	a4,12(a5)
    20ec:	4501                	li	a0,0
    20ee:	8082                	ret

000020f0 <gpio_set_direction>:
    20f0:	1101                	addi	sp,sp,-32
    20f2:	ce06                	sw	ra,28(sp)
    20f4:	cc22                	sw	s0,24(sp)
    20f6:	ca26                	sw	s1,20(sp)
    20f8:	02700793          	li	a5,39
    20fc:	862a                	mv	a2,a0
    20fe:	02a7f363          	bgeu	a5,a0,2124 <gpio_set_direction+0x34>
    2102:	0000a597          	auipc	a1,0xa
    2106:	52e58593          	addi	a1,a1,1326 # c630 <__FUNCTION__.4111+0xc0>
    210a:	0000a517          	auipc	a0,0xa
    210e:	52e50513          	addi	a0,a0,1326 # c638 <__FUNCTION__.4111+0xc8>
    2112:	032040ef          	jal	ra,6144 <iprintf>
    2116:	547d                	li	s0,-1
    2118:	8522                	mv	a0,s0
    211a:	40f2                	lw	ra,28(sp)
    211c:	4462                	lw	s0,24(sp)
    211e:	44d2                	lw	s1,20(sp)
    2120:	6105                	addi	sp,sp,32
    2122:	8082                	ret
    2124:	47bd                	li	a5,15
    2126:	84ae                	mv	s1,a1
    2128:	00a7e963          	bltu	a5,a0,213a <gpio_set_direction+0x4a>
    212c:	4505                	li	a0,1
    212e:	00c51533          	sll	a0,a0,a2
    2132:	c632                	sw	a2,12(sp)
    2134:	143020ef          	jal	ra,4a76 <GPIOA_ModeCfg>
    2138:	4632                	lw	a2,12(sp)
    213a:	1641                	addi	a2,a2,-16
    213c:	47dd                	li	a5,23
    213e:	4401                	li	s0,0
    2140:	fcc7ece3          	bltu	a5,a2,2118 <gpio_set_direction+0x28>
    2144:	4505                	li	a0,1
    2146:	85a6                	mv	a1,s1
    2148:	00c51533          	sll	a0,a0,a2
    214c:	12b020ef          	jal	ra,4a76 <GPIOA_ModeCfg>
    2150:	b7e1                	j	2118 <gpio_set_direction+0x28>

00002152 <gpio_set_level>:
    2152:	02700793          	li	a5,39
    2156:	862a                	mv	a2,a0
    2158:	02a7f363          	bgeu	a5,a0,217e <gpio_set_level+0x2c>
    215c:	1141                	addi	sp,sp,-16
    215e:	0000a597          	auipc	a1,0xa
    2162:	4d258593          	addi	a1,a1,1234 # c630 <__FUNCTION__.4111+0xc0>
    2166:	0000a517          	auipc	a0,0xa
    216a:	4d250513          	addi	a0,a0,1234 # c638 <__FUNCTION__.4111+0xc8>
    216e:	c606                	sw	ra,12(sp)
    2170:	7d5030ef          	jal	ra,6144 <iprintf>
    2174:	40b2                	lw	ra,12(sp)
    2176:	55fd                	li	a1,-1
    2178:	852e                	mv	a0,a1
    217a:	0141                	addi	sp,sp,16
    217c:	8082                	ret
    217e:	47bd                	li	a5,15
    2180:	00a7ed63          	bltu	a5,a0,219a <gpio_set_level+0x48>
    2184:	4785                	li	a5,1
    2186:	00a797b3          	sll	a5,a5,a0
    218a:	400016b7          	lui	a3,0x40001
    218e:	c59d                	beqz	a1,21bc <gpio_set_level+0x6a>
    2190:	0a86a703          	lw	a4,168(a3) # 400010a8 <_eusrstack+0x1fff90a8>
    2194:	8fd9                	or	a5,a5,a4
    2196:	0af6a423          	sw	a5,168(a3)
    219a:	1641                	addi	a2,a2,-16
    219c:	47dd                	li	a5,23
    219e:	00c7ed63          	bltu	a5,a2,21b8 <gpio_set_level+0x66>
    21a2:	4505                	li	a0,1
    21a4:	00c51633          	sll	a2,a0,a2
    21a8:	400017b7          	lui	a5,0x40001
    21ac:	cd91                	beqz	a1,21c8 <gpio_set_level+0x76>
    21ae:	0c87a503          	lw	a0,200(a5) # 400010c8 <_eusrstack+0x1fff90c8>
    21b2:	8e49                	or	a2,a2,a0
    21b4:	0cc7a423          	sw	a2,200(a5)
    21b8:	4581                	li	a1,0
    21ba:	a821                	j	21d2 <gpio_set_level+0x80>
    21bc:	0ac6a703          	lw	a4,172(a3)
    21c0:	8fd9                	or	a5,a5,a4
    21c2:	0af6a623          	sw	a5,172(a3)
    21c6:	bfd1                	j	219a <gpio_set_level+0x48>
    21c8:	0cc7a503          	lw	a0,204(a5)
    21cc:	8e49                	or	a2,a2,a0
    21ce:	0cc7a623          	sw	a2,204(a5)
    21d2:	852e                	mv	a0,a1
    21d4:	8082                	ret

000021d6 <modbusBufferInit>:
    21d6:	c10c                	sw	a1,0(a0)
    21d8:	00052223          	sw	zero,4(a0)
    21dc:	00052423          	sw	zero,8(a0)
    21e0:	00052623          	sw	zero,12(a0)
    21e4:	4501                	li	a0,0
    21e6:	8082                	ret

000021e8 <modbusBufferAllocateADU>:
    21e8:	1141                	addi	sp,sp,-16
    21ea:	c422                	sw	s0,8(sp)
    21ec:	c226                	sw	s1,4(sp)
    21ee:	c606                	sw	ra,12(sp)
    21f0:	842a                	mv	s0,a0
    21f2:	84ae                	mv	s1,a1
    21f4:	c599                	beqz	a1,2202 <modbusBufferAllocateADU+0x1a>
    21f6:	00e54783          	lbu	a5,14(a0)
    21fa:	00f584b3          	add	s1,a1,a5
    21fe:	04c2                	slli	s1,s1,0x10
    2200:	80c1                	srli	s1,s1,0x10
    2202:	401c                	lw	a5,0(s0)
    2204:	85a6                	mv	a1,s1
    2206:	8522                	mv	a0,s0
    2208:	9782                	jalr	a5
    220a:	4789                	li	a5,2
    220c:	00f50363          	beq	a0,a5,2212 <modbusBufferAllocateADU+0x2a>
    2210:	ec81                	bnez	s1,2228 <modbusBufferAllocateADU+0x40>
    2212:	00042223          	sw	zero,4(s0)
    2216:	00042423          	sw	zero,8(s0)
    221a:	00041623          	sh	zero,12(s0)
    221e:	40b2                	lw	ra,12(sp)
    2220:	4422                	lw	s0,8(sp)
    2222:	4492                	lw	s1,4(sp)
    2224:	0141                	addi	sp,sp,16
    2226:	8082                	ret
    2228:	00f44703          	lbu	a4,15(s0)
    222c:	405c                	lw	a5,4(s0)
    222e:	00941623          	sh	s1,12(s0)
    2232:	97ba                	add	a5,a5,a4
    2234:	c41c                	sw	a5,8(s0)
    2236:	b7e5                	j	221e <modbusBufferAllocateADU+0x36>

00002238 <modbusBufferFree>:
    2238:	862e                	mv	a2,a1
    223a:	4581                	li	a1,0
    223c:	b775                	j	21e8 <modbusBufferAllocateADU>

0000223e <modbusSlaveAllocateResponse>:
    223e:	5110                	lw	a2,32(a0)
    2240:	0541                	addi	a0,a0,16
    2242:	b75d                	j	21e8 <modbusBufferAllocateADU>

00002244 <modbusCRC>:
    2244:	67c1                	lui	a5,0x10
    2246:	7669                	lui	a2,0xffffa
    2248:	4681                	li	a3,0
    224a:	17fd                	addi	a5,a5,-1
    224c:	0605                	addi	a2,a2,1
    224e:	01069713          	slli	a4,a3,0x10
    2252:	8341                	srli	a4,a4,0x10
    2254:	00b76463          	bltu	a4,a1,225c <modbusCRC+0x18>
    2258:	853e                	mv	a0,a5
    225a:	8082                	ret
    225c:	00d50733          	add	a4,a0,a3
    2260:	00074703          	lbu	a4,0(a4)
    2264:	8fb9                	xor	a5,a5,a4
    2266:	4721                	li	a4,8
    2268:	0017f813          	andi	a6,a5,1
    226c:	8385                	srli	a5,a5,0x1
    226e:	00080563          	beqz	a6,2278 <modbusCRC+0x34>
    2272:	8fb1                	xor	a5,a5,a2
    2274:	07c2                	slli	a5,a5,0x10
    2276:	83c1                	srli	a5,a5,0x10
    2278:	177d                	addi	a4,a4,-1
    227a:	0ff77713          	andi	a4,a4,255
    227e:	f76d                	bnez	a4,2268 <modbusCRC+0x24>
    2280:	0685                	addi	a3,a3,1
    2282:	b7f1                	j	224e <modbusCRC+0xa>

00002284 <modbusSlaveInit>:
    2284:	c10c                	sw	a1,0(a0)
    2286:	c518                	sw	a4,8(a0)
    2288:	00f50623          	sb	a5,12(a0)
    228c:	c150                	sw	a2,4(a0)
    228e:	02052023          	sw	zero,32(a0)
    2292:	85b6                	mv	a1,a3
    2294:	0541                	addi	a0,a0,16
    2296:	b781                	j	21d6 <modbusBufferInit>

00002298 <modbusSlaveDestroy>:
    2298:	510c                	lw	a1,32(a0)
    229a:	0541                	addi	a0,a0,16
    229c:	bf71                	j	2238 <modbusBufferFree>

0000229e <modbusBuildException>:
    229e:	415c                	lw	a5,4(a0)
    22a0:	1141                	addi	sp,sp,-16
    22a2:	c422                	sw	s0,8(sp)
    22a4:	c226                	sw	s1,4(sp)
    22a6:	c04a                	sw	s2,0(sp)
    22a8:	c606                	sw	ra,12(sp)
    22aa:	842a                	mv	s0,a0
    22ac:	84ae                	mv	s1,a1
    22ae:	8932                	mv	s2,a2
    22b0:	c391                	beqz	a5,22b4 <modbusBuildException+0x16>
    22b2:	9782                	jalr	a5
    22b4:	4589                	li	a1,2
    22b6:	8522                	mv	a0,s0
    22b8:	3759                	jal	223e <modbusSlaveAllocateResponse>
    22ba:	4781                	li	a5,0
    22bc:	c909                	beqz	a0,22ce <modbusBuildException+0x30>
    22be:	0087e513          	ori	a0,a5,8
    22c2:	40b2                	lw	ra,12(sp)
    22c4:	4422                	lw	s0,8(sp)
    22c6:	4492                	lw	s1,4(sp)
    22c8:	4902                	lw	s2,0(sp)
    22ca:	0141                	addi	sp,sp,16
    22cc:	8082                	ret
    22ce:	4c18                	lw	a4,24(s0)
    22d0:	f804e493          	ori	s1,s1,-128
    22d4:	853e                	mv	a0,a5
    22d6:	00970023          	sb	s1,0(a4)
    22da:	4c18                	lw	a4,24(s0)
    22dc:	012700a3          	sb	s2,1(a4)
    22e0:	b7cd                	j	22c2 <modbusBuildException+0x24>

000022e2 <modbusParseRequest01020304>:
    22e2:	715d                	addi	sp,sp,-80
    22e4:	c686                	sw	ra,76(sp)
    22e6:	c4a2                	sw	s0,72(sp)
    22e8:	c2a6                	sw	s1,68(sp)
    22ea:	c0ca                	sw	s2,64(sp)
    22ec:	de4e                	sw	s3,60(sp)
    22ee:	dc52                	sw	s4,56(sp)
    22f0:	da56                	sw	s5,52(sp)
    22f2:	d85a                	sw	s6,48(sp)
    22f4:	d65e                	sw	s7,44(sp)
    22f6:	4795                	li	a5,5
    22f8:	00f68f63          	beq	a3,a5,2316 <modbusParseRequest01020304+0x34>
    22fc:	460d                	li	a2,3
    22fe:	3745                	jal	229e <modbusBuildException>
    2300:	40b6                	lw	ra,76(sp)
    2302:	4426                	lw	s0,72(sp)
    2304:	4496                	lw	s1,68(sp)
    2306:	4906                	lw	s2,64(sp)
    2308:	59f2                	lw	s3,60(sp)
    230a:	5a62                	lw	s4,56(sp)
    230c:	5ad2                	lw	s5,52(sp)
    230e:	5b42                	lw	s6,48(sp)
    2310:	5bb2                	lw	s7,44(sp)
    2312:	6161                	addi	sp,sp,80
    2314:	8082                	ret
    2316:	fff58793          	addi	a5,a1,-1
    231a:	0ff7f793          	andi	a5,a5,255
    231e:	470d                	li	a4,3
    2320:	8aae                	mv	s5,a1
    2322:	18f76263          	bltu	a4,a5,24a6 <modbusParseRequest01020304+0x1c4>
    2326:	00364483          	lbu	s1,3(a2) # ffffa003 <_eusrstack+0xdfff2003>
    232a:	00464703          	lbu	a4,4(a2)
    232e:	892a                	mv	s2,a0
    2330:	04a2                	slli	s1,s1,0x8
    2332:	8cd9                	or	s1,s1,a4
    2334:	04c2                	slli	s1,s1,0x10
    2336:	84c1                	srai	s1,s1,0x10
    2338:	01049b93          	slli	s7,s1,0x10
    233c:	010bdb93          	srli	s7,s7,0x10
    2340:	000b8d63          	beqz	s7,235a <modbusParseRequest01020304+0x78>
    2344:	00179693          	slli	a3,a5,0x1
    2348:	0000b717          	auipc	a4,0xb
    234c:	3b470713          	addi	a4,a4,948 # d6fc <CSWTCH.32>
    2350:	9736                	add	a4,a4,a3
    2352:	00075703          	lhu	a4,0(a4)
    2356:	03777363          	bgeu	a4,s7,237c <modbusParseRequest01020304+0x9a>
    235a:	460d                	li	a2,3
    235c:	85d6                	mv	a1,s5
    235e:	854a                	mv	a0,s2
    2360:	3f3d                	jal	229e <modbusBuildException>
    2362:	842a                	mv	s0,a0
    2364:	00357793          	andi	a5,a0,3
    2368:	8109                	srli	a0,a0,0x2
    236a:	03f57513          	andi	a0,a0,63
    236e:	9871                	andi	s0,s0,-4
    2370:	8c5d                	or	s0,s0,a5
    2372:	050a                	slli	a0,a0,0x2
    2374:	f0347413          	andi	s0,s0,-253
    2378:	8d41                	or	a0,a0,s0
    237a:	b759                	j	2300 <modbusParseRequest01020304+0x1e>
    237c:	00164983          	lbu	s3,1(a2)
    2380:	00264703          	lbu	a4,2(a2)
    2384:	4609                	li	a2,2
    2386:	09a2                	slli	s3,s3,0x8
    2388:	00e9e9b3          	or	s3,s3,a4
    238c:	6741                	lui	a4,0x10
    238e:	41770733          	sub	a4,a4,s7
    2392:	fd3747e3          	blt	a4,s3,2360 <modbusParseRequest01020304+0x7e>
    2396:	0000b717          	auipc	a4,0xb
    239a:	36e70713          	addi	a4,a4,878 # d704 <CSWTCH.33>
    239e:	973e                	add	a4,a4,a5
    23a0:	00074a03          	lbu	s4,0(a4)
    23a4:	0000b717          	auipc	a4,0xb
    23a8:	35470713          	addi	a4,a4,852 # d6f8 <CSWTCH.31>
    23ac:	97ba                	add	a5,a5,a4
    23ae:	0007c783          	lbu	a5,0(a5) # 10000 <_data_lma+0x28f0>
    23b2:	ca02                	sw	zero,20(sp)
    23b4:	00011d23          	sh	zero,26(sp)
    23b8:	c83e                	sw	a5,16(sp)
    23ba:	00b10e23          	sb	a1,28(sp)
    23be:	4b01                	li	s6,0
    23c0:	016987b3          	add	a5,s3,s6
    23c4:	00f11c23          	sh	a5,24(sp)
    23c8:	00092783          	lw	a5,0(s2)
    23cc:	0030                	addi	a2,sp,8
    23ce:	080c                	addi	a1,sp,16
    23d0:	854a                	mv	a0,s2
    23d2:	9782                	jalr	a5
    23d4:	c119                	beqz	a0,23da <modbusParseRequest01020304+0xf8>
    23d6:	4611                	li	a2,4
    23d8:	b751                	j	235c <modbusParseRequest01020304+0x7a>
    23da:	4622                	lw	a2,8(sp)
    23dc:	f241                	bnez	a2,235c <modbusParseRequest01020304+0x7a>
    23de:	0b05                	addi	s6,s6,1
    23e0:	0b42                	slli	s6,s6,0x10
    23e2:	010b5b13          	srli	s6,s6,0x10
    23e6:	fd6b9de3          	bne	s7,s6,23c0 <modbusParseRequest01020304+0xde>
    23ea:	0486                	slli	s1,s1,0x1
    23ec:	000a0563          	beqz	s4,23f6 <modbusParseRequest01020304+0x114>
    23f0:	007b0493          	addi	s1,s6,7 # 10007 <_data_lma+0x28f7>
    23f4:	848d                	srai	s1,s1,0x3
    23f6:	0ff4f493          	andi	s1,s1,255
    23fa:	00248593          	addi	a1,s1,2
    23fe:	854a                	mv	a0,s2
    2400:	3d3d                	jal	223e <modbusSlaveAllocateResponse>
    2402:	e545                	bnez	a0,24aa <modbusParseRequest01020304+0x1c8>
    2404:	01892783          	lw	a5,24(s2)
    2408:	01578023          	sb	s5,0(a5)
    240c:	01892783          	lw	a5,24(s2)
    2410:	009780a3          	sb	s1,1(a5)
    2414:	4781                	li	a5,0
    2416:	0ff7f713          	andi	a4,a5,255
    241a:	06976163          	bltu	a4,s1,247c <modbusParseRequest01020304+0x19a>
    241e:	4789                	li	a5,2
    2420:	ca3e                	sw	a5,20(sp)
    2422:	4a81                	li	s5,0
    2424:	4b85                	li	s7,1
    2426:	015987b3          	add	a5,s3,s5
    242a:	00f11c23          	sh	a5,24(sp)
    242e:	00092783          	lw	a5,0(s2)
    2432:	0030                	addi	a2,sp,8
    2434:	080c                	addi	a1,sp,16
    2436:	854a                	mv	a0,s2
    2438:	010a9493          	slli	s1,s5,0x10
    243c:	9782                	jalr	a5
    243e:	80c1                	srli	s1,s1,0x10
    2440:	01892783          	lw	a5,24(s2)
    2444:	00c15683          	lhu	a3,12(sp)
    2448:	0a85                	addi	s5,s5,1
    244a:	040a0463          	beqz	s4,2492 <modbusParseRequest01020304+0x1b0>
    244e:	0034d713          	srli	a4,s1,0x3
    2452:	889d                	andi	s1,s1,7
    2454:	0709                	addi	a4,a4,2
    2456:	009b94b3          	sll	s1,s7,s1
    245a:	97ba                	add	a5,a5,a4
    245c:	04e2                	slli	s1,s1,0x18
    245e:	00078703          	lb	a4,0(a5)
    2462:	84e1                	srai	s1,s1,0x18
    2464:	c29d                	beqz	a3,248a <modbusParseRequest01020304+0x1a8>
    2466:	8cd9                	or	s1,s1,a4
    2468:	00978023          	sb	s1,0(a5)
    246c:	010a9793          	slli	a5,s5,0x10
    2470:	83c1                	srli	a5,a5,0x10
    2472:	fb67eae3          	bltu	a5,s6,2426 <modbusParseRequest01020304+0x144>
    2476:	4501                	li	a0,0
    2478:	4781                	li	a5,0
    247a:	bdd5                	j	236e <modbusParseRequest01020304+0x8c>
    247c:	01892703          	lw	a4,24(s2)
    2480:	973e                	add	a4,a4,a5
    2482:	00070123          	sb	zero,2(a4)
    2486:	0785                	addi	a5,a5,1
    2488:	b779                	j	2416 <modbusParseRequest01020304+0x134>
    248a:	fff4c493          	not	s1,s1
    248e:	8cf9                	and	s1,s1,a4
    2490:	bfe1                	j	2468 <modbusParseRequest01020304+0x186>
    2492:	001a9713          	slli	a4,s5,0x1
    2496:	97ba                	add	a5,a5,a4
    2498:	0086d713          	srli	a4,a3,0x8
    249c:	00e78023          	sb	a4,0(a5)
    24a0:	00d780a3          	sb	a3,1(a5)
    24a4:	b7e1                	j	246c <modbusParseRequest01020304+0x18a>
    24a6:	450d                	li	a0,3
    24a8:	bfc1                	j	2478 <modbusParseRequest01020304+0x196>
    24aa:	4509                	li	a0,2
    24ac:	b7f1                	j	2478 <modbusParseRequest01020304+0x196>

000024ae <modbusParseRequest0506>:
    24ae:	7139                	addi	sp,sp,-64
    24b0:	de06                	sw	ra,60(sp)
    24b2:	dc22                	sw	s0,56(sp)
    24b4:	da26                	sw	s1,52(sp)
    24b6:	d84a                	sw	s2,48(sp)
    24b8:	d64e                	sw	s3,44(sp)
    24ba:	d452                	sw	s4,40(sp)
    24bc:	d256                	sw	s5,36(sp)
    24be:	d05a                	sw	s6,32(sp)
    24c0:	4795                	li	a5,5
    24c2:	00f68e63          	beq	a3,a5,24de <modbusParseRequest0506+0x30>
    24c6:	460d                	li	a2,3
    24c8:	3bd9                	jal	229e <modbusBuildException>
    24ca:	50f2                	lw	ra,60(sp)
    24cc:	5462                	lw	s0,56(sp)
    24ce:	54d2                	lw	s1,52(sp)
    24d0:	5942                	lw	s2,48(sp)
    24d2:	59b2                	lw	s3,44(sp)
    24d4:	5a22                	lw	s4,40(sp)
    24d6:	5a92                	lw	s5,36(sp)
    24d8:	5b02                	lw	s6,32(sp)
    24da:	6121                	addi	sp,sp,64
    24dc:	8082                	ret
    24de:	84aa                	mv	s1,a0
    24e0:	8a2e                	mv	s4,a1
    24e2:	4791                	li	a5,4
    24e4:	00d58363          	beq	a1,a3,24ea <modbusParseRequest0506+0x3c>
    24e8:	4785                	li	a5,1
    24ea:	00164a83          	lbu	s5,1(a2)
    24ee:	00264703          	lbu	a4,2(a2)
    24f2:	00364903          	lbu	s2,3(a2)
    24f6:	0aa2                	slli	s5,s5,0x8
    24f8:	00eaeab3          	or	s5,s5,a4
    24fc:	00464703          	lbu	a4,4(a2)
    2500:	0922                	slli	s2,s2,0x8
    2502:	0ac2                	slli	s5,s5,0x10
    2504:	00e96933          	or	s2,s2,a4
    2508:	0942                	slli	s2,s2,0x10
    250a:	410ada93          	srai	s5,s5,0x10
    250e:	41095913          	srai	s2,s2,0x10
    2512:	010a9b13          	slli	s6,s5,0x10
    2516:	01091993          	slli	s3,s2,0x10
    251a:	4711                	li	a4,4
    251c:	010b5b13          	srli	s6,s6,0x10
    2520:	0109d993          	srli	s3,s3,0x10
    2524:	00e79a63          	bne	a5,a4,2538 <modbusParseRequest0506+0x8a>
    2528:	00098863          	beqz	s3,2538 <modbusParseRequest0506+0x8a>
    252c:	6741                	lui	a4,0x10
    252e:	f0070713          	addi	a4,a4,-256 # ff00 <_data_lma+0x27f0>
    2532:	460d                	li	a2,3
    2534:	02e99a63          	bne	s3,a4,2568 <modbusParseRequest0506+0xba>
    2538:	4705                	li	a4,1
    253a:	ca3a                	sw	a4,20(sp)
    253c:	c83e                	sw	a5,16(sp)
    253e:	01611c23          	sh	s6,24(sp)
    2542:	4691                	li	a3,4
    2544:	874e                	mv	a4,s3
    2546:	00d79463          	bne	a5,a3,254e <modbusParseRequest0506+0xa0>
    254a:	01303733          	snez	a4,s3
    254e:	409c                	lw	a5,0(s1)
    2550:	0030                	addi	a2,sp,8
    2552:	00e11d23          	sh	a4,26(sp)
    2556:	01410e23          	sb	s4,28(sp)
    255a:	080c                	addi	a1,sp,16
    255c:	8526                	mv	a0,s1
    255e:	9782                	jalr	a5
    2560:	4611                	li	a2,4
    2562:	e119                	bnez	a0,2568 <modbusParseRequest0506+0xba>
    2564:	4622                	lw	a2,8(sp)
    2566:	c20d                	beqz	a2,2588 <modbusParseRequest0506+0xda>
    2568:	85d2                	mv	a1,s4
    256a:	8526                	mv	a0,s1
    256c:	3b0d                	jal	229e <modbusBuildException>
    256e:	842a                	mv	s0,a0
    2570:	00357793          	andi	a5,a0,3
    2574:	8109                	srli	a0,a0,0x2
    2576:	03f57513          	andi	a0,a0,63
    257a:	9871                	andi	s0,s0,-4
    257c:	8c5d                	or	s0,s0,a5
    257e:	050a                	slli	a0,a0,0x2
    2580:	f0347413          	andi	s0,s0,-253
    2584:	8d41                	or	a0,a0,s0
    2586:	b791                	j	24ca <modbusParseRequest0506+0x1c>
    2588:	478d                	li	a5,3
    258a:	ca3e                	sw	a5,20(sp)
    258c:	409c                	lw	a5,0(s1)
    258e:	080c                	addi	a1,sp,16
    2590:	0030                	addi	a2,sp,8
    2592:	8526                	mv	a0,s1
    2594:	9782                	jalr	a5
    2596:	4595                	li	a1,5
    2598:	8526                	mv	a0,s1
    259a:	3155                	jal	223e <modbusSlaveAllocateResponse>
    259c:	e505                	bnez	a0,25c4 <modbusParseRequest0506+0x116>
    259e:	4c9c                	lw	a5,24(s1)
    25a0:	008b5b13          	srli	s6,s6,0x8
    25a4:	0089d993          	srli	s3,s3,0x8
    25a8:	01478023          	sb	s4,0(a5)
    25ac:	4c9c                	lw	a5,24(s1)
    25ae:	016780a3          	sb	s6,1(a5)
    25b2:	01578123          	sb	s5,2(a5)
    25b6:	4c9c                	lw	a5,24(s1)
    25b8:	013781a3          	sb	s3,3(a5)
    25bc:	01278223          	sb	s2,4(a5)
    25c0:	4781                	li	a5,0
    25c2:	bf65                	j	257a <modbusParseRequest0506+0xcc>
    25c4:	4509                	li	a0,2
    25c6:	bfed                	j	25c0 <modbusParseRequest0506+0x112>

000025c8 <modbusParseRequest1516>:
    25c8:	711d                	addi	sp,sp,-96
    25ca:	cca2                	sw	s0,88(sp)
    25cc:	de5e                	sw	s7,60(sp)
    25ce:	ce86                	sw	ra,92(sp)
    25d0:	caa6                	sw	s1,84(sp)
    25d2:	c8ca                	sw	s2,80(sp)
    25d4:	c6ce                	sw	s3,76(sp)
    25d6:	c4d2                	sw	s4,72(sp)
    25d8:	c2d6                	sw	s5,68(sp)
    25da:	c0da                	sw	s6,64(sp)
    25dc:	dc62                	sw	s8,56(sp)
    25de:	da66                	sw	s9,52(sp)
    25e0:	d86a                	sw	s10,48(sp)
    25e2:	d66e                	sw	s11,44(sp)
    25e4:	4795                	li	a5,5
    25e6:	842a                	mv	s0,a0
    25e8:	8bae                	mv	s7,a1
    25ea:	02d7e563          	bltu	a5,a3,2614 <modbusParseRequest1516+0x4c>
    25ee:	460d                	li	a2,3
    25f0:	85de                	mv	a1,s7
    25f2:	8522                	mv	a0,s0
    25f4:	316d                	jal	229e <modbusBuildException>
    25f6:	40f6                	lw	ra,92(sp)
    25f8:	4466                	lw	s0,88(sp)
    25fa:	44d6                	lw	s1,84(sp)
    25fc:	4946                	lw	s2,80(sp)
    25fe:	49b6                	lw	s3,76(sp)
    2600:	4a26                	lw	s4,72(sp)
    2602:	4a96                	lw	s5,68(sp)
    2604:	4b06                	lw	s6,64(sp)
    2606:	5bf2                	lw	s7,60(sp)
    2608:	5c62                	lw	s8,56(sp)
    260a:	5cd2                	lw	s9,52(sp)
    260c:	5d42                	lw	s10,48(sp)
    260e:	5db2                	lw	s11,44(sp)
    2610:	6125                	addi	sp,sp,96
    2612:	8082                	ret
    2614:	47bd                	li	a5,15
    2616:	8a32                	mv	s4,a2
    2618:	0cf58063          	beq	a1,a5,26d8 <modbusParseRequest1516+0x110>
    261c:	4d05                	li	s10,1
    261e:	07b00793          	li	a5,123
    2622:	005a4703          	lbu	a4,5(s4)
    2626:	d761                	beqz	a4,25ee <modbusParseRequest1516+0x26>
    2628:	16e9                	addi	a3,a3,-6
    262a:	fcd712e3          	bne	a4,a3,25ee <modbusParseRequest1516+0x26>
    262e:	003a4483          	lbu	s1,3(s4)
    2632:	004a4683          	lbu	a3,4(s4)
    2636:	04a2                	slli	s1,s1,0x8
    2638:	8cd5                	or	s1,s1,a3
    263a:	04c2                	slli	s1,s1,0x10
    263c:	84c1                	srai	s1,s1,0x10
    263e:	01049b13          	slli	s6,s1,0x10
    2642:	010b5b13          	srli	s6,s6,0x10
    2646:	fa0b04e3          	beqz	s6,25ee <modbusParseRequest1516+0x26>
    264a:	fb67e2e3          	bltu	a5,s6,25ee <modbusParseRequest1516+0x26>
    264e:	4691                	li	a3,4
    2650:	001b1793          	slli	a5,s6,0x1
    2654:	00dd1563          	bne	s10,a3,265e <modbusParseRequest1516+0x96>
    2658:	007b0793          	addi	a5,s6,7
    265c:	878d                	srai	a5,a5,0x3
    265e:	f8f718e3          	bne	a4,a5,25ee <modbusParseRequest1516+0x26>
    2662:	001a4903          	lbu	s2,1(s4)
    2666:	002a4783          	lbu	a5,2(s4)
    266a:	4609                	li	a2,2
    266c:	0922                	slli	s2,s2,0x8
    266e:	00f96933          	or	s2,s2,a5
    2672:	0942                	slli	s2,s2,0x10
    2674:	41095913          	srai	s2,s2,0x10
    2678:	01091993          	slli	s3,s2,0x10
    267c:	67c1                	lui	a5,0x10
    267e:	0109d993          	srli	s3,s3,0x10
    2682:	416787b3          	sub	a5,a5,s6
    2686:	f737c5e3          	blt	a5,s3,25f0 <modbusParseRequest1516+0x28>
    268a:	4785                	li	a5,1
    268c:	006a0c93          	addi	s9,s4,6
    2690:	c86a                	sw	s10,16(sp)
    2692:	ca3e                	sw	a5,20(sp)
    2694:	01710e23          	sb	s7,28(sp)
    2698:	8de6                	mv	s11,s9
    269a:	4c01                	li	s8,0
    269c:	4711                	li	a4,4
    269e:	018987b3          	add	a5,s3,s8
    26a2:	00f11c23          	sh	a5,24(sp)
    26a6:	02ed1f63          	bne	s10,a4,26e4 <modbusParseRequest1516+0x11c>
    26aa:	003c5793          	srli	a5,s8,0x3
    26ae:	07c2                	slli	a5,a5,0x10
    26b0:	83c1                	srli	a5,a5,0x10
    26b2:	97d2                	add	a5,a5,s4
    26b4:	0067c783          	lbu	a5,6(a5) # 10006 <_data_lma+0x28f6>
    26b8:	007c7693          	andi	a3,s8,7
    26bc:	40d7d7b3          	sra	a5,a5,a3
    26c0:	8b85                	andi	a5,a5,1
    26c2:	00f11d23          	sh	a5,26(sp)
    26c6:	401c                	lw	a5,0(s0)
    26c8:	0030                	addi	a2,sp,8
    26ca:	080c                	addi	a1,sp,16
    26cc:	8522                	mv	a0,s0
    26ce:	9782                	jalr	a5
    26d0:	4711                	li	a4,4
    26d2:	c105                	beqz	a0,26f2 <modbusParseRequest1516+0x12a>
    26d4:	4611                	li	a2,4
    26d6:	bf29                	j	25f0 <modbusParseRequest1516+0x28>
    26d8:	4d11                	li	s10,4
    26da:	7b000793          	li	a5,1968
    26de:	b791                	j	2622 <modbusParseRequest1516+0x5a>
    26e0:	8c56                	mv	s8,s5
    26e2:	bf75                	j	269e <modbusParseRequest1516+0xd6>
    26e4:	000dc783          	lbu	a5,0(s11)
    26e8:	001dc683          	lbu	a3,1(s11)
    26ec:	07a2                	slli	a5,a5,0x8
    26ee:	8fd5                	or	a5,a5,a3
    26f0:	bfc9                	j	26c2 <modbusParseRequest1516+0xfa>
    26f2:	4622                	lw	a2,8(sp)
    26f4:	ee061ee3          	bnez	a2,25f0 <modbusParseRequest1516+0x28>
    26f8:	001c0a93          	addi	s5,s8,1
    26fc:	0ac2                	slli	s5,s5,0x10
    26fe:	010ada93          	srli	s5,s5,0x10
    2702:	0d89                	addi	s11,s11,2
    2704:	fd5b1ee3          	bne	s6,s5,26e0 <modbusParseRequest1516+0x118>
    2708:	478d                	li	a5,3
    270a:	ca3e                	sw	a5,20(sp)
    270c:	4b01                	li	s6,0
    270e:	4d91                	li	s11,4
    2710:	016987b3          	add	a5,s3,s6
    2714:	00f11c23          	sh	a5,24(sp)
    2718:	05bd1663          	bne	s10,s11,2764 <modbusParseRequest1516+0x19c>
    271c:	003b5793          	srli	a5,s6,0x3
    2720:	07c2                	slli	a5,a5,0x10
    2722:	83c1                	srli	a5,a5,0x10
    2724:	97d2                	add	a5,a5,s4
    2726:	0067c783          	lbu	a5,6(a5)
    272a:	007b7713          	andi	a4,s6,7
    272e:	40e7d7b3          	sra	a5,a5,a4
    2732:	8b85                	andi	a5,a5,1
    2734:	00f11d23          	sh	a5,26(sp)
    2738:	401c                	lw	a5,0(s0)
    273a:	0030                	addi	a2,sp,8
    273c:	080c                	addi	a1,sp,16
    273e:	8522                	mv	a0,s0
    2740:	9782                	jalr	a5
    2742:	001b0793          	addi	a5,s6,1
    2746:	07c2                	slli	a5,a5,0x10
    2748:	83c1                	srli	a5,a5,0x10
    274a:	0c89                	addi	s9,s9,2
    274c:	016c1a63          	bne	s8,s6,2760 <modbusParseRequest1516+0x198>
    2750:	4595                	li	a1,5
    2752:	8522                	mv	a0,s0
    2754:	34ed                	jal	223e <modbusSlaveAllocateResponse>
    2756:	4781                	li	a5,0
    2758:	cd09                	beqz	a0,2772 <modbusParseRequest1516+0x1aa>
    275a:	0087e513          	ori	a0,a5,8
    275e:	bd61                	j	25f6 <modbusParseRequest1516+0x2e>
    2760:	8b3e                	mv	s6,a5
    2762:	b77d                	j	2710 <modbusParseRequest1516+0x148>
    2764:	000cc783          	lbu	a5,0(s9)
    2768:	001cc703          	lbu	a4,1(s9)
    276c:	07a2                	slli	a5,a5,0x8
    276e:	8fd9                	or	a5,a5,a4
    2770:	b7d1                	j	2734 <modbusParseRequest1516+0x16c>
    2772:	4c18                	lw	a4,24(s0)
    2774:	0089d993          	srli	s3,s3,0x8
    2778:	008ada93          	srli	s5,s5,0x8
    277c:	01770023          	sb	s7,0(a4)
    2780:	4c18                	lw	a4,24(s0)
    2782:	853e                	mv	a0,a5
    2784:	013700a3          	sb	s3,1(a4)
    2788:	01270123          	sb	s2,2(a4)
    278c:	4c18                	lw	a4,24(s0)
    278e:	015701a3          	sb	s5,3(a4)
    2792:	00970223          	sb	s1,4(a4)
    2796:	b585                	j	25f6 <modbusParseRequest1516+0x2e>

00002798 <modbusParseRequest22>:
    2798:	715d                	addi	sp,sp,-80
    279a:	c686                	sw	ra,76(sp)
    279c:	c4a2                	sw	s0,72(sp)
    279e:	c2a6                	sw	s1,68(sp)
    27a0:	c0ca                	sw	s2,64(sp)
    27a2:	de4e                	sw	s3,60(sp)
    27a4:	dc52                	sw	s4,56(sp)
    27a6:	da56                	sw	s5,52(sp)
    27a8:	d85a                	sw	s6,48(sp)
    27aa:	d65e                	sw	s7,44(sp)
    27ac:	d462                	sw	s8,40(sp)
    27ae:	d266                	sw	s9,36(sp)
    27b0:	d06a                	sw	s10,32(sp)
    27b2:	479d                	li	a5,7
    27b4:	02f68263          	beq	a3,a5,27d8 <modbusParseRequest22+0x40>
    27b8:	460d                	li	a2,3
    27ba:	34d5                	jal	229e <modbusBuildException>
    27bc:	40b6                	lw	ra,76(sp)
    27be:	4426                	lw	s0,72(sp)
    27c0:	4496                	lw	s1,68(sp)
    27c2:	4906                	lw	s2,64(sp)
    27c4:	59f2                	lw	s3,60(sp)
    27c6:	5a62                	lw	s4,56(sp)
    27c8:	5ad2                	lw	s5,52(sp)
    27ca:	5b42                	lw	s6,48(sp)
    27cc:	5bb2                	lw	s7,44(sp)
    27ce:	5c22                	lw	s8,40(sp)
    27d0:	5c92                	lw	s9,36(sp)
    27d2:	5d02                	lw	s10,32(sp)
    27d4:	6161                	addi	sp,sp,80
    27d6:	8082                	ret
    27d8:	00164a03          	lbu	s4,1(a2)
    27dc:	00264783          	lbu	a5,2(a2)
    27e0:	4c05                	li	s8,1
    27e2:	0a22                	slli	s4,s4,0x8
    27e4:	00fa6a33          	or	s4,s4,a5
    27e8:	0a42                	slli	s4,s4,0x10
    27ea:	410a5a13          	srai	s4,s4,0x10
    27ee:	010a1b93          	slli	s7,s4,0x10
    27f2:	411c                	lw	a5,0(a0)
    27f4:	010bdb93          	srli	s7,s7,0x10
    27f8:	8aae                	mv	s5,a1
    27fa:	00464d03          	lbu	s10,4(a2)
    27fe:	00364983          	lbu	s3,3(a2)
    2802:	00664c83          	lbu	s9,6(a2)
    2806:	00564903          	lbu	s2,5(a2)
    280a:	00b10e23          	sb	a1,28(sp)
    280e:	c862                	sw	s8,16(sp)
    2810:	ca02                	sw	zero,20(sp)
    2812:	01711c23          	sh	s7,24(sp)
    2816:	00011d23          	sh	zero,26(sp)
    281a:	0030                	addi	a2,sp,8
    281c:	080c                	addi	a1,sp,16
    281e:	84aa                	mv	s1,a0
    2820:	9782                	jalr	a5
    2822:	c119                	beqz	a0,2828 <modbusParseRequest22+0x90>
    2824:	4611                	li	a2,4
    2826:	a019                	j	282c <modbusParseRequest22+0x94>
    2828:	4622                	lw	a2,8(sp)
    282a:	c20d                	beqz	a2,284c <modbusParseRequest22+0xb4>
    282c:	85d6                	mv	a1,s5
    282e:	8526                	mv	a0,s1
    2830:	34bd                	jal	229e <modbusBuildException>
    2832:	842a                	mv	s0,a0
    2834:	00357793          	andi	a5,a0,3
    2838:	8109                	srli	a0,a0,0x2
    283a:	03f57513          	andi	a0,a0,63
    283e:	9871                	andi	s0,s0,-4
    2840:	8c5d                	or	s0,s0,a5
    2842:	050a                	slli	a0,a0,0x2
    2844:	f0347413          	andi	s0,s0,-253
    2848:	8d41                	or	a0,a0,s0
    284a:	bf8d                	j	27bc <modbusParseRequest22+0x24>
    284c:	4789                	li	a5,2
    284e:	ca3e                	sw	a5,20(sp)
    2850:	409c                	lw	a5,0(s1)
    2852:	09a2                	slli	s3,s3,0x8
    2854:	0030                	addi	a2,sp,8
    2856:	080c                	addi	a1,sp,16
    2858:	01a9e9b3          	or	s3,s3,s10
    285c:	8526                	mv	a0,s1
    285e:	9782                	jalr	a5
    2860:	09c2                	slli	s3,s3,0x10
    2862:	0922                	slli	s2,s2,0x8
    2864:	4109d993          	srai	s3,s3,0x10
    2868:	01996933          	or	s2,s2,s9
    286c:	00c15783          	lhu	a5,12(sp)
    2870:	01099b13          	slli	s6,s3,0x10
    2874:	0942                	slli	s2,s2,0x10
    2876:	010b5b13          	srli	s6,s6,0x10
    287a:	41095913          	srai	s2,s2,0x10
    287e:	fff9c713          	not	a4,s3
    2882:	00fb77b3          	and	a5,s6,a5
    2886:	00e97733          	and	a4,s2,a4
    288a:	8fd9                	or	a5,a5,a4
    288c:	00f11d23          	sh	a5,26(sp)
    2890:	409c                	lw	a5,0(s1)
    2892:	ca62                	sw	s8,20(sp)
    2894:	0030                	addi	a2,sp,8
    2896:	080c                	addi	a1,sp,16
    2898:	8526                	mv	a0,s1
    289a:	9782                	jalr	a5
    289c:	f541                	bnez	a0,2824 <modbusParseRequest22+0x8c>
    289e:	4622                	lw	a2,8(sp)
    28a0:	f651                	bnez	a2,282c <modbusParseRequest22+0x94>
    28a2:	478d                	li	a5,3
    28a4:	ca3e                	sw	a5,20(sp)
    28a6:	409c                	lw	a5,0(s1)
    28a8:	080c                	addi	a1,sp,16
    28aa:	0030                	addi	a2,sp,8
    28ac:	8526                	mv	a0,s1
    28ae:	9782                	jalr	a5
    28b0:	459d                	li	a1,7
    28b2:	8526                	mv	a0,s1
    28b4:	98bff0ef          	jal	ra,223e <modbusSlaveAllocateResponse>
    28b8:	ed0d                	bnez	a0,28f2 <modbusParseRequest22+0x15a>
    28ba:	4c9c                	lw	a5,24(s1)
    28bc:	008bdb93          	srli	s7,s7,0x8
    28c0:	008b5b13          	srli	s6,s6,0x8
    28c4:	01578023          	sb	s5,0(a5)
    28c8:	4c9c                	lw	a5,24(s1)
    28ca:	017780a3          	sb	s7,1(a5)
    28ce:	01478123          	sb	s4,2(a5)
    28d2:	4c9c                	lw	a5,24(s1)
    28d4:	016781a3          	sb	s6,3(a5)
    28d8:	01378223          	sb	s3,4(a5)
    28dc:	4c98                	lw	a4,24(s1)
    28de:	01091793          	slli	a5,s2,0x10
    28e2:	83c1                	srli	a5,a5,0x10
    28e4:	83a1                	srli	a5,a5,0x8
    28e6:	00f702a3          	sb	a5,5(a4)
    28ea:	01270323          	sb	s2,6(a4)
    28ee:	4781                	li	a5,0
    28f0:	b7b9                	j	283e <modbusParseRequest22+0xa6>
    28f2:	4509                	li	a0,2
    28f4:	bfed                	j	28ee <modbusParseRequest22+0x156>

000028f6 <modbusParseRequest>:
    28f6:	882e                	mv	a6,a1
    28f8:	00c54883          	lbu	a7,12(a0)
    28fc:	0005c583          	lbu	a1,0(a1)
    2900:	86b2                	mv	a3,a2
    2902:	4781                	li	a5,0
    2904:	01079713          	slli	a4,a5,0x10
    2908:	8341                	srli	a4,a4,0x10
    290a:	01176563          	bltu	a4,a7,2914 <modbusParseRequest+0x1e>
    290e:	4605                	li	a2,1
    2910:	98fff06f          	j	229e <modbusBuildException>
    2914:	4518                	lw	a4,8(a0)
    2916:	00379613          	slli	a2,a5,0x3
    291a:	0785                	addi	a5,a5,1
    291c:	9732                	add	a4,a4,a2
    291e:	00074603          	lbu	a2,0(a4)
    2922:	feb611e3          	bne	a2,a1,2904 <modbusParseRequest+0xe>
    2926:	00472303          	lw	t1,4(a4)
    292a:	8642                	mv	a2,a6
    292c:	8302                	jr	t1

0000292e <modbusParseRequestRTU>:
    292e:	ffc68793          	addi	a5,a3,-4
    2932:	07c2                	slli	a5,a5,0x10
    2934:	83c1                	srli	a5,a5,0x10
    2936:	0fc00713          	li	a4,252
    293a:	0cf76863          	bltu	a4,a5,2a0a <modbusParseRequestRTU+0xdc>
    293e:	1101                	addi	sp,sp,-32
    2940:	c452                	sw	s4,8(sp)
    2942:	ffe68a13          	addi	s4,a3,-2
    2946:	c64e                	sw	s3,12(sp)
    2948:	89ae                	mv	s3,a1
    294a:	010a1593          	slli	a1,s4,0x10
    294e:	cc22                	sw	s0,24(sp)
    2950:	ca26                	sw	s1,20(sp)
    2952:	c84a                	sw	s2,16(sp)
    2954:	ce06                	sw	ra,28(sp)
    2956:	c256                	sw	s5,4(sp)
    2958:	8932                	mv	s2,a2
    295a:	84aa                	mv	s1,a0
    295c:	81c1                	srli	a1,a1,0x10
    295e:	8532                	mv	a0,a2
    2960:	9a4a                	add	s4,s4,s2
    2962:	8436                	mv	s0,a3
    2964:	00064a83          	lbu	s5,0(a2)
    2968:	8ddff0ef          	jal	ra,2244 <modbusCRC>
    296c:	001a4783          	lbu	a5,1(s4)
    2970:	000a4703          	lbu	a4,0(s4)
    2974:	07a2                	slli	a5,a5,0x8
    2976:	8fd9                	or	a5,a5,a4
    2978:	08f51e63          	bne	a0,a5,2a14 <modbusParseRequestRTU+0xe6>
    297c:	000a8663          	beqz	s5,2988 <modbusParseRequestRTU+0x5a>
    2980:	02d00513          	li	a0,45
    2984:	03599f63          	bne	s3,s5,29c2 <modbusParseRequestRTU+0x94>
    2988:	10300793          	li	a5,259
    298c:	1475                	addi	s0,s0,-3
    298e:	00f49f23          	sh	a5,30(s1)
    2992:	0ff47613          	andi	a2,s0,255
    2996:	00190593          	addi	a1,s2,1
    299a:	8526                	mv	a0,s1
    299c:	3fa9                	jal	28f6 <modbusParseRequest>
    299e:	00357793          	andi	a5,a0,3
    29a2:	e385                	bnez	a5,29c2 <modbusParseRequestRTU+0x94>
    29a4:	00255793          	srli	a5,a0,0x2
    29a8:	03f7f793          	andi	a5,a5,63
    29ac:	eb99                	bnez	a5,29c2 <modbusParseRequestRTU+0x94>
    29ae:	01c4d783          	lhu	a5,28(s1)
    29b2:	4401                	li	s0,0
    29b4:	c791                	beqz	a5,29c0 <modbusParseRequestRTU+0x92>
    29b6:	000a9f63          	bnez	s5,29d4 <modbusParseRequestRTU+0xa6>
    29ba:	8526                	mv	a0,s1
    29bc:	8ddff0ef          	jal	ra,2298 <modbusSlaveDestroy>
    29c0:	8522                	mv	a0,s0
    29c2:	40f2                	lw	ra,28(sp)
    29c4:	4462                	lw	s0,24(sp)
    29c6:	44d2                	lw	s1,20(sp)
    29c8:	4942                	lw	s2,16(sp)
    29ca:	49b2                	lw	s3,12(sp)
    29cc:	4a22                	lw	s4,8(sp)
    29ce:	4a92                	lw	s5,4(sp)
    29d0:	6105                	addi	sp,sp,32
    29d2:	8082                	ret
    29d4:	ffc78713          	addi	a4,a5,-4
    29d8:	0742                	slli	a4,a4,0x10
    29da:	8341                	srli	a4,a4,0x10
    29dc:	0fc00693          	li	a3,252
    29e0:	00446513          	ori	a0,s0,4
    29e4:	fce6efe3          	bltu	a3,a4,29c2 <modbusParseRequestRTU+0x94>
    29e8:	48c8                	lw	a0,20(s1)
    29ea:	ffe78593          	addi	a1,a5,-2
    29ee:	00b504b3          	add	s1,a0,a1
    29f2:	05c2                	slli	a1,a1,0x10
    29f4:	01350023          	sb	s3,0(a0)
    29f8:	81c1                	srli	a1,a1,0x10
    29fa:	84bff0ef          	jal	ra,2244 <modbusCRC>
    29fe:	00a48023          	sb	a0,0(s1)
    2a02:	8121                	srli	a0,a0,0x8
    2a04:	00a480a3          	sb	a0,1(s1)
    2a08:	bf65                	j	29c0 <modbusParseRequestRTU+0x92>
    2a0a:	4505                	li	a0,1
    2a0c:	050a                	slli	a0,a0,0x2
    2a0e:	00156513          	ori	a0,a0,1
    2a12:	8082                	ret
    2a14:	4521                	li	a0,8
    2a16:	050a                	slli	a0,a0,0x2
    2a18:	00156513          	ori	a0,a0,1
    2a1c:	b75d                	j	29c2 <modbusParseRequestRTU+0x94>

00002a1e <modbusErrorStr>:
    2a1e:	47b1                	li	a5,12
    2a20:	00a7ea63          	bltu	a5,a0,2a34 <modbusErrorStr+0x16>
    2a24:	0000a797          	auipc	a5,0xa
    2a28:	c3478793          	addi	a5,a5,-972 # c658 <CSWTCH.34>
    2a2c:	050a                	slli	a0,a0,0x2
    2a2e:	953e                	add	a0,a0,a5
    2a30:	4108                	lw	a0,0(a0)
    2a32:	8082                	ret
    2a34:	0000a517          	auipc	a0,0xa
    2a38:	c5850513          	addi	a0,a0,-936 # c68c <CSWTCH.34+0x34>
    2a3c:	8082                	ret

00002a3e <modbus_slave_allocator>:
    2a3e:	e589                	bnez	a1,2a48 <modbus_slave_allocator+0xa>
    2a40:	00052223          	sw	zero,4(a0)
    2a44:	4501                	li	a0,0
    2a46:	8082                	ret
    2a48:	10000793          	li	a5,256
    2a4c:	00b7f663          	bgeu	a5,a1,2a58 <modbus_slave_allocator+0x1a>
    2a50:	00052223          	sw	zero,4(a0)
    2a54:	4509                	li	a0,2
    2a56:	8082                	ret
    2a58:	15860613          	addi	a2,a2,344
    2a5c:	c150                	sw	a2,4(a0)
    2a5e:	b7dd                	j	2a44 <modbus_slave_allocator+0x6>

00002a60 <register_callback>:
    2a60:	419c                	lw	a5,0(a1)
    2a62:	5108                	lw	a0,32(a0)
    2a64:	4709                	li	a4,2
    2a66:	00062023          	sw	zero,0(a2)
    2a6a:	00061223          	sh	zero,4(a2)
    2a6e:	02e78363          	beq	a5,a4,2a94 <register_callback+0x34>
    2a72:	00f76763          	bltu	a4,a5,2a80 <register_callback+0x20>
    2a76:	4705                	li	a4,1
    2a78:	00e78c63          	beq	a5,a4,2a90 <register_callback+0x30>
    2a7c:	4501                	li	a0,0
    2a7e:	8082                	ret
    2a80:	4711                	li	a4,4
    2a82:	00e78b63          	beq	a5,a4,2a98 <register_callback+0x38>
    2a86:	4721                	li	a4,8
    2a88:	fee79ae3          	bne	a5,a4,2a7c <register_callback+0x1c>
    2a8c:	871fe06f          	j	12fc <modbus_di_callback>
    2a90:	9a3fe06f          	j	1432 <modbus_reg_callback>
    2a94:	8e5fe06f          	j	1378 <modbus_ireg_callback>
    2a98:	803fe06f          	j	129a <modbus_coil_callback>

00002a9c <modbus_t05_cnt>:
    2a9c:	1141                	addi	sp,sp,-16
    2a9e:	6795                	lui	a5,0x5
    2aa0:	c606                	sw	ra,12(sp)
    2aa2:	c422                	sw	s0,8(sp)
    2aa4:	b0078793          	addi	a5,a5,-1280 # 4b00 <GPIOA_ModeCfg+0x8a>
    2aa8:	00a7ee63          	bltu	a5,a0,2ac4 <modbus_t05_cnt+0x28>
    2aac:	842a                	mv	s0,a0
    2aae:	114020ef          	jal	ra,4bc2 <GetSysClock>
    2ab2:	4795                	li	a5,5
    2ab4:	02f50533          	mul	a0,a0,a5
    2ab8:	02855533          	divu	a0,a0,s0
    2abc:	40b2                	lw	ra,12(sp)
    2abe:	4422                	lw	s0,8(sp)
    2ac0:	0141                	addi	sp,sp,16
    2ac2:	8082                	ret
    2ac4:	0fe020ef          	jal	ra,4bc2 <GetSysClock>
    2ac8:	000f47b7          	lui	a5,0xf4
    2acc:	24078793          	addi	a5,a5,576 # f4240 <_data_lma+0xe6b30>
    2ad0:	02f55533          	divu	a0,a0,a5
    2ad4:	2ee00793          	li	a5,750
    2ad8:	02f50533          	mul	a0,a0,a5
    2adc:	b7c5                	j	2abc <modbus_t05_cnt+0x20>

00002ade <slave_recv>:
    2ade:	1141                	addi	sp,sp,-16
    2ae0:	c04a                	sw	s2,0(sp)
    2ae2:	c606                	sw	ra,12(sp)
    2ae4:	c422                	sw	s0,8(sp)
    2ae6:	c226                	sw	s1,4(sp)
    2ae8:	400027b7          	lui	a5,0x40002
    2aec:	0007c703          	lbu	a4,0(a5) # 40002000 <_eusrstack+0x1fffa000>
    2af0:	4901                	li	s2,0
    2af2:	8b11                	andi	a4,a4,4
    2af4:	cb01                	beqz	a4,2b04 <slave_recv+0x26>
    2af6:	0007c703          	lbu	a4,0(a5)
    2afa:	4905                	li	s2,1
    2afc:	0fb77713          	andi	a4,a4,251
    2b00:	00e78023          	sb	a4,0(a5)
    2b04:	b4018413          	addi	s0,gp,-1216 # 20001428 <mb_slave_ctx>
    2b08:	487c                	lw	a5,84(s0)
    2b0a:	10000493          	li	s1,256
    2b0e:	8c9d                	sub	s1,s1,a5
    2b10:	00967363          	bgeu	a2,s1,2b16 <slave_recv+0x38>
    2b14:	84b2                	mv	s1,a2
    2b16:	4034                	lw	a3,64(s0)
    2b18:	4709                	li	a4,2
    2b1a:	06e68663          	beq	a3,a4,2b86 <slave_recv+0xa8>
    2b1e:	04e6e563          	bltu	a3,a4,2b68 <slave_recv+0x8a>
    2b22:	478d                	li	a5,3
    2b24:	06f68863          	beq	a3,a5,2b94 <slave_recv+0xb6>
    2b28:	00090663          	beqz	s2,2b34 <slave_recv+0x56>
    2b2c:	5408                	lw	a0,40(s0)
    2b2e:	37bd                	jal	2a9c <modbus_t05_cnt>
    2b30:	0fc020ef          	jal	ra,4c2c <TMR0_TimerInit>
    2b34:	4878                	lw	a4,84(s0)
    2b36:	4785                	li	a5,1
    2b38:	02f71163          	bne	a4,a5,2b5a <slave_recv+0x7c>
    2b3c:	400027b7          	lui	a5,0x40002
    2b40:	0007c783          	lbu	a5,0(a5) # 40002000 <_eusrstack+0x1fffa000>
    2b44:	8b91                	andi	a5,a5,4
    2b46:	e789                	bnez	a5,2b50 <slave_recv+0x72>
    2b48:	5408                	lw	a0,40(s0)
    2b4a:	3f89                	jal	2a9c <modbus_t05_cnt>
    2b4c:	0e0020ef          	jal	ra,4c2c <TMR0_TimerInit>
    2b50:	8211c783          	lbu	a5,-2015(gp) # 20001109 <mb_timer_ref>
    2b54:	0785                	addi	a5,a5,1
    2b56:	82f180a3          	sb	a5,-2015(gp) # 20001109 <mb_timer_ref>
    2b5a:	40b2                	lw	ra,12(sp)
    2b5c:	4422                	lw	s0,8(sp)
    2b5e:	4492                	lw	s1,4(sp)
    2b60:	4902                	lw	s2,0(sp)
    2b62:	4501                	li	a0,0
    2b64:	0141                	addi	sp,sp,16
    2b66:	8082                	ret
    2b68:	b601a623          	sw	zero,-1172(gp) # 20001454 <mb_slave_ctx+0x2c>
    2b6c:	b8e1a023          	sw	a4,-1152(gp) # 20001468 <mb_slave_ctx+0x40>
    2b70:	b9818513          	addi	a0,gp,-1128 # 20001480 <mb_slave_ctx+0x58>
    2b74:	8626                	mv	a2,s1
    2b76:	953e                	add	a0,a0,a5
    2b78:	528020ef          	jal	ra,50a0 <memcpy>
    2b7c:	487c                	lw	a5,84(s0)
    2b7e:	94be                	add	s1,s1,a5
    2b80:	b891aa23          	sw	s1,-1132(gp) # 2000147c <mb_slave_ctx+0x54>
    2b84:	b755                	j	2b28 <slave_recv+0x4a>
    2b86:	b601a623          	sw	zero,-1172(gp) # 20001454 <mb_slave_ctx+0x2c>
    2b8a:	0ff00713          	li	a4,255
    2b8e:	f8f74de3          	blt	a4,a5,2b28 <slave_recv+0x4a>
    2b92:	bff9                	j	2b70 <slave_recv+0x92>
    2b94:	b601a623          	sw	zero,-1172(gp) # 20001454 <mb_slave_ctx+0x2c>
    2b98:	4785                	li	a5,1
    2b9a:	b6f18823          	sb	a5,-1168(gp) # 20001458 <mb_slave_ctx+0x30>
    2b9e:	b769                	j	2b28 <slave_recv+0x4a>

00002ba0 <modbus_slave_uart_init>:
    2ba0:	7139                	addi	sp,sp,-64
    2ba2:	dc22                	sw	s0,56(sp)
    2ba4:	02000613          	li	a2,32
    2ba8:	842a                	mv	s0,a0
    2baa:	4581                	li	a1,0
    2bac:	0028                	addi	a0,sp,8
    2bae:	de06                	sw	ra,60(sp)
    2bb0:	80afe0ef          	jal	ra,bba <memset>
    2bb4:	47a1                	li	a5,8
    2bb6:	00f10823          	sb	a5,16(sp)
    2bba:	541c                	lw	a5,40(s0)
    2bbc:	002c                	addi	a1,sp,8
    2bbe:	450d                	li	a0,3
    2bc0:	c63e                	sw	a5,12(sp)
    2bc2:	00000797          	auipc	a5,0x0
    2bc6:	f1c78793          	addi	a5,a5,-228 # 2ade <slave_recv>
    2bca:	d622                	sw	s0,44(sp)
    2bcc:	d43e                	sw	a5,40(sp)
    2bce:	2fd010ef          	jal	ra,46ca <uart_init>
    2bd2:	50f2                	lw	ra,60(sp)
    2bd4:	5462                	lw	s0,56(sp)
    2bd6:	4501                	li	a0,0
    2bd8:	6121                	addi	sp,sp,64
    2bda:	8082                	ret

00002bdc <modbus_slave_uart_send>:
    2bdc:	57fd                	li	a5,-1
    2bde:	cd19                	beqz	a0,2bfc <modbus_slave_uart_send+0x20>
    2be0:	00b05e63          	blez	a1,2bfc <modbus_slave_uart_send+0x20>
    2be4:	1141                	addi	sp,sp,-16
    2be6:	862e                	mv	a2,a1
    2be8:	85aa                	mv	a1,a0
    2bea:	450d                	li	a0,3
    2bec:	c606                	sw	ra,12(sp)
    2bee:	483010ef          	jal	ra,4870 <uart_send>
    2bf2:	40b2                	lw	ra,12(sp)
    2bf4:	4781                	li	a5,0
    2bf6:	853e                	mv	a0,a5
    2bf8:	0141                	addi	sp,sp,16
    2bfa:	8082                	ret
    2bfc:	853e                	mv	a0,a5
    2bfe:	8082                	ret

00002c00 <modbus_slave_init>:
    2c00:	1101                	addi	sp,sp,-32
    2c02:	cc22                	sw	s0,24(sp)
    2c04:	ca26                	sw	s1,20(sp)
    2c06:	842a                	mv	s0,a0
    2c08:	4485                	li	s1,1
    2c0a:	0028                	addi	a0,sp,8
    2c0c:	ce06                	sw	ra,28(sp)
    2c0e:	c402                	sw	zero,8(sp)
    2c10:	c602                	sw	zero,12(sp)
    2c12:	009103a3          	sb	s1,7(sp)
    2c16:	aeeff0ef          	jal	ra,1f04 <cfg_get_mb_uart>
    2c1a:	00710513          	addi	a0,sp,7
    2c1e:	b8cff0ef          	jal	ra,1faa <cfg_get_mb_addr>
    2c22:	00714783          	lbu	a5,7(sp)
    2c26:	e399                	bnez	a5,2c2c <modbus_slave_init+0x2c>
    2c28:	009103a3          	sb	s1,7(sp)
    2c2c:	46a2                	lw	a3,8(sp)
    2c2e:	00714603          	lbu	a2,7(sp)
    2c32:	0000a597          	auipc	a1,0xa
    2c36:	db258593          	addi	a1,a1,-590 # c9e4 <CSWTCH.34+0x38c>
    2c3a:	0000a517          	auipc	a0,0xa
    2c3e:	dae50513          	addi	a0,a0,-594 # c9e8 <CSWTCH.34+0x390>
    2c42:	502030ef          	jal	ra,6144 <iprintf>
    2c46:	26000613          	li	a2,608
    2c4a:	4581                	li	a1,0
    2c4c:	b4018513          	addi	a0,gp,-1216 # 20001428 <mb_slave_ctx>
    2c50:	f6bfd0ef          	jal	ra,bba <memset>
    2c54:	00714783          	lbu	a5,7(sp)
    2c58:	b6f18223          	sb	a5,-1180(gp) # 2000144c <mb_slave_ctx+0x24>
    2c5c:	47a2                	lw	a5,8(sp)
    2c5e:	b6f1a423          	sw	a5,-1176(gp) # 20001450 <mb_slave_ctx+0x28>
    2c62:	00000797          	auipc	a5,0x0
    2c66:	dfe78793          	addi	a5,a5,-514 # 2a60 <register_callback>
    2c6a:	b4f1a023          	sw	a5,-1216(gp) # 20001428 <mb_slave_ctx>
    2c6e:	c419                	beqz	s0,2c7c <modbus_slave_init+0x7c>
    2c70:	4641                	li	a2,16
    2c72:	85a2                	mv	a1,s0
    2c74:	b8418513          	addi	a0,gp,-1148 # 2000146c <mb_slave_ctx+0x44>
    2c78:	428020ef          	jal	ra,50a0 <memcpy>
    2c7c:	b4018413          	addi	s0,gp,-1216 # 20001428 <mb_slave_ctx>
    2c80:	0000b797          	auipc	a5,0xb
    2c84:	a887c783          	lbu	a5,-1400(a5) # d708 <modbusSlaveDefaultFunctionCount>
    2c88:	1fffe717          	auipc	a4,0x1fffe
    2c8c:	05470713          	addi	a4,a4,84 # 20000cdc <modbusSlaveDefaultFunctions>
    2c90:	00000697          	auipc	a3,0x0
    2c94:	dae68693          	addi	a3,a3,-594 # 2a3e <modbus_slave_allocator>
    2c98:	4601                	li	a2,0
    2c9a:	00000597          	auipc	a1,0x0
    2c9e:	dc658593          	addi	a1,a1,-570 # 2a60 <register_callback>
    2ca2:	8522                	mv	a0,s0
    2ca4:	de0ff0ef          	jal	ra,2284 <modbusSlaveInit>
    2ca8:	00357793          	andi	a5,a0,3
    2cac:	c799                	beqz	a5,2cba <modbus_slave_init+0xba>
    2cae:	557d                	li	a0,-1
    2cb0:	40f2                	lw	ra,28(sp)
    2cb2:	4462                	lw	s0,24(sp)
    2cb4:	44d2                	lw	s1,20(sp)
    2cb6:	6105                	addi	sp,sp,32
    2cb8:	8082                	ret
    2cba:	8109                	srli	a0,a0,0x2
    2cbc:	03f57793          	andi	a5,a0,63
    2cc0:	557d                	li	a0,-1
    2cc2:	f7fd                	bnez	a5,2cb0 <modbus_slave_init+0xb0>
    2cc4:	8522                	mv	a0,s0
    2cc6:	b681a023          	sw	s0,-1184(gp) # 20001448 <mb_slave_ctx+0x20>
    2cca:	3dd9                	jal	2ba0 <modbus_slave_uart_init>
    2ccc:	4501                	li	a0,0
    2cce:	b7cd                	j	2cb0 <modbus_slave_init+0xb0>

00002cd0 <modbus_sa_ctrl>:
    2cd0:	00a037b3          	snez	a5,a0
    2cd4:	b6f188a3          	sb	a5,-1167(gp) # 20001459 <mb_slave_ctx+0x31>
    2cd8:	cd09                	beqz	a0,2cf2 <modbus_sa_ctrl+0x22>
    2cda:	1141                	addi	sp,sp,-16
    2cdc:	c606                	sw	ra,12(sp)
    2cde:	577010ef          	jal	ra,4a54 <worktime_get>
    2ce2:	40b2                	lw	ra,12(sp)
    2ce4:	b4018793          	addi	a5,gp,-1216 # 20001428 <mb_slave_ctx>
    2ce8:	df88                	sw	a0,56(a5)
    2cea:	dfcc                	sw	a1,60(a5)
    2cec:	4501                	li	a0,0
    2cee:	0141                	addi	sp,sp,16
    2cf0:	8082                	ret
    2cf2:	4501                	li	a0,0
    2cf4:	8082                	ret

00002cf6 <modbus_init>:
    2cf6:	1101                	addi	sp,sp,-32
    2cf8:	ce06                	sw	ra,28(sp)
    2cfa:	c62a                	sw	a0,12(sp)
    2cfc:	820180a3          	sb	zero,-2015(gp) # 20001109 <mb_timer_ref>
    2d00:	8abfe0ef          	jal	ra,15aa <modbus_regs_init>
    2d04:	4532                	lw	a0,12(sp)
    2d06:	3ded                	jal	2c00 <modbus_slave_init>
    2d08:	00055e63          	bgez	a0,2d24 <modbus_init+0x2e>
    2d0c:	40f2                	lw	ra,28(sp)
    2d0e:	0000a597          	auipc	a1,0xa
    2d12:	cd658593          	addi	a1,a1,-810 # c9e4 <CSWTCH.34+0x38c>
    2d16:	0000a517          	auipc	a0,0xa
    2d1a:	cb250513          	addi	a0,a0,-846 # c9c8 <CSWTCH.34+0x370>
    2d1e:	6105                	addi	sp,sp,32
    2d20:	4240306f          	j	6144 <iprintf>
    2d24:	400027b7          	lui	a5,0x40002
    2d28:	0027c703          	lbu	a4,2(a5) # 40002002 <_eusrstack+0x1fffa002>
    2d2c:	66c1                	lui	a3,0x10
    2d2e:	00176713          	ori	a4,a4,1
    2d32:	00e78123          	sb	a4,2(a5)
    2d36:	e000e737          	lui	a4,0xe000e
    2d3a:	10d72023          	sw	a3,256(a4) # e000e100 <_eusrstack+0xc0006100>
    2d3e:	0007c703          	lbu	a4,0(a5)
    2d42:	0fb77713          	andi	a4,a4,251
    2d46:	00e78023          	sb	a4,0(a5)
    2d4a:	40f2                	lw	ra,28(sp)
    2d4c:	6105                	addi	sp,sp,32
    2d4e:	8082                	ret

00002d50 <modbus_frame_check>:
    2d50:	1141                	addi	sp,sp,-16
    2d52:	c422                	sw	s0,8(sp)
    2d54:	b4018413          	addi	s0,gp,-1216 # 20001428 <mb_slave_ctx>
    2d58:	4038                	lw	a4,64(s0)
    2d5a:	c606                	sw	ra,12(sp)
    2d5c:	c226                	sw	s1,4(sp)
    2d5e:	4791                	li	a5,4
    2d60:	08f71f63          	bne	a4,a5,2dfe <modbus_frame_check+0xae>
    2d64:	4f1010ef          	jal	ra,4a54 <worktime_get>
    2d68:	3e800613          	li	a2,1000
    2d6c:	4681                	li	a3,0
    2d6e:	72b010ef          	jal	ra,4c98 <__udivdi3>
    2d72:	d8a1ac23          	sw	a0,-616(gp) # 20001680 <mb_slave_ctx+0x258>
    2d76:	b701c783          	lbu	a5,-1168(gp) # 20001458 <mb_slave_ctx+0x30>
    2d7a:	e7d9                	bnez	a5,2e08 <modbus_frame_check+0xb8>
    2d7c:	05445683          	lhu	a3,84(s0)
    2d80:	b9818613          	addi	a2,gp,-1128 # 20001480 <mb_slave_ctx+0x58>
    2d84:	b641c583          	lbu	a1,-1180(gp) # 2000144c <mb_slave_ctx+0x24>
    2d88:	8522                	mv	a0,s0
    2d8a:	3655                	jal	292e <modbusParseRequestRTU>
    2d8c:	8109                	srli	a0,a0,0x2
    2d8e:	03f57493          	andi	s1,a0,63
    2d92:	e499                	bnez	s1,2da0 <modbus_frame_check+0x50>
    2d94:	b5c1d583          	lhu	a1,-1188(gp) # 20001444 <mb_slave_ctx+0x1c>
    2d98:	c9b1                	beqz	a1,2dec <modbus_frame_check+0x9c>
    2d9a:	4848                	lw	a0,20(s0)
    2d9c:	3581                	jal	2bdc <modbus_slave_uart_send>
    2d9e:	a0b9                	j	2dec <modbus_frame_check+0x9c>
    2da0:	8526                	mv	a0,s1
    2da2:	39b5                	jal	2a1e <modbusErrorStr>
    2da4:	86aa                	mv	a3,a0
    2da6:	8626                	mv	a2,s1
    2da8:	0000a597          	auipc	a1,0xa
    2dac:	c3c58593          	addi	a1,a1,-964 # c9e4 <CSWTCH.34+0x38c>
    2db0:	0000a517          	auipc	a0,0xa
    2db4:	bd450513          	addi	a0,a0,-1068 # c984 <CSWTCH.34+0x32c>
    2db8:	38c030ef          	jal	ra,6144 <iprintf>
    2dbc:	0000a597          	auipc	a1,0xa
    2dc0:	c2858593          	addi	a1,a1,-984 # c9e4 <CSWTCH.34+0x38c>
    2dc4:	0000a517          	auipc	a0,0xa
    2dc8:	be450513          	addi	a0,a0,-1052 # c9a8 <CSWTCH.34+0x350>
    2dcc:	378030ef          	jal	ra,6144 <iprintf>
    2dd0:	05445603          	lhu	a2,84(s0)
    2dd4:	4691                	li	a3,4
    2dd6:	b9818593          	addi	a1,gp,-1128 # 20001480 <mb_slave_ctx+0x58>
    2dda:	0000a517          	auipc	a0,0xa
    2dde:	c0a50513          	addi	a0,a0,-1014 # c9e4 <CSWTCH.34+0x38c>
    2de2:	be2fe0ef          	jal	ra,11c4 <log_buffer_hex>
    2de6:	47ad                	li	a5,11
    2de8:	faf496e3          	bne	s1,a5,2d94 <modbus_frame_check+0x44>
    2dec:	b6018823          	sb	zero,-1168(gp) # 20001458 <mb_slave_ctx+0x30>
    2df0:	b601a623          	sw	zero,-1172(gp) # 20001454 <mb_slave_ctx+0x2c>
    2df4:	b801aa23          	sw	zero,-1132(gp) # 2000147c <mb_slave_ctx+0x54>
    2df8:	4785                	li	a5,1
    2dfa:	b8f1a023          	sw	a5,-1152(gp) # 20001468 <mb_slave_ctx+0x40>
    2dfe:	40b2                	lw	ra,12(sp)
    2e00:	4422                	lw	s0,8(sp)
    2e02:	4492                	lw	s1,4(sp)
    2e04:	0141                	addi	sp,sp,16
    2e06:	8082                	ret
    2e08:	0000a517          	auipc	a0,0xa
    2e0c:	bac50513          	addi	a0,a0,-1108 # c9b4 <CSWTCH.34+0x35c>
    2e10:	334030ef          	jal	ra,6144 <iprintf>
    2e14:	bfe1                	j	2dec <modbus_frame_check+0x9c>

00002e16 <modbus_run>:
    2e16:	b711c783          	lbu	a5,-1167(gp) # 20001459 <mb_slave_ctx+0x31>
    2e1a:	cb85                	beqz	a5,2e4a <modbus_run+0x34>
    2e1c:	b4018793          	addi	a5,gp,-1216 # 20001428 <mb_slave_ctx>
    2e20:	5f88                	lw	a0,56(a5)
    2e22:	5fcc                	lw	a1,60(a5)
    2e24:	1141                	addi	sp,sp,-16
    2e26:	c606                	sw	ra,12(sp)
    2e28:	437010ef          	jal	ra,4a5e <worktime_since>
    2e2c:	e591                	bnez	a1,2e38 <modbus_run+0x22>
    2e2e:	6785                	lui	a5,0x1
    2e30:	bb778793          	addi	a5,a5,-1097 # bb7 <handle_reset+0xa7>
    2e34:	00a7f963          	bgeu	a5,a0,2e46 <modbus_run+0x30>
    2e38:	4581                	li	a1,0
    2e3a:	08600513          	li	a0,134
    2e3e:	b60188a3          	sb	zero,-1167(gp) # 20001459 <mb_slave_ctx+0x31>
    2e42:	d76fe0ef          	jal	ra,13b8 <modbus_reg_update>
    2e46:	40b2                	lw	ra,12(sp)
    2e48:	0141                	addi	sp,sp,16
    2e4a:	b719                	j	2d50 <modbus_frame_check>

00002e4c <OLED_WR_Byte>:
    2e4c:	40001737          	lui	a4,0x40001
    2e50:	cda5                	beqz	a1,2ec8 <OLED_WR_Byte+0x7c>
    2e52:	0c872783          	lw	a5,200(a4) # 400010c8 <_eusrstack+0x1fff90c8>
    2e56:	0087e793          	ori	a5,a5,8
    2e5a:	0cf72423          	sw	a5,200(a4)
    2e5e:	40001737          	lui	a4,0x40001
    2e62:	0cc72783          	lw	a5,204(a4) # 400010cc <_eusrstack+0x1fff90cc>
    2e66:	0107e793          	ori	a5,a5,16
    2e6a:	0cf72623          	sw	a5,204(a4)
    2e6e:	4721                	li	a4,8
    2e70:	400017b7          	lui	a5,0x40001
    2e74:	0cc7a683          	lw	a3,204(a5) # 400010cc <_eusrstack+0x1fff90cc>
    2e78:	0016e693          	ori	a3,a3,1
    2e7c:	0cd7a623          	sw	a3,204(a5)
    2e80:	01851693          	slli	a3,a0,0x18
    2e84:	86e1                	srai	a3,a3,0x18
    2e86:	0406d863          	bgez	a3,2ed6 <OLED_WR_Byte+0x8a>
    2e8a:	0c87a683          	lw	a3,200(a5)
    2e8e:	0026e693          	ori	a3,a3,2
    2e92:	0cd7a423          	sw	a3,200(a5)
    2e96:	0c87a603          	lw	a2,200(a5)
    2e9a:	177d                	addi	a4,a4,-1
    2e9c:	0506                	slli	a0,a0,0x1
    2e9e:	00166613          	ori	a2,a2,1
    2ea2:	0cc7a423          	sw	a2,200(a5)
    2ea6:	0ff77713          	andi	a4,a4,255
    2eaa:	0c878693          	addi	a3,a5,200
    2eae:	0ff57513          	andi	a0,a0,255
    2eb2:	f369                	bnez	a4,2e74 <OLED_WR_Byte+0x28>
    2eb4:	0c87a783          	lw	a5,200(a5)
    2eb8:	0107e793          	ori	a5,a5,16
    2ebc:	c29c                	sw	a5,0(a3)
    2ebe:	429c                	lw	a5,0(a3)
    2ec0:	0087e793          	ori	a5,a5,8
    2ec4:	c29c                	sw	a5,0(a3)
    2ec6:	8082                	ret
    2ec8:	0cc72783          	lw	a5,204(a4)
    2ecc:	0087e793          	ori	a5,a5,8
    2ed0:	0cf72623          	sw	a5,204(a4)
    2ed4:	b769                	j	2e5e <OLED_WR_Byte+0x12>
    2ed6:	0cc7a683          	lw	a3,204(a5)
    2eda:	0026e693          	ori	a3,a3,2
    2ede:	0cd7a623          	sw	a3,204(a5)
    2ee2:	bf55                	j	2e96 <OLED_WR_Byte+0x4a>

00002ee4 <OLED_Refresh>:
    2ee4:	8221c783          	lbu	a5,-2014(gp) # 2000110a <flag_refresh>
    2ee8:	c7bd                	beqz	a5,2f56 <OLED_Refresh+0x72>
    2eea:	1101                	addi	sp,sp,-32
    2eec:	cc22                	sw	s0,24(sp)
    2eee:	c84a                	sw	s2,16(sp)
    2ef0:	c452                	sw	s4,8(sp)
    2ef2:	c256                	sw	s5,4(sp)
    2ef4:	ce06                	sw	ra,28(sp)
    2ef6:	ca26                	sw	s1,20(sp)
    2ef8:	c64e                	sw	s3,12(sp)
    2efa:	da018913          	addi	s2,gp,-608 # 20001688 <OLED_GRAM>
    2efe:	0b000413          	li	s0,176
    2f02:	08000a93          	li	s5,128
    2f06:	0b800a13          	li	s4,184
    2f0a:	4581                	li	a1,0
    2f0c:	8522                	mv	a0,s0
    2f0e:	3f3d                	jal	2e4c <OLED_WR_Byte>
    2f10:	4581                	li	a1,0
    2f12:	4501                	li	a0,0
    2f14:	3f25                	jal	2e4c <OLED_WR_Byte>
    2f16:	4581                	li	a1,0
    2f18:	4541                	li	a0,16
    2f1a:	3f0d                	jal	2e4c <OLED_WR_Byte>
    2f1c:	89ca                	mv	s3,s2
    2f1e:	4481                	li	s1,0
    2f20:	0009c503          	lbu	a0,0(s3)
    2f24:	0485                	addi	s1,s1,1
    2f26:	4585                	li	a1,1
    2f28:	0ff4f493          	andi	s1,s1,255
    2f2c:	3705                	jal	2e4c <OLED_WR_Byte>
    2f2e:	09a1                	addi	s3,s3,8
    2f30:	ff5498e3          	bne	s1,s5,2f20 <OLED_Refresh+0x3c>
    2f34:	0405                	addi	s0,s0,1
    2f36:	0ff47413          	andi	s0,s0,255
    2f3a:	0905                	addi	s2,s2,1
    2f3c:	fd4417e3          	bne	s0,s4,2f0a <OLED_Refresh+0x26>
    2f40:	40f2                	lw	ra,28(sp)
    2f42:	4462                	lw	s0,24(sp)
    2f44:	82018123          	sb	zero,-2014(gp) # 2000110a <flag_refresh>
    2f48:	44d2                	lw	s1,20(sp)
    2f4a:	4942                	lw	s2,16(sp)
    2f4c:	49b2                	lw	s3,12(sp)
    2f4e:	4a22                	lw	s4,8(sp)
    2f50:	4a92                	lw	s5,4(sp)
    2f52:	6105                	addi	sp,sp,32
    2f54:	8082                	ret
    2f56:	8082                	ret

00002f58 <OLED_Clear>:
    2f58:	4701                	li	a4,0
    2f5a:	da018613          	addi	a2,gp,-608 # 20001688 <OLED_GRAM>
    2f5e:	08000593          	li	a1,128
    2f62:	4521                	li	a0,8
    2f64:	00e606b3          	add	a3,a2,a4
    2f68:	4781                	li	a5,0
    2f6a:	0785                	addi	a5,a5,1
    2f6c:	00068023          	sb	zero,0(a3) # 10000 <_data_lma+0x28f0>
    2f70:	0ff7f793          	andi	a5,a5,255
    2f74:	06a1                	addi	a3,a3,8
    2f76:	feb79ae3          	bne	a5,a1,2f6a <OLED_Clear+0x12>
    2f7a:	0705                	addi	a4,a4,1
    2f7c:	fea714e3          	bne	a4,a0,2f64 <OLED_Clear+0xc>
    2f80:	4785                	li	a5,1
    2f82:	82f18123          	sb	a5,-2014(gp) # 2000110a <flag_refresh>
    2f86:	bfb9                	j	2ee4 <OLED_Refresh>

00002f88 <OLED_DrawPoint>:
    2f88:	01851793          	slli	a5,a0,0x18
    2f8c:	87e1                	srai	a5,a5,0x18
    2f8e:	0207cd63          	bltz	a5,2fc8 <OLED_DrawPoint+0x40>
    2f92:	03f00793          	li	a5,63
    2f96:	02b7e963          	bltu	a5,a1,2fc8 <OLED_DrawPoint+0x40>
    2f9a:	0075f713          	andi	a4,a1,7
    2f9e:	4785                	li	a5,1
    2fa0:	00e797b3          	sll	a5,a5,a4
    2fa4:	050e                	slli	a0,a0,0x3
    2fa6:	0035d713          	srli	a4,a1,0x3
    2faa:	da018593          	addi	a1,gp,-608 # 20001688 <OLED_GRAM>
    2fae:	95aa                	add	a1,a1,a0
    2fb0:	95ba                	add	a1,a1,a4
    2fb2:	0ff7f793          	andi	a5,a5,255
    2fb6:	0005c703          	lbu	a4,0(a1)
    2fba:	ca01                	beqz	a2,2fca <OLED_DrawPoint+0x42>
    2fbc:	8fd9                	or	a5,a5,a4
    2fbe:	00f58023          	sb	a5,0(a1)
    2fc2:	4785                	li	a5,1
    2fc4:	82f18123          	sb	a5,-2014(gp) # 2000110a <flag_refresh>
    2fc8:	8082                	ret
    2fca:	fff7c793          	not	a5,a5
    2fce:	8ff9                	and	a5,a5,a4
    2fd0:	b7fd                	j	2fbe <OLED_DrawPoint+0x36>

00002fd2 <OLED_ShowPicture>:
    2fd2:	715d                	addi	sp,sp,-80
    2fd4:	dc52                	sw	s4,56(sp)
    2fd6:	0036da13          	srli	s4,a3,0x3
    2fda:	8a9d                	andi	a3,a3,7
    2fdc:	00d036b3          	snez	a3,a3
    2fe0:	d85a                	sw	s6,48(sp)
    2fe2:	d65e                	sw	s7,44(sp)
    2fe4:	8b3e                	mv	s6,a5
    2fe6:	01061b93          	slli	s7,a2,0x10
    2fea:	00da07b3          	add	a5,s4,a3
    2fee:	c23e                	sw	a5,4(sp)
    2ff0:	010bdb93          	srli	s7,s7,0x10
    2ff4:	001b3793          	seqz	a5,s6
    2ff8:	c2a6                	sw	s1,68(sp)
    2ffa:	de4e                	sw	s3,60(sp)
    2ffc:	da56                	sw	s5,52(sp)
    2ffe:	d266                	sw	s9,36(sp)
    3000:	d06a                	sw	s10,32(sp)
    3002:	ce6e                	sw	s11,28(sp)
    3004:	c686                	sw	ra,76(sp)
    3006:	c4a2                	sw	s0,72(sp)
    3008:	c0ca                	sw	s2,64(sp)
    300a:	d462                	sw	s8,40(sp)
    300c:	8daa                	mv	s11,a0
    300e:	8d2e                	mv	s10,a1
    3010:	8ab2                	mv	s5,a2
    3012:	89de                	mv	s3,s7
    3014:	84aa                	mv	s1,a0
    3016:	4c81                	li	s9,0
    3018:	c43e                	sw	a5,8(sp)
    301a:	4792                	lw	a5,4(sp)
    301c:	41798433          	sub	s0,s3,s7
    3020:	0442                	slli	s0,s0,0x10
    3022:	8041                	srli	s0,s0,0x10
    3024:	06fc9663          	bne	s9,a5,3090 <OLED_ShowPicture+0xbe>
    3028:	40b6                	lw	ra,76(sp)
    302a:	4426                	lw	s0,72(sp)
    302c:	4496                	lw	s1,68(sp)
    302e:	4906                	lw	s2,64(sp)
    3030:	59f2                	lw	s3,60(sp)
    3032:	5a62                	lw	s4,56(sp)
    3034:	5ad2                	lw	s5,52(sp)
    3036:	5b42                	lw	s6,48(sp)
    3038:	5bb2                	lw	s7,44(sp)
    303a:	5c22                	lw	s8,40(sp)
    303c:	5c92                	lw	s9,36(sp)
    303e:	5d02                	lw	s10,32(sp)
    3040:	4df2                	lw	s11,28(sp)
    3042:	6161                	addi	sp,sp,80
    3044:	8082                	ret
    3046:	008707b3          	add	a5,a4,s0
    304a:	0405                	addi	s0,s0,1
    304c:	0007ca03          	lbu	s4,0(a5)
    3050:	0442                	slli	s0,s0,0x10
    3052:	008d0793          	addi	a5,s10,8
    3056:	8041                	srli	s0,s0,0x10
    3058:	0ff7fc13          	andi	s8,a5,255
    305c:	896a                	mv	s2,s10
    305e:	001a7613          	andi	a2,s4,1
    3062:	c63a                	sw	a4,12(sp)
    3064:	c221                	beqz	a2,30a4 <OLED_ShowPicture+0xd2>
    3066:	865a                	mv	a2,s6
    3068:	85ca                	mv	a1,s2
    306a:	8526                	mv	a0,s1
    306c:	0905                	addi	s2,s2,1
    306e:	3f29                	jal	2f88 <OLED_DrawPoint>
    3070:	0ff97913          	andi	s2,s2,255
    3074:	4732                	lw	a4,12(sp)
    3076:	001a5a13          	srli	s4,s4,0x1
    307a:	ff8912e3          	bne	s2,s8,305e <OLED_ShowPicture+0x8c>
    307e:	0485                	addi	s1,s1,1
    3080:	0ff4f493          	andi	s1,s1,255
    3084:	41b486b3          	sub	a3,s1,s11
    3088:	03568063          	beq	a3,s5,30a8 <OLED_ShowPicture+0xd6>
    308c:	8c6a                	mv	s8,s10
    308e:	8d62                	mv	s10,s8
    3090:	fb341be3          	bne	s0,s3,3046 <OLED_ShowPicture+0x74>
    3094:	99de                	add	s3,s3,s7
    3096:	0c85                	addi	s9,s9,1
    3098:	09c2                	slli	s3,s3,0x10
    309a:	0ffcfc93          	andi	s9,s9,255
    309e:	0109d993          	srli	s3,s3,0x10
    30a2:	bfa5                	j	301a <OLED_ShowPicture+0x48>
    30a4:	4622                	lw	a2,8(sp)
    30a6:	b7c9                	j	3068 <OLED_ShowPicture+0x96>
    30a8:	84ee                	mv	s1,s11
    30aa:	b7d5                	j	308e <OLED_ShowPicture+0xbc>

000030ac <OLED_io_init>:
    30ac:	1141                	addi	sp,sp,-16
    30ae:	4591                	li	a1,4
    30b0:	4505                	li	a0,1
    30b2:	c606                	sw	ra,12(sp)
    30b4:	c422                	sw	s0,8(sp)
    30b6:	267010ef          	jal	ra,4b1c <GPIOB_ModeCfg>
    30ba:	4591                	li	a1,4
    30bc:	4509                	li	a0,2
    30be:	40001437          	lui	s0,0x40001
    30c2:	25b010ef          	jal	ra,4b1c <GPIOB_ModeCfg>
    30c6:	0c842783          	lw	a5,200(s0) # 400010c8 <_eusrstack+0x1fff90c8>
    30ca:	4591                	li	a1,4
    30cc:	4511                	li	a0,4
    30ce:	0027e793          	ori	a5,a5,2
    30d2:	0cf42423          	sw	a5,200(s0)
    30d6:	247010ef          	jal	ra,4b1c <GPIOB_ModeCfg>
    30da:	0c842783          	lw	a5,200(s0)
    30de:	4591                	li	a1,4
    30e0:	4541                	li	a0,16
    30e2:	0047e793          	ori	a5,a5,4
    30e6:	0cf42423          	sw	a5,200(s0)
    30ea:	233010ef          	jal	ra,4b1c <GPIOB_ModeCfg>
    30ee:	0c842783          	lw	a5,200(s0)
    30f2:	4591                	li	a1,4
    30f4:	4521                	li	a0,8
    30f6:	0107e793          	ori	a5,a5,16
    30fa:	0cf42423          	sw	a5,200(s0)
    30fe:	21f010ef          	jal	ra,4b1c <GPIOB_ModeCfg>
    3102:	0c842783          	lw	a5,200(s0)
    3106:	40b2                	lw	ra,12(sp)
    3108:	0087e793          	ori	a5,a5,8
    310c:	0cf42423          	sw	a5,200(s0)
    3110:	4422                	lw	s0,8(sp)
    3112:	0141                	addi	sp,sp,16
    3114:	8082                	ret

00003116 <OLED_Init>:
    3116:	1141                	addi	sp,sp,-16
    3118:	c606                	sw	ra,12(sp)
    311a:	c422                	sw	s0,8(sp)
    311c:	3f41                	jal	30ac <OLED_io_init>
    311e:	40001437          	lui	s0,0x40001
    3122:	0cc42783          	lw	a5,204(s0) # 400010cc <_eusrstack+0x1fff90cc>
    3126:	0c800513          	li	a0,200
    312a:	0047e793          	ori	a5,a5,4
    312e:	0cf42623          	sw	a5,204(s0)
    3132:	1fffd097          	auipc	ra,0x1fffd
    3136:	50a080e7          	jalr	1290(ra) # 2000063c <mDelaymS>
    313a:	0c842783          	lw	a5,200(s0)
    313e:	4581                	li	a1,0
    3140:	0ae00513          	li	a0,174
    3144:	0047e793          	ori	a5,a5,4
    3148:	0cf42423          	sw	a5,200(s0)
    314c:	3301                	jal	2e4c <OLED_WR_Byte>
    314e:	4581                	li	a1,0
    3150:	4501                	li	a0,0
    3152:	39ed                	jal	2e4c <OLED_WR_Byte>
    3154:	4581                	li	a1,0
    3156:	4541                	li	a0,16
    3158:	39d5                	jal	2e4c <OLED_WR_Byte>
    315a:	4581                	li	a1,0
    315c:	04000513          	li	a0,64
    3160:	31f5                	jal	2e4c <OLED_WR_Byte>
    3162:	4581                	li	a1,0
    3164:	08100513          	li	a0,129
    3168:	31d5                	jal	2e4c <OLED_WR_Byte>
    316a:	4581                	li	a1,0
    316c:	0cf00513          	li	a0,207
    3170:	39f1                	jal	2e4c <OLED_WR_Byte>
    3172:	4581                	li	a1,0
    3174:	0a000513          	li	a0,160
    3178:	39d1                	jal	2e4c <OLED_WR_Byte>
    317a:	4581                	li	a1,0
    317c:	0c000513          	li	a0,192
    3180:	31f1                	jal	2e4c <OLED_WR_Byte>
    3182:	4581                	li	a1,0
    3184:	0a600513          	li	a0,166
    3188:	31d1                	jal	2e4c <OLED_WR_Byte>
    318a:	4581                	li	a1,0
    318c:	0a800513          	li	a0,168
    3190:	3975                	jal	2e4c <OLED_WR_Byte>
    3192:	4581                	li	a1,0
    3194:	03f00513          	li	a0,63
    3198:	3955                	jal	2e4c <OLED_WR_Byte>
    319a:	4581                	li	a1,0
    319c:	0d300513          	li	a0,211
    31a0:	3175                	jal	2e4c <OLED_WR_Byte>
    31a2:	4581                	li	a1,0
    31a4:	4501                	li	a0,0
    31a6:	315d                	jal	2e4c <OLED_WR_Byte>
    31a8:	4581                	li	a1,0
    31aa:	0d500513          	li	a0,213
    31ae:	3979                	jal	2e4c <OLED_WR_Byte>
    31b0:	4581                	li	a1,0
    31b2:	08000513          	li	a0,128
    31b6:	3959                	jal	2e4c <OLED_WR_Byte>
    31b8:	4581                	li	a1,0
    31ba:	0d900513          	li	a0,217
    31be:	3179                	jal	2e4c <OLED_WR_Byte>
    31c0:	4581                	li	a1,0
    31c2:	0f100513          	li	a0,241
    31c6:	3159                	jal	2e4c <OLED_WR_Byte>
    31c8:	4581                	li	a1,0
    31ca:	0da00513          	li	a0,218
    31ce:	39bd                	jal	2e4c <OLED_WR_Byte>
    31d0:	4581                	li	a1,0
    31d2:	4549                	li	a0,18
    31d4:	39a5                	jal	2e4c <OLED_WR_Byte>
    31d6:	4581                	li	a1,0
    31d8:	0db00513          	li	a0,219
    31dc:	3985                	jal	2e4c <OLED_WR_Byte>
    31de:	4581                	li	a1,0
    31e0:	04000513          	li	a0,64
    31e4:	31a5                	jal	2e4c <OLED_WR_Byte>
    31e6:	4581                	li	a1,0
    31e8:	02000513          	li	a0,32
    31ec:	3185                	jal	2e4c <OLED_WR_Byte>
    31ee:	4581                	li	a1,0
    31f0:	4509                	li	a0,2
    31f2:	39a9                	jal	2e4c <OLED_WR_Byte>
    31f4:	4581                	li	a1,0
    31f6:	08d00513          	li	a0,141
    31fa:	3989                	jal	2e4c <OLED_WR_Byte>
    31fc:	4581                	li	a1,0
    31fe:	4551                	li	a0,20
    3200:	31b1                	jal	2e4c <OLED_WR_Byte>
    3202:	4581                	li	a1,0
    3204:	0a400513          	li	a0,164
    3208:	3191                	jal	2e4c <OLED_WR_Byte>
    320a:	4581                	li	a1,0
    320c:	0a600513          	li	a0,166
    3210:	3935                	jal	2e4c <OLED_WR_Byte>
    3212:	3399                	jal	2f58 <OLED_Clear>
    3214:	4422                	lw	s0,8(sp)
    3216:	40b2                	lw	ra,12(sp)
    3218:	4581                	li	a1,0
    321a:	0af00513          	li	a0,175
    321e:	0141                	addi	sp,sp,16
    3220:	b135                	j	2e4c <OLED_WR_Byte>

00003222 <mb_reg_after_write>:
    3222:	1101                	addi	sp,sp,-32
    3224:	ce06                	sw	ra,28(sp)
    3226:	cc22                	sw	s0,24(sp)
    3228:	08600713          	li	a4,134
    322c:	862e                	mv	a2,a1
    322e:	08e50d63          	beq	a0,a4,32c8 <mb_reg_after_write+0xa6>
    3232:	00a76b63          	bltu	a4,a0,3248 <mb_reg_after_write+0x26>
    3236:	08000713          	li	a4,128
    323a:	02e50c63          	beq	a0,a4,3272 <mb_reg_after_write+0x50>
    323e:	40f2                	lw	ra,28(sp)
    3240:	4462                	lw	s0,24(sp)
    3242:	4501                	li	a0,0
    3244:	6105                	addi	sp,sp,32
    3246:	8082                	ret
    3248:	6741                	lui	a4,0x10
    324a:	ffa70693          	addi	a3,a4,-6 # fffa <_data_lma+0x28ea>
    324e:	00d50a63          	beq	a0,a3,3262 <mb_reg_after_write+0x40>
    3252:	176d                	addi	a4,a4,-5
    3254:	fee515e3          	bne	a0,a4,323e <mb_reg_after_write+0x1c>
    3258:	fff5c593          	not	a1,a1
    325c:	05c2                	slli	a1,a1,0x10
    325e:	81c1                	srli	a1,a1,0x10
    3260:	a031                	j	326c <mb_reg_after_write+0x4a>
    3262:	6599                	lui	a1,0x6
    3264:	aa558593          	addi	a1,a1,-1371 # 5aa5 <_printf_i+0x83>
    3268:	fcb60be3          	beq	a2,a1,323e <mb_reg_after_write+0x1c>
    326c:	94cfe0ef          	jal	ra,13b8 <modbus_reg_update>
    3270:	b7f9                	j	323e <mb_reg_after_write+0x1c>
    3272:	cd99                	beqz	a1,3290 <mb_reg_after_write+0x6e>
    3274:	4785                	li	a5,1
    3276:	02f58263          	beq	a1,a5,329a <mb_reg_after_write+0x78>
    327a:	00009597          	auipc	a1,0x9
    327e:	79a58593          	addi	a1,a1,1946 # ca14 <CSWTCH.34+0x3bc>
    3282:	00009517          	auipc	a0,0x9
    3286:	79a50513          	addi	a0,a0,1946 # ca1c <CSWTCH.34+0x3c4>
    328a:	6bb020ef          	jal	ra,6144 <iprintf>
    328e:	bf45                	j	323e <mb_reg_after_write+0x1c>
    3290:	1fffd097          	auipc	ra,0x1fffd
    3294:	328080e7          	jalr	808(ra) # 200005b8 <SYS_ResetExecute>
    3298:	b75d                	j	323e <mb_reg_after_write+0x1c>
    329a:	0028                	addi	a0,sp,8
    329c:	6441                	lui	s0,0x10
    329e:	c402                	sw	zero,8(sp)
    32a0:	c602                	sw	zero,12(sp)
    32a2:	c63fe0ef          	jal	ra,1f04 <cfg_get_mb_uart>
    32a6:	fdd40513          	addi	a0,s0,-35 # ffdd <_data_lma+0x28cd>
    32aa:	946fe0ef          	jal	ra,13f0 <modbus_reg_get>
    32ae:	0542                	slli	a0,a0,0x10
    32b0:	c42a                	sw	a0,8(sp)
    32b2:	fde40513          	addi	a0,s0,-34
    32b6:	93afe0ef          	jal	ra,13f0 <modbus_reg_get>
    32ba:	47a2                	lw	a5,8(sp)
    32bc:	953e                	add	a0,a0,a5
    32be:	c42a                	sw	a0,8(sp)
    32c0:	0028                	addi	a0,sp,8
    32c2:	c85fe0ef          	jal	ra,1f46 <cfg_update_mb_uart>
    32c6:	bfa5                	j	323e <mb_reg_after_write+0x1c>
    32c8:	678d                	lui	a5,0x3
    32ca:	73678793          	addi	a5,a5,1846 # 3736 <st_page_write+0x6e>
    32ce:	4505                	li	a0,1
    32d0:	00f58463          	beq	a1,a5,32d8 <mb_reg_after_write+0xb6>
    32d4:	f5ad                	bnez	a1,323e <mb_reg_after_write+0x1c>
    32d6:	4501                	li	a0,0
    32d8:	9f9ff0ef          	jal	ra,2cd0 <modbus_sa_ctrl>
    32dc:	b78d                	j	323e <mb_reg_after_write+0x1c>

000032de <mb_init>:
    32de:	1101                	addi	sp,sp,-32
    32e0:	ce06                	sw	ra,28(sp)
    32e2:	cc22                	sw	s0,24(sp)
    32e4:	c002                	sw	zero,0(sp)
    32e6:	c202                	sw	zero,4(sp)
    32e8:	c402                	sw	zero,8(sp)
    32ea:	c602                	sw	zero,12(sp)
    32ec:	b43fe0ef          	jal	ra,1e2e <appinfo_get>
    32f0:	00000797          	auipc	a5,0x0
    32f4:	f3278793          	addi	a5,a5,-206 # 3222 <mb_reg_after_write>
    32f8:	842a                	mv	s0,a0
    32fa:	850a                	mv	a0,sp
    32fc:	c23e                	sw	a5,4(sp)
    32fe:	9f9ff0ef          	jal	ra,2cf6 <modbus_init>
    3302:	4589                	li	a1,2
    3304:	4501                	li	a0,0
    3306:	8b2fe0ef          	jal	ra,13b8 <modbus_reg_update>
    330a:	00245583          	lhu	a1,2(s0)
    330e:	4531                	li	a0,12
    3310:	8a8fe0ef          	jal	ra,13b8 <modbus_reg_update>
    3314:	00445583          	lhu	a1,4(s0)
    3318:	4535                	li	a0,13
    331a:	89efe0ef          	jal	ra,13b8 <modbus_reg_update>
    331e:	00845583          	lhu	a1,8(s0)
    3322:	4505                	li	a0,1
    3324:	894fe0ef          	jal	ra,13b8 <modbus_reg_update>
    3328:	00645583          	lhu	a1,6(s0)
    332c:	4509                	li	a0,2
    332e:	88afe0ef          	jal	ra,13b8 <modbus_reg_update>
    3332:	6b6010ef          	jal	ra,49e8 <get_uid>
    3336:	45a1                	li	a1,8
    3338:	a4efe0ef          	jal	ra,1586 <modbus_reg_update_uid>
    333c:	6599                	lui	a1,0x6
    333e:	6541                	lui	a0,0x10
    3340:	1569                	addi	a0,a0,-6
    3342:	aa558593          	addi	a1,a1,-1371 # 5aa5 <_printf_i+0x83>
    3346:	872fe0ef          	jal	ra,13b8 <modbus_reg_update>
    334a:	40f2                	lw	ra,28(sp)
    334c:	4462                	lw	s0,24(sp)
    334e:	4501                	li	a0,0
    3350:	6105                	addi	sp,sp,32
    3352:	8082                	ret

00003354 <sensor_init>:
    3354:	8241c783          	lbu	a5,-2012(gp) # 2000110c <sensor_ctx>
    3358:	ef99                	bnez	a5,3376 <sensor_init+0x22>
    335a:	1141                	addi	sp,sp,-16
    335c:	c606                	sw	ra,12(sp)
    335e:	8201a223          	sw	zero,-2012(gp) # 2000110c <sensor_ctx>
    3362:	8201a423          	sw	zero,-2008(gp) # 20001110 <sensor_ctx+0x4>
    3366:	3fa5                	jal	32de <mb_init>
    3368:	40b2                	lw	ra,12(sp)
    336a:	4785                	li	a5,1
    336c:	82f18223          	sb	a5,-2012(gp) # 2000110c <sensor_ctx>
    3370:	4501                	li	a0,0
    3372:	0141                	addi	sp,sp,16
    3374:	8082                	ret
    3376:	4501                	li	a0,0
    3378:	8082                	ret

0000337a <sensor_run>:
    337a:	1141                	addi	sp,sp,-16
    337c:	c606                	sw	ra,12(sp)
    337e:	c422                	sw	s0,8(sp)
    3380:	a97ff0ef          	jal	ra,2e16 <modbus_run>
    3384:	6d0010ef          	jal	ra,4a54 <worktime_get>
    3388:	3e800613          	li	a2,1000
    338c:	4681                	li	a3,0
    338e:	10b010ef          	jal	ra,4c98 <__udivdi3>
    3392:	82418793          	addi	a5,gp,-2012 # 2000110c <sensor_ctx>
    3396:	43dc                	lw	a5,4(a5)
    3398:	02a78363          	beq	a5,a0,33be <sensor_run+0x44>
    339c:	3e800413          	li	s0,1000
    33a0:	02855433          	divu	s0,a0,s0
    33a4:	82a1a423          	sw	a0,-2008(gp) # 20001110 <sensor_ctx+0x4>
    33a8:	4539                	li	a0,14
    33aa:	01045593          	srli	a1,s0,0x10
    33ae:	80afe0ef          	jal	ra,13b8 <modbus_reg_update>
    33b2:	01041593          	slli	a1,s0,0x10
    33b6:	81c1                	srli	a1,a1,0x10
    33b8:	453d                	li	a0,15
    33ba:	ffffd0ef          	jal	ra,13b8 <modbus_reg_update>
    33be:	40b2                	lw	ra,12(sp)
    33c0:	4422                	lw	s0,8(sp)
    33c2:	4501                	li	a0,0
    33c4:	0141                	addi	sp,sp,16
    33c6:	8082                	ret

000033c8 <st_page_status_str>:
    33c8:	0fc00793          	li	a5,252
    33cc:	04f50063          	beq	a0,a5,340c <st_page_status_str+0x44>
    33d0:	00a7ec63          	bltu	a5,a0,33e8 <st_page_status_str+0x20>
    33d4:	0000a797          	auipc	a5,0xa
    33d8:	ae878793          	addi	a5,a5,-1304 # cebc <__FUNCTION__.4169+0x474>
    33dc:	c515                	beqz	a0,3408 <st_page_status_str+0x40>
    33de:	0000a797          	auipc	a5,0xa
    33e2:	ac678793          	addi	a5,a5,-1338 # cea4 <__FUNCTION__.4169+0x45c>
    33e6:	a00d                	j	3408 <st_page_status_str+0x40>
    33e8:	0fe00713          	li	a4,254
    33ec:	0000a797          	auipc	a5,0xa
    33f0:	adc78793          	addi	a5,a5,-1316 # cec8 <__FUNCTION__.4169+0x480>
    33f4:	00e50a63          	beq	a0,a4,3408 <st_page_status_str+0x40>
    33f8:	0ff00713          	li	a4,255
    33fc:	0000a797          	auipc	a5,0xa
    3400:	ab078793          	addi	a5,a5,-1360 # ceac <__FUNCTION__.4169+0x464>
    3404:	fce51de3          	bne	a0,a4,33de <st_page_status_str+0x16>
    3408:	853e                	mv	a0,a5
    340a:	8082                	ret
    340c:	0000a797          	auipc	a5,0xa
    3410:	aa878793          	addi	a5,a5,-1368 # ceb4 <__FUNCTION__.4169+0x46c>
    3414:	bfd5                	j	3408 <st_page_status_str+0x40>

00003416 <st_item_verify>:
    3416:	7179                	addi	sp,sp,-48
    3418:	d422                	sw	s0,40(sp)
    341a:	4651                	li	a2,20
    341c:	842a                	mv	s0,a0
    341e:	00009597          	auipc	a1,0x9
    3422:	e2a58593          	addi	a1,a1,-470 # c248 <_sbrk+0x34>
    3426:	0068                	addi	a0,sp,12
    3428:	d606                	sw	ra,44(sp)
    342a:	477010ef          	jal	ra,50a0 <memcpy>
    342e:	00044603          	lbu	a2,0(s0)
    3432:	00440593          	addi	a1,s0,4
    3436:	0068                	addi	a0,sp,12
    3438:	ca7fd0ef          	jal	ra,10de <crc_check>
    343c:	00144783          	lbu	a5,1(s0)
    3440:	50b2                	lw	ra,44(sp)
    3442:	5422                	lw	s0,40(sp)
    3444:	40a78533          	sub	a0,a5,a0
    3448:	00153513          	seqz	a0,a0
    344c:	6145                	addi	sp,sp,48
    344e:	8082                	ret

00003450 <st_page_read>:
    3450:	87ae                	mv	a5,a1
    3452:	00178813          	addi	a6,a5,1
    3456:	1141                	addi	sp,sp,-16
    3458:	00851593          	slli	a1,a0,0x8
    345c:	95c2                	add	a1,a1,a6
    345e:	c606                	sw	ra,12(sp)
    3460:	07f00813          	li	a6,127
    3464:	02a87163          	bgeu	a6,a0,3486 <st_page_read+0x36>
    3468:	0000a597          	auipc	a1,0xa
    346c:	9e458593          	addi	a1,a1,-1564 # ce4c <__FUNCTION__.4169+0x404>
    3470:	0000a517          	auipc	a0,0xa
    3474:	9e050513          	addi	a0,a0,-1568 # ce50 <__FUNCTION__.4169+0x408>
    3478:	4cd020ef          	jal	ra,6144 <iprintf>
    347c:	57fd                	li	a5,-1
    347e:	40b2                	lw	ra,12(sp)
    3480:	853e                	mv	a0,a5
    3482:	0141                	addi	sp,sp,16
    3484:	8082                	ret
    3486:	97b6                	add	a5,a5,a3
    3488:	0785                	addi	a5,a5,1
    348a:	0ff00713          	li	a4,255
    348e:	00f77b63          	bgeu	a4,a5,34a4 <st_page_read+0x54>
    3492:	0000a597          	auipc	a1,0xa
    3496:	9ba58593          	addi	a1,a1,-1606 # ce4c <__FUNCTION__.4169+0x404>
    349a:	0000a517          	auipc	a0,0xa
    349e:	9ce50513          	addi	a0,a0,-1586 # ce68 <__FUNCTION__.4169+0x420>
    34a2:	bfd9                	j	3478 <st_page_read+0x28>
    34a4:	452d                	li	a0,11
    34a6:	1fffd097          	auipc	ra,0x1fffd
    34aa:	27a080e7          	jalr	634(ra) # 20000720 <FLASH_EEPROM_CMD>
    34ae:	4781                	li	a5,0
    34b0:	d579                	beqz	a0,347e <st_page_read+0x2e>
    34b2:	0000a597          	auipc	a1,0xa
    34b6:	99a58593          	addi	a1,a1,-1638 # ce4c <__FUNCTION__.4169+0x404>
    34ba:	0000a517          	auipc	a0,0xa
    34be:	9ce50513          	addi	a0,a0,-1586 # ce88 <__FUNCTION__.4169+0x440>
    34c2:	bf5d                	j	3478 <st_page_read+0x28>

000034c4 <st_page_erase>:
    34c4:	07f00793          	li	a5,127
    34c8:	08b7e863          	bltu	a5,a1,3558 <st_page_erase+0x94>
    34cc:	1141                	addi	sp,sp,-16
    34ce:	c422                	sw	s0,8(sp)
    34d0:	00359413          	slli	s0,a1,0x3
    34d4:	942a                	add	s0,s0,a0
    34d6:	00a44703          	lbu	a4,10(s0)
    34da:	c04a                	sw	s2,0(sp)
    34dc:	c606                	sw	ra,12(sp)
    34de:	c226                	sw	s1,4(sp)
    34e0:	0ff00793          	li	a5,255
    34e4:	892a                	mv	s2,a0
    34e6:	4501                	li	a0,0
    34e8:	04f70463          	beq	a4,a5,3530 <st_page_erase+0x6c>
    34ec:	862e                	mv	a2,a1
    34ee:	84ae                	mv	s1,a1
    34f0:	0000a517          	auipc	a0,0xa
    34f4:	92850513          	addi	a0,a0,-1752 # ce18 <__FUNCTION__.4169+0x3d0>
    34f8:	0000a597          	auipc	a1,0xa
    34fc:	95458593          	addi	a1,a1,-1708 # ce4c <__FUNCTION__.4169+0x404>
    3500:	445020ef          	jal	ra,6144 <iprintf>
    3504:	10000693          	li	a3,256
    3508:	4601                	li	a2,0
    350a:	00849593          	slli	a1,s1,0x8
    350e:	4525                	li	a0,9
    3510:	1fffd097          	auipc	ra,0x1fffd
    3514:	210080e7          	jalr	528(ra) # 20000720 <FLASH_EEPROM_CMD>
    3518:	c115                	beqz	a0,353c <st_page_erase+0x78>
    351a:	0000a597          	auipc	a1,0xa
    351e:	93258593          	addi	a1,a1,-1742 # ce4c <__FUNCTION__.4169+0x404>
    3522:	0000a517          	auipc	a0,0xa
    3526:	90e50513          	addi	a0,a0,-1778 # ce30 <__FUNCTION__.4169+0x3e8>
    352a:	41b020ef          	jal	ra,6144 <iprintf>
    352e:	557d                	li	a0,-1
    3530:	40b2                	lw	ra,12(sp)
    3532:	4422                	lw	s0,8(sp)
    3534:	4492                	lw	s1,4(sp)
    3536:	4902                	lw	s2,0(sp)
    3538:	0141                	addi	sp,sp,16
    353a:	8082                	ret
    353c:	57fd                	li	a5,-1
    353e:	00041723          	sh	zero,14(s0)
    3542:	00041623          	sh	zero,12(s0)
    3546:	00f40523          	sb	a5,10(s0)
    354a:	00295783          	lhu	a5,2(s2)
    354e:	4501                	li	a0,0
    3550:	0785                	addi	a5,a5,1
    3552:	00f91123          	sh	a5,2(s2)
    3556:	bfe9                	j	3530 <st_page_erase+0x6c>
    3558:	557d                	li	a0,-1
    355a:	8082                	ret

0000355c <st_page_status_update.constprop.12>:
    355c:	7179                	addi	sp,sp,-48
    355e:	d606                	sw	ra,44(sp)
    3560:	d422                	sw	s0,40(sp)
    3562:	d226                	sw	s1,36(sp)
    3564:	d04a                	sw	s2,32(sp)
    3566:	ce4e                	sw	s3,28(sp)
    3568:	cc52                	sw	s4,24(sp)
    356a:	00b107a3          	sb	a1,15(sp)
    356e:	07f00793          	li	a5,127
    3572:	06a7e763          	bltu	a5,a0,35e0 <st_page_status_update.constprop.12+0x84>
    3576:	22018793          	addi	a5,gp,544 # 20001b08 <st_ctx>
    357a:	00351913          	slli	s2,a0,0x3
    357e:	012789b3          	add	s3,a5,s2
    3582:	842a                	mv	s0,a0
    3584:	00a9c503          	lbu	a0,10(s3)
    3588:	0ff5fa13          	andi	s4,a1,255
    358c:	84be                	mv	s1,a5
    358e:	4701                	li	a4,0
    3590:	09450363          	beq	a0,s4,3616 <st_page_status_update.constprop.12+0xba>
    3594:	3d15                	jal	33c8 <st_page_status_str>
    3596:	c42a                	sw	a0,8(sp)
    3598:	8552                	mv	a0,s4
    359a:	353d                	jal	33c8 <st_page_status_str>
    359c:	46a2                	lw	a3,8(sp)
    359e:	872a                	mv	a4,a0
    35a0:	8622                	mv	a2,s0
    35a2:	0000a597          	auipc	a1,0xa
    35a6:	8aa58593          	addi	a1,a1,-1878 # ce4c <__FUNCTION__.4169+0x404>
    35aa:	0000a517          	auipc	a0,0xa
    35ae:	92650513          	addi	a0,a0,-1754 # ced0 <__FUNCTION__.4169+0x488>
    35b2:	393020ef          	jal	ra,6144 <iprintf>
    35b6:	4685                	li	a3,1
    35b8:	00f10613          	addi	a2,sp,15
    35bc:	00841593          	slli	a1,s0,0x8
    35c0:	4529                	li	a0,10
    35c2:	1fffd097          	auipc	ra,0x1fffd
    35c6:	15e080e7          	jalr	350(ra) # 20000720 <FLASH_EEPROM_CMD>
    35ca:	cd09                	beqz	a0,35e4 <st_page_status_update.constprop.12+0x88>
    35cc:	0000a597          	auipc	a1,0xa
    35d0:	88058593          	addi	a1,a1,-1920 # ce4c <__FUNCTION__.4169+0x404>
    35d4:	0000a517          	auipc	a0,0xa
    35d8:	8b450513          	addi	a0,a0,-1868 # ce88 <__FUNCTION__.4169+0x440>
    35dc:	369020ef          	jal	ra,6144 <iprintf>
    35e0:	577d                	li	a4,-1
    35e2:	a815                	j	3616 <st_page_status_update.constprop.12+0xba>
    35e4:	00a9c783          	lbu	a5,10(s3)
    35e8:	0ff00713          	li	a4,255
    35ec:	02e79e63          	bne	a5,a4,3628 <st_page_status_update.constprop.12+0xcc>
    35f0:	2221d703          	lhu	a4,546(gp) # 20001b0a <st_ctx+0x2>
    35f4:	c701                	beqz	a4,35fc <st_page_status_update.constprop.12+0xa0>
    35f6:	177d                	addi	a4,a4,-1
    35f8:	22e19123          	sh	a4,546(gp) # 20001b0a <st_ctx+0x2>
    35fc:	00f14703          	lbu	a4,15(sp)
    3600:	0fe00793          	li	a5,254
    3604:	00f71463          	bne	a4,a5,360c <st_page_status_update.constprop.12+0xb0>
    3608:	22819223          	sh	s0,548(gp) # 20001b0c <st_ctx+0x4>
    360c:	012487b3          	add	a5,s1,s2
    3610:	00e78523          	sb	a4,10(a5)
    3614:	4701                	li	a4,0
    3616:	50b2                	lw	ra,44(sp)
    3618:	5422                	lw	s0,40(sp)
    361a:	5492                	lw	s1,36(sp)
    361c:	5902                	lw	s2,32(sp)
    361e:	49f2                	lw	s3,28(sp)
    3620:	4a62                	lw	s4,24(sp)
    3622:	853a                	mv	a0,a4
    3624:	6145                	addi	sp,sp,48
    3626:	8082                	ret
    3628:	0fe00713          	li	a4,254
    362c:	fce798e3          	bne	a5,a4,35fc <st_page_status_update.constprop.12+0xa0>
    3630:	08000793          	li	a5,128
    3634:	22f19223          	sh	a5,548(gp) # 20001b0c <st_ctx+0x4>
    3638:	b7d1                	j	35fc <st_page_status_update.constprop.12+0xa0>

0000363a <st_page_get_freesize.constprop.13>:
    363a:	07f00793          	li	a5,127
    363e:	02a7ec63          	bltu	a5,a0,3676 <st_page_get_freesize.constprop.13+0x3c>
    3642:	050e                	slli	a0,a0,0x3
    3644:	22018713          	addi	a4,gp,544 # 20001b08 <st_ctx>
    3648:	972a                	add	a4,a4,a0
    364a:	00a74783          	lbu	a5,10(a4)
    364e:	0fc00693          	li	a3,252
    3652:	4501                	li	a0,0
    3654:	02d78263          	beq	a5,a3,3678 <st_page_get_freesize.constprop.13+0x3e>
    3658:	00f6e663          	bltu	a3,a5,3664 <st_page_get_freesize.constprop.13+0x2a>
    365c:	0017b513          	seqz	a0,a5
    3660:	157d                	addi	a0,a0,-1
    3662:	8082                	ret
    3664:	0fe00693          	li	a3,254
    3668:	00d78963          	beq	a5,a3,367a <st_page_get_freesize.constprop.13+0x40>
    366c:	0ff00713          	li	a4,255
    3670:	4501                	li	a0,0
    3672:	00e78363          	beq	a5,a4,3678 <st_page_get_freesize.constprop.13+0x3e>
    3676:	557d                	li	a0,-1
    3678:	8082                	ret
    367a:	00e75783          	lhu	a5,14(a4)
    367e:	0ff00513          	li	a0,255
    3682:	8d1d                	sub	a0,a0,a5
    3684:	8082                	ret

00003686 <st_first_page.constprop.11>:
    3686:	07f00713          	li	a4,127
    368a:	87aa                	mv	a5,a0
    368c:	86aa                	mv	a3,a0
    368e:	02a76b63          	bltu	a4,a0,36c4 <st_first_page.constprop.11+0x3e>
    3692:	22018613          	addi	a2,gp,544 # 20001b08 <st_ctx>
    3696:	07f00813          	li	a6,127
    369a:	00379713          	slli	a4,a5,0x3
    369e:	9732                	add	a4,a4,a2
    36a0:	00a74703          	lbu	a4,10(a4)
    36a4:	853e                	mv	a0,a5
    36a6:	02b70063          	beq	a4,a1,36c6 <st_first_page.constprop.11+0x40>
    36aa:	4701                	li	a4,0
    36ac:	01078463          	beq	a5,a6,36b4 <st_first_page.constprop.11+0x2e>
    36b0:	00178713          	addi	a4,a5,1
    36b4:	01071793          	slli	a5,a4,0x10
    36b8:	83c1                	srli	a5,a5,0x10
    36ba:	fee690e3          	bne	a3,a4,369a <st_first_page.constprop.11+0x14>
    36be:	08000513          	li	a0,128
    36c2:	8082                	ret
    36c4:	557d                	li	a0,-1
    36c6:	8082                	ret

000036c8 <st_page_write>:
    36c8:	1101                	addi	sp,sp,-32
    36ca:	00158793          	addi	a5,a1,1
    36ce:	c84a                	sw	s2,16(sp)
    36d0:	00851913          	slli	s2,a0,0x8
    36d4:	993e                	add	s2,s2,a5
    36d6:	ce06                	sw	ra,28(sp)
    36d8:	cc22                	sw	s0,24(sp)
    36da:	ca26                	sw	s1,20(sp)
    36dc:	c64e                	sw	s3,12(sp)
    36de:	c452                	sw	s4,8(sp)
    36e0:	07f00793          	li	a5,127
    36e4:	04a7e763          	bltu	a5,a0,3732 <st_page_write+0x6a>
    36e8:	95b6                	add	a1,a1,a3
    36ea:	0585                	addi	a1,a1,1
    36ec:	0ff00793          	li	a5,255
    36f0:	8436                	mv	s0,a3
    36f2:	557d                	li	a0,-1
    36f4:	04b7e763          	bltu	a5,a1,3742 <st_page_write+0x7a>
    36f8:	89b2                	mv	s3,a2
    36fa:	10000a13          	li	s4,256
    36fe:	84a2                	mv	s1,s0
    3700:	008a7463          	bgeu	s4,s0,3708 <st_page_write+0x40>
    3704:	10000493          	li	s1,256
    3708:	04c2                	slli	s1,s1,0x10
    370a:	80c1                	srli	s1,s1,0x10
    370c:	86a6                	mv	a3,s1
    370e:	864e                	mv	a2,s3
    3710:	85ca                	mv	a1,s2
    3712:	4529                	li	a0,10
    3714:	1fffd097          	auipc	ra,0x1fffd
    3718:	00c080e7          	jalr	12(ra) # 20000720 <FLASH_EEPROM_CMD>
    371c:	cd09                	beqz	a0,3736 <st_page_write+0x6e>
    371e:	00009597          	auipc	a1,0x9
    3722:	72e58593          	addi	a1,a1,1838 # ce4c <__FUNCTION__.4169+0x404>
    3726:	00009517          	auipc	a0,0x9
    372a:	76250513          	addi	a0,a0,1890 # ce88 <__FUNCTION__.4169+0x440>
    372e:	217020ef          	jal	ra,6144 <iprintf>
    3732:	557d                	li	a0,-1
    3734:	a039                	j	3742 <st_page_write+0x7a>
    3736:	8c05                	sub	s0,s0,s1
    3738:	0442                	slli	s0,s0,0x10
    373a:	8041                	srli	s0,s0,0x10
    373c:	9926                	add	s2,s2,s1
    373e:	f061                	bnez	s0,36fe <st_page_write+0x36>
    3740:	4501                	li	a0,0
    3742:	40f2                	lw	ra,28(sp)
    3744:	4462                	lw	s0,24(sp)
    3746:	44d2                	lw	s1,20(sp)
    3748:	4942                	lw	s2,16(sp)
    374a:	49b2                	lw	s3,12(sp)
    374c:	4a22                	lw	s4,8(sp)
    374e:	6105                	addi	sp,sp,32
    3750:	8082                	ret

00003752 <st_page_write_item.constprop.10>:
    3752:	07f00793          	li	a5,127
    3756:	14a7e363          	bltu	a5,a0,389c <st_page_write_item.constprop.10+0x14a>
    375a:	0025d603          	lhu	a2,2(a1)
    375e:	1101                	addi	sp,sp,-32
    3760:	67c1                	lui	a5,0x10
    3762:	fff60713          	addi	a4,a2,-1
    3766:	0742                	slli	a4,a4,0x10
    3768:	ca26                	sw	s1,20(sp)
    376a:	c64e                	sw	s3,12(sp)
    376c:	ce06                	sw	ra,28(sp)
    376e:	cc22                	sw	s0,24(sp)
    3770:	c84a                	sw	s2,16(sp)
    3772:	c452                	sw	s4,8(sp)
    3774:	c256                	sw	s5,4(sp)
    3776:	8341                	srli	a4,a4,0x10
    3778:	17f5                	addi	a5,a5,-3
    377a:	89ae                	mv	s3,a1
    377c:	84aa                	mv	s1,a0
    377e:	02e7f663          	bgeu	a5,a4,37aa <st_page_write_item.constprop.10+0x58>
    3782:	00009597          	auipc	a1,0x9
    3786:	6ca58593          	addi	a1,a1,1738 # ce4c <__FUNCTION__.4169+0x404>
    378a:	00009517          	auipc	a0,0x9
    378e:	76e50513          	addi	a0,a0,1902 # cef8 <__FUNCTION__.4169+0x4b0>
    3792:	1b3020ef          	jal	ra,6144 <iprintf>
    3796:	557d                	li	a0,-1
    3798:	40f2                	lw	ra,28(sp)
    379a:	4462                	lw	s0,24(sp)
    379c:	44d2                	lw	s1,20(sp)
    379e:	4942                	lw	s2,16(sp)
    37a0:	49b2                	lw	s3,12(sp)
    37a2:	4a22                	lw	s4,8(sp)
    37a4:	4a92                	lw	s5,4(sp)
    37a6:	6105                	addi	sp,sp,32
    37a8:	8082                	ret
    37aa:	22018793          	addi	a5,gp,544 # 20001b08 <st_ctx>
    37ae:	00351a93          	slli	s5,a0,0x3
    37b2:	01578433          	add	s0,a5,s5
    37b6:	00a44703          	lbu	a4,10(s0)
    37ba:	0fc00693          	li	a3,252
    37be:	8a3e                	mv	s4,a5
    37c0:	557d                	li	a0,-1
    37c2:	fcd70be3          	beq	a4,a3,3798 <st_page_write_item.constprop.10+0x46>
    37c6:	00e6ec63          	bltu	a3,a4,37de <st_page_write_item.constprop.10+0x8c>
    37ca:	d779                	beqz	a4,3798 <st_page_write_item.constprop.10+0x46>
    37cc:	00009597          	auipc	a1,0x9
    37d0:	68058593          	addi	a1,a1,1664 # ce4c <__FUNCTION__.4169+0x404>
    37d4:	00009517          	auipc	a0,0x9
    37d8:	74050513          	addi	a0,a0,1856 # cf14 <__FUNCTION__.4169+0x4cc>
    37dc:	bf5d                	j	3792 <st_page_write_item.constprop.10+0x40>
    37de:	0fe00793          	li	a5,254
    37e2:	fef765e3          	bltu	a4,a5,37cc <st_page_write_item.constprop.10+0x7a>
    37e6:	0005c683          	lbu	a3,0(a1)
    37ea:	0015c703          	lbu	a4,1(a1)
    37ee:	00e45803          	lhu	a6,14(s0)
    37f2:	00009597          	auipc	a1,0x9
    37f6:	65a58593          	addi	a1,a1,1626 # ce4c <__FUNCTION__.4169+0x404>
    37fa:	87a6                	mv	a5,s1
    37fc:	00009517          	auipc	a0,0x9
    3800:	73850513          	addi	a0,a0,1848 # cf34 <__FUNCTION__.4169+0x4ec>
    3804:	141020ef          	jal	ra,6144 <iprintf>
    3808:	0009c903          	lbu	s2,0(s3)
    380c:	00e45583          	lhu	a1,14(s0)
    3810:	864e                	mv	a2,s3
    3812:	0911                	addi	s2,s2,4
    3814:	86ca                	mv	a3,s2
    3816:	8526                	mv	a0,s1
    3818:	3d45                	jal	36c8 <st_page_write>
    381a:	00055b63          	bgez	a0,3830 <st_page_write_item.constprop.10+0xde>
    381e:	00009597          	auipc	a1,0x9
    3822:	62e58593          	addi	a1,a1,1582 # ce4c <__FUNCTION__.4169+0x404>
    3826:	00009517          	auipc	a0,0x9
    382a:	75250513          	addi	a0,a0,1874 # cf78 <__FUNCTION__.4169+0x530>
    382e:	b795                	j	3792 <st_page_write_item.constprop.10+0x40>
    3830:	00e45783          	lhu	a5,14(s0)
    3834:	01045703          	lhu	a4,16(s0)
    3838:	0ff00693          	li	a3,255
    383c:	97ca                	add	a5,a5,s2
    383e:	07c2                	slli	a5,a5,0x10
    3840:	993a                	add	s2,s2,a4
    3842:	00a44703          	lbu	a4,10(s0)
    3846:	83c1                	srli	a5,a5,0x10
    3848:	00f41723          	sh	a5,14(s0)
    384c:	01241823          	sh	s2,16(s0)
    3850:	85ba                	mv	a1,a4
    3852:	00d71463          	bne	a4,a3,385a <st_page_write_item.constprop.10+0x108>
    3856:	0fe00593          	li	a1,254
    385a:	0ff00693          	li	a3,255
    385e:	40f687b3          	sub	a5,a3,a5
    3862:	468d                	li	a3,3
    3864:	00f6e463          	bltu	a3,a5,386c <st_page_write_item.constprop.10+0x11a>
    3868:	0fc00593          	li	a1,252
    386c:	00b70f63          	beq	a4,a1,388a <st_page_write_item.constprop.10+0x138>
    3870:	8526                	mv	a0,s1
    3872:	31ed                	jal	355c <st_page_status_update.constprop.12>
    3874:	00055b63          	bgez	a0,388a <st_page_write_item.constprop.10+0x138>
    3878:	00009597          	auipc	a1,0x9
    387c:	5d458593          	addi	a1,a1,1492 # ce4c <__FUNCTION__.4169+0x404>
    3880:	00009517          	auipc	a0,0x9
    3884:	71450513          	addi	a0,a0,1812 # cf94 <__FUNCTION__.4169+0x54c>
    3888:	b729                	j	3792 <st_page_write_item.constprop.10+0x40>
    388a:	015a07b3          	add	a5,s4,s5
    388e:	00c7d703          	lhu	a4,12(a5) # 1000c <_data_lma+0x28fc>
    3892:	4501                	li	a0,0
    3894:	0705                	addi	a4,a4,1
    3896:	00e79623          	sh	a4,12(a5)
    389a:	bdfd                	j	3798 <st_page_write_item.constprop.10+0x46>
    389c:	557d                	li	a0,-1
    389e:	8082                	ret

000038a0 <st_delete_item_with_loc>:
    38a0:	7179                	addi	sp,sp,-48
    38a2:	d606                	sw	ra,44(sp)
    38a4:	d422                	sw	s0,40(sp)
    38a6:	d226                	sw	s1,36(sp)
    38a8:	d04a                	sw	s2,32(sp)
    38aa:	ce4e                	sw	s3,28(sp)
    38ac:	c602                	sw	zero,12(sp)
    38ae:	e205                	bnez	a2,38ce <st_delete_item_with_loc+0x2e>
    38b0:	00009617          	auipc	a2,0x9
    38b4:	19860613          	addi	a2,a2,408 # ca48 <__FUNCTION__.4169>
    38b8:	00009597          	auipc	a1,0x9
    38bc:	59458593          	addi	a1,a1,1428 # ce4c <__FUNCTION__.4169+0x404>
    38c0:	00009517          	auipc	a0,0x9
    38c4:	1a050513          	addi	a0,a0,416 # ca60 <__FUNCTION__.4169+0x18>
    38c8:	07d020ef          	jal	ra,6144 <iprintf>
    38cc:	a805                	j	38fc <st_delete_item_with_loc+0x5c>
    38ce:	892a                	mv	s2,a0
    38d0:	00065503          	lhu	a0,0(a2)
    38d4:	07f00793          	li	a5,127
    38d8:	8432                	mv	s0,a2
    38da:	02a7f363          	bgeu	a5,a0,3900 <st_delete_item_with_loc+0x60>
    38de:	862a                	mv	a2,a0
    38e0:	00009697          	auipc	a3,0x9
    38e4:	16868693          	addi	a3,a3,360 # ca48 <__FUNCTION__.4169>
    38e8:	00009597          	auipc	a1,0x9
    38ec:	56458593          	addi	a1,a1,1380 # ce4c <__FUNCTION__.4169+0x404>
    38f0:	00009517          	auipc	a0,0x9
    38f4:	18850513          	addi	a0,a0,392 # ca78 <__FUNCTION__.4169+0x30>
    38f8:	04d020ef          	jal	ra,6144 <iprintf>
    38fc:	557d                	li	a0,-1
    38fe:	a035                	j	392a <st_delete_item_with_loc+0x8a>
    3900:	00351493          	slli	s1,a0,0x3
    3904:	94ca                	add	s1,s1,s2
    3906:	00c4d783          	lhu	a5,12(s1)
    390a:	e79d                	bnez	a5,3938 <st_delete_item_with_loc+0x98>
    390c:	00009617          	auipc	a2,0x9
    3910:	13c60613          	addi	a2,a2,316 # ca48 <__FUNCTION__.4169>
    3914:	00009597          	auipc	a1,0x9
    3918:	53858593          	addi	a1,a1,1336 # ce4c <__FUNCTION__.4169+0x404>
    391c:	00009517          	auipc	a0,0x9
    3920:	17c50513          	addi	a0,a0,380 # ca98 <__FUNCTION__.4169+0x50>
    3924:	021020ef          	jal	ra,6144 <iprintf>
    3928:	4501                	li	a0,0
    392a:	50b2                	lw	ra,44(sp)
    392c:	5422                	lw	s0,40(sp)
    392e:	5492                	lw	s1,36(sp)
    3930:	5902                	lw	s2,32(sp)
    3932:	49f2                	lw	s3,28(sp)
    3934:	6145                	addi	sp,sp,48
    3936:	8082                	ret
    3938:	89ae                	mv	s3,a1
    393a:	00245583          	lhu	a1,2(s0)
    393e:	4691                	li	a3,4
    3940:	0070                	addi	a2,sp,12
    3942:	b0fff0ef          	jal	ra,3450 <st_page_read>
    3946:	00055f63          	bgez	a0,3964 <st_delete_item_with_loc+0xc4>
    394a:	00009617          	auipc	a2,0x9
    394e:	0fe60613          	addi	a2,a2,254 # ca48 <__FUNCTION__.4169>
    3952:	00009597          	auipc	a1,0x9
    3956:	4fa58593          	addi	a1,a1,1274 # ce4c <__FUNCTION__.4169+0x404>
    395a:	00009517          	auipc	a0,0x9
    395e:	15e50513          	addi	a0,a0,350 # cab8 <__FUNCTION__.4169+0x70>
    3962:	b79d                	j	38c8 <st_delete_item_with_loc+0x28>
    3964:	00e15603          	lhu	a2,14(sp)
    3968:	03360363          	beq	a2,s3,398e <st_delete_item_with_loc+0xee>
    396c:	8732                	mv	a4,a2
    396e:	86ce                	mv	a3,s3
    3970:	00009617          	auipc	a2,0x9
    3974:	0d860613          	addi	a2,a2,216 # ca48 <__FUNCTION__.4169>
    3978:	00009597          	auipc	a1,0x9
    397c:	4d458593          	addi	a1,a1,1236 # ce4c <__FUNCTION__.4169+0x404>
    3980:	00009517          	auipc	a0,0x9
    3984:	15850513          	addi	a0,a0,344 # cad8 <__FUNCTION__.4169+0x90>
    3988:	7bc020ef          	jal	ra,6144 <iprintf>
    398c:	bf85                	j	38fc <st_delete_item_with_loc+0x5c>
    398e:	00045683          	lhu	a3,0(s0)
    3992:	00245703          	lhu	a4,2(s0)
    3996:	00009597          	auipc	a1,0x9
    399a:	4b658593          	addi	a1,a1,1206 # ce4c <__FUNCTION__.4169+0x404>
    399e:	00009517          	auipc	a0,0x9
    39a2:	17250513          	addi	a0,a0,370 # cb10 <__FUNCTION__.4169+0xc8>
    39a6:	79e020ef          	jal	ra,6144 <iprintf>
    39aa:	00245583          	lhu	a1,2(s0)
    39ae:	00045503          	lhu	a0,0(s0)
    39b2:	4691                	li	a3,4
    39b4:	0070                	addi	a2,sp,12
    39b6:	00011723          	sh	zero,14(sp)
    39ba:	3339                	jal	36c8 <st_page_write>
    39bc:	00055f63          	bgez	a0,39da <st_delete_item_with_loc+0x13a>
    39c0:	00009617          	auipc	a2,0x9
    39c4:	08860613          	addi	a2,a2,136 # ca48 <__FUNCTION__.4169>
    39c8:	00009597          	auipc	a1,0x9
    39cc:	48458593          	addi	a1,a1,1156 # ce4c <__FUNCTION__.4169+0x404>
    39d0:	00009517          	auipc	a0,0x9
    39d4:	17850513          	addi	a0,a0,376 # cb48 <__FUNCTION__.4169+0x100>
    39d8:	bdc5                	j	38c8 <st_delete_item_with_loc+0x28>
    39da:	00c4d783          	lhu	a5,12(s1)
    39de:	eb8d                	bnez	a5,3a10 <st_delete_item_with_loc+0x170>
    39e0:	00a4c703          	lbu	a4,10(s1)
    39e4:	0fc00793          	li	a5,252
    39e8:	f4f710e3          	bne	a4,a5,3928 <st_delete_item_with_loc+0x88>
    39ec:	00045583          	lhu	a1,0(s0)
    39f0:	854a                	mv	a0,s2
    39f2:	ad3ff0ef          	jal	ra,34c4 <st_page_erase>
    39f6:	f20559e3          	bgez	a0,3928 <st_delete_item_with_loc+0x88>
    39fa:	00009597          	auipc	a1,0x9
    39fe:	45258593          	addi	a1,a1,1106 # ce4c <__FUNCTION__.4169+0x404>
    3a02:	00009517          	auipc	a0,0x9
    3a06:	16650513          	addi	a0,a0,358 # cb68 <__FUNCTION__.4169+0x120>
    3a0a:	73a020ef          	jal	ra,6144 <iprintf>
    3a0e:	b5fd                	j	38fc <st_delete_item_with_loc+0x5c>
    3a10:	17fd                	addi	a5,a5,-1
    3a12:	07c2                	slli	a5,a5,0x10
    3a14:	83c1                	srli	a5,a5,0x10
    3a16:	00f49623          	sh	a5,12(s1)
    3a1a:	f00797e3          	bnez	a5,3928 <st_delete_item_with_loc+0x88>
    3a1e:	b7c9                	j	39e0 <st_delete_item_with_loc+0x140>

00003a20 <st_find_item>:
    3a20:	fff50713          	addi	a4,a0,-1
    3a24:	714d                	addi	sp,sp,-336
    3a26:	0742                	slli	a4,a4,0x10
    3a28:	67c1                	lui	a5,0x10
    3a2a:	13412c23          	sw	s4,312(sp)
    3a2e:	14112623          	sw	ra,332(sp)
    3a32:	14812423          	sw	s0,328(sp)
    3a36:	14912223          	sw	s1,324(sp)
    3a3a:	15212023          	sw	s2,320(sp)
    3a3e:	13312e23          	sw	s3,316(sp)
    3a42:	13512a23          	sw	s5,308(sp)
    3a46:	13612823          	sw	s6,304(sp)
    3a4a:	13712623          	sw	s7,300(sp)
    3a4e:	13812423          	sw	s8,296(sp)
    3a52:	13912223          	sw	s9,292(sp)
    3a56:	13a12023          	sw	s10,288(sp)
    3a5a:	11b12e23          	sw	s11,284(sp)
    3a5e:	8341                	srli	a4,a4,0x10
    3a60:	17f5                	addi	a5,a5,-3
    3a62:	2241da03          	lhu	s4,548(gp) # 20001b0c <st_ctx+0x4>
    3a66:	08e7ea63          	bltu	a5,a4,3afa <st_find_item+0xda>
    3a6a:	07f00793          	li	a5,127
    3a6e:	8b2a                	mv	s6,a0
    3a70:	8bae                	mv	s7,a1
    3a72:	8d32                	mv	s10,a2
    3a74:	0147f363          	bgeu	a5,s4,3a7a <st_find_item+0x5a>
    3a78:	4a01                	li	s4,0
    3a7a:	63619523          	sh	s6,1578(gp) # 20001f12 <st_ctx+0x40a>
    3a7e:	08000793          	li	a5,128
    3a82:	62f19823          	sh	a5,1584(gp) # 20001f18 <st_ctx+0x410>
    3a86:	67c1                	lui	a5,0x10
    3a88:	22018c13          	addi	s8,gp,544 # 20001b08 <st_ctx>
    3a8c:	17f5                	addi	a5,a5,-3
    3a8e:	8952                	mv	s2,s4
    3a90:	4481                	li	s1,0
    3a92:	8ae2                	mv	s5,s8
    3a94:	c63e                	sw	a5,12(sp)
    3a96:	07f00793          	li	a5,127
    3a9a:	01091993          	slli	s3,s2,0x10
    3a9e:	0109d993          	srli	s3,s3,0x10
    3aa2:	0537ee63          	bltu	a5,s3,3afe <st_find_item+0xde>
    3aa6:	67c1                	lui	a5,0x10
    3aa8:	17fd                	addi	a5,a5,-1
    3aaa:	00f97933          	and	s2,s2,a5
    3aae:	00391d93          	slli	s11,s2,0x3
    3ab2:	01bc07b3          	add	a5,s8,s11
    3ab6:	00a7c783          	lbu	a5,10(a5) # 1000a <_data_lma+0x28fa>
    3aba:	0fc00713          	li	a4,252
    3abe:	0fd7f793          	andi	a5,a5,253
    3ac2:	08e79963          	bne	a5,a4,3b54 <st_find_item+0x134>
    3ac6:	c091                	beqz	s1,3aca <st_find_item+0xaa>
    3ac8:	4b81                	li	s7,0
    3aca:	0fc00613          	li	a2,252
    3ace:	4581                	li	a1,0
    3ad0:	0848                	addi	a0,sp,20
    3ad2:	8e8fd0ef          	jal	ra,bba <memset>
    3ad6:	40aad783          	lhu	a5,1034(s5)
    3ada:	4732                	lw	a4,12(sp)
    3adc:	17fd                	addi	a5,a5,-1
    3ade:	07c2                	slli	a5,a5,0x10
    3ae0:	83c1                	srli	a5,a5,0x10
    3ae2:	18f77263          	bgeu	a4,a5,3c66 <st_find_item+0x246>
    3ae6:	00009597          	auipc	a1,0x9
    3aea:	36658593          	addi	a1,a1,870 # ce4c <__FUNCTION__.4169+0x404>
    3aee:	00009517          	auipc	a0,0x9
    3af2:	40a50513          	addi	a0,a0,1034 # cef8 <__FUNCTION__.4169+0x4b0>
    3af6:	64e020ef          	jal	ra,6144 <iprintf>
    3afa:	54fd                	li	s1,-1
    3afc:	a88d                	j	3b6e <st_find_item+0x14e>
    3afe:	597d                	li	s2,-1
    3b00:	bf69                	j	3a9a <st_find_item+0x7a>
    3b02:	4691                	li	a3,4
    3b04:	0850                	addi	a2,sp,20
    3b06:	85a2                	mv	a1,s0
    3b08:	854e                	mv	a0,s3
    3b0a:	947ff0ef          	jal	ra,3450 <st_page_read>
    3b0e:	00055b63          	bgez	a0,3b24 <st_find_item+0x104>
    3b12:	00009597          	auipc	a1,0x9
    3b16:	33a58593          	addi	a1,a1,826 # ce4c <__FUNCTION__.4169+0x404>
    3b1a:	00009517          	auipc	a0,0x9
    3b1e:	06250513          	addi	a0,a0,98 # cb7c <__FUNCTION__.4169+0x134>
    3b22:	bfd1                	j	3af6 <st_find_item+0xd6>
    3b24:	01615783          	lhu	a5,22(sp)
    3b28:	e3c1                	bnez	a5,3ba8 <st_find_item+0x188>
    3b2a:	01414783          	lbu	a5,20(sp)
    3b2e:	0791                	addi	a5,a5,4
    3b30:	943e                	add	s0,s0,a5
    3b32:	0442                	slli	s0,s0,0x10
    3b34:	8041                	srli	s0,s0,0x10
    3b36:	47a2                	lw	a5,8(sp)
    3b38:	00e7d783          	lhu	a5,14(a5)
    3b3c:	fcf463e3          	bltu	s0,a5,3b02 <st_find_item+0xe2>
    3b40:	94e6                	add	s1,s1,s9
    3b42:	4785                	li	a5,1
    3b44:	12f49b63          	bne	s1,a5,3c7a <st_find_item+0x25a>
    3b48:	000d0663          	beqz	s10,3b54 <st_find_item+0x134>
    3b4c:	410aa783          	lw	a5,1040(s5)
    3b50:	00fd2023          	sw	a5,0(s10)
    3b54:	19fd                	addi	s3,s3,-1
    3b56:	09c2                	slli	s3,s3,0x10
    3b58:	0109d993          	srli	s3,s3,0x10
    3b5c:	07f00793          	li	a5,127
    3b60:	197d                	addi	s2,s2,-1
    3b62:	0137f463          	bgeu	a5,s3,3b6a <st_find_item+0x14a>
    3b66:	07f00913          	li	s2,127
    3b6a:	f32a16e3          	bne	s4,s2,3a96 <st_find_item+0x76>
    3b6e:	14c12083          	lw	ra,332(sp)
    3b72:	14812403          	lw	s0,328(sp)
    3b76:	8526                	mv	a0,s1
    3b78:	14012903          	lw	s2,320(sp)
    3b7c:	14412483          	lw	s1,324(sp)
    3b80:	13c12983          	lw	s3,316(sp)
    3b84:	13812a03          	lw	s4,312(sp)
    3b88:	13412a83          	lw	s5,308(sp)
    3b8c:	13012b03          	lw	s6,304(sp)
    3b90:	12c12b83          	lw	s7,300(sp)
    3b94:	12812c03          	lw	s8,296(sp)
    3b98:	12412c83          	lw	s9,292(sp)
    3b9c:	12012d03          	lw	s10,288(sp)
    3ba0:	11c12d83          	lw	s11,284(sp)
    3ba4:	6171                	addi	sp,sp,336
    3ba6:	8082                	ret
    3ba8:	62a1d603          	lhu	a2,1578(gp) # 20001f12 <st_ctx+0x40a>
    3bac:	f6f61fe3          	bne	a2,a5,3b2a <st_find_item+0x10a>
    3bb0:	86ca                	mv	a3,s2
    3bb2:	85ee                	mv	a1,s11
    3bb4:	8722                	mv	a4,s0
    3bb6:	00009517          	auipc	a0,0x9
    3bba:	fea50513          	addi	a0,a0,-22 # cba0 <__FUNCTION__.4169+0x158>
    3bbe:	586020ef          	jal	ra,6144 <iprintf>
    3bc2:	00440593          	addi	a1,s0,4
    3bc6:	01414683          	lbu	a3,20(sp)
    3bca:	05c2                	slli	a1,a1,0x10
    3bcc:	0830                	addi	a2,sp,24
    3bce:	81c1                	srli	a1,a1,0x10
    3bd0:	854e                	mv	a0,s3
    3bd2:	87fff0ef          	jal	ra,3450 <st_page_read>
    3bd6:	00055b63          	bgez	a0,3bec <st_find_item+0x1cc>
    3bda:	00009597          	auipc	a1,0x9
    3bde:	27258593          	addi	a1,a1,626 # ce4c <__FUNCTION__.4169+0x404>
    3be2:	00009517          	auipc	a0,0x9
    3be6:	fee50513          	addi	a0,a0,-18 # cbd0 <__FUNCTION__.4169+0x188>
    3bea:	b731                	j	3af6 <st_find_item+0xd6>
    3bec:	0848                	addi	a0,sp,20
    3bee:	829ff0ef          	jal	ra,3416 <st_item_verify>
    3bf2:	e10d                	bnez	a0,3c14 <st_find_item+0x1f4>
    3bf4:	85ee                	mv	a1,s11
    3bf6:	00009517          	auipc	a0,0x9
    3bfa:	ffe50513          	addi	a0,a0,-2 # cbf4 <__FUNCTION__.4169+0x1ac>
    3bfe:	546020ef          	jal	ra,6144 <iprintf>
    3c02:	4691                	li	a3,4
    3c04:	0850                	addi	a2,sp,20
    3c06:	85a2                	mv	a1,s0
    3c08:	854e                	mv	a0,s3
    3c0a:	00011b23          	sh	zero,22(sp)
    3c0e:	abbff0ef          	jal	ra,36c8 <st_page_write>
    3c12:	bf21                	j	3b2a <st_find_item+0x10a>
    3c14:	000b8863          	beqz	s7,3c24 <st_find_item+0x204>
    3c18:	0fc00613          	li	a2,252
    3c1c:	084c                	addi	a1,sp,20
    3c1e:	855e                	mv	a0,s7
    3c20:	480010ef          	jal	ra,50a0 <memcpy>
    3c24:	6301d783          	lhu	a5,1584(gp) # 20001f18 <st_ctx+0x410>
    3c28:	07f00713          	li	a4,127
    3c2c:	02f76463          	bltu	a4,a5,3c54 <st_find_item+0x234>
    3c30:	63018613          	addi	a2,gp,1584 # 20001f18 <st_ctx+0x410>
    3c34:	62a1d583          	lhu	a1,1578(gp) # 20001f12 <st_ctx+0x40a>
    3c38:	8556                	mv	a0,s5
    3c3a:	c67ff0ef          	jal	ra,38a0 <st_delete_item_with_loc>
    3c3e:	00055b63          	bgez	a0,3c54 <st_find_item+0x234>
    3c42:	00009597          	auipc	a1,0x9
    3c46:	20a58593          	addi	a1,a1,522 # ce4c <__FUNCTION__.4169+0x404>
    3c4a:	00009517          	auipc	a0,0x9
    3c4e:	fc650513          	addi	a0,a0,-58 # cc10 <__FUNCTION__.4169+0x1c8>
    3c52:	b555                	j	3af6 <st_find_item+0xd6>
    3c54:	63319823          	sh	s3,1584(gp) # 20001f18 <st_ctx+0x410>
    3c58:	62819923          	sh	s0,1586(gp) # 20001f1a <st_ctx+0x412>
    3c5c:	47d2                	lw	a5,20(sp)
    3c5e:	0c85                	addi	s9,s9,1
    3c60:	62f1a623          	sw	a5,1580(gp) # 20001f14 <st_ctx+0x40c>
    3c64:	b5d9                	j	3b2a <st_find_item+0x10a>
    3c66:	01ba87b3          	add	a5,s5,s11
    3c6a:	4c81                	li	s9,0
    3c6c:	4401                	li	s0,0
    3c6e:	c43e                	sw	a5,8(sp)
    3c70:	00009d97          	auipc	s11,0x9
    3c74:	1dcd8d93          	addi	s11,s11,476 # ce4c <__FUNCTION__.4169+0x404>
    3c78:	bd7d                	j	3b36 <st_find_item+0x116>
    3c7a:	ec97dde3          	bge	a5,s1,3b54 <st_find_item+0x134>
    3c7e:	63018613          	addi	a2,gp,1584 # 20001f18 <st_ctx+0x410>
    3c82:	85da                	mv	a1,s6
    3c84:	8562                	mv	a0,s8
    3c86:	c1bff0ef          	jal	ra,38a0 <st_delete_item_with_loc>
    3c8a:	ec0555e3          	bgez	a0,3b54 <st_find_item+0x134>
    3c8e:	00009597          	auipc	a1,0x9
    3c92:	1be58593          	addi	a1,a1,446 # ce4c <__FUNCTION__.4169+0x404>
    3c96:	00009517          	auipc	a0,0x9
    3c9a:	f9e50513          	addi	a0,a0,-98 # cc34 <__FUNCTION__.4169+0x1ec>
    3c9e:	bda1                	j	3af6 <st_find_item+0xd6>

00003ca0 <st_init>:
    3ca0:	7169                	addi	sp,sp,-304
    3ca2:	008007b7          	lui	a5,0x800
    3ca6:	11312e23          	sw	s3,284(sp)
    3caa:	08078793          	addi	a5,a5,128 # 800080 <_data_lma+0x7f2970>
    3cae:	69c1                	lui	s3,0x10
    3cb0:	12812423          	sw	s0,296(sp)
    3cb4:	13212023          	sw	s2,288(sp)
    3cb8:	11612823          	sw	s6,272(sp)
    3cbc:	11712623          	sw	s7,268(sp)
    3cc0:	12112623          	sw	ra,300(sp)
    3cc4:	12912223          	sw	s1,292(sp)
    3cc8:	11412c23          	sw	s4,280(sp)
    3ccc:	11512a23          	sw	s5,276(sp)
    3cd0:	11812423          	sw	s8,264(sp)
    3cd4:	22f1a223          	sw	a5,548(gp) # 20001b0c <st_ctx+0x4>
    3cd8:	22a18413          	addi	s0,gp,554 # 20001b12 <st_ctx+0xa>
    3cdc:	579000ef          	jal	ra,4a54 <worktime_get>
    3ce0:	4901                	li	s2,0
    3ce2:	19f5                	addi	s3,s3,-3
    3ce4:	00009b17          	auipc	s6,0x9
    3ce8:	024b0b13          	addi	s6,s6,36 # cd08 <__FUNCTION__.4169+0x2c0>
    3cec:	00009b97          	auipc	s7,0x9
    3cf0:	f08b8b93          	addi	s7,s7,-248 # cbf4 <__FUNCTION__.4169+0x1ac>
    3cf4:	00891a13          	slli	s4,s2,0x8
    3cf8:	01091493          	slli	s1,s2,0x10
    3cfc:	4685                	li	a3,1
    3cfe:	8622                	mv	a2,s0
    3d00:	85d2                	mv	a1,s4
    3d02:	452d                	li	a0,11
    3d04:	80c1                	srli	s1,s1,0x10
    3d06:	00041023          	sh	zero,0(s0)
    3d0a:	00041123          	sh	zero,2(s0)
    3d0e:	00041223          	sh	zero,4(s0)
    3d12:	00041323          	sh	zero,6(s0)
    3d16:	1fffd097          	auipc	ra,0x1fffd
    3d1a:	a0a080e7          	jalr	-1526(ra) # 20000720 <FLASH_EEPROM_CMD>
    3d1e:	c529                	beqz	a0,3d68 <st_init+0xc8>
    3d20:	00009597          	auipc	a1,0x9
    3d24:	12c58593          	addi	a1,a1,300 # ce4c <__FUNCTION__.4169+0x404>
    3d28:	00009517          	auipc	a0,0x9
    3d2c:	f2850513          	addi	a0,a0,-216 # cc50 <__FUNCTION__.4169+0x208>
    3d30:	414020ef          	jal	ra,6144 <iprintf>
    3d34:	12c12083          	lw	ra,300(sp)
    3d38:	12812403          	lw	s0,296(sp)
    3d3c:	4785                	li	a5,1
    3d3e:	22f18023          	sb	a5,544(gp) # 20001b08 <st_ctx>
    3d42:	12412483          	lw	s1,292(sp)
    3d46:	12012903          	lw	s2,288(sp)
    3d4a:	11c12983          	lw	s3,284(sp)
    3d4e:	11812a03          	lw	s4,280(sp)
    3d52:	11412a83          	lw	s5,276(sp)
    3d56:	11012b03          	lw	s6,272(sp)
    3d5a:	10c12b83          	lw	s7,268(sp)
    3d5e:	10812c03          	lw	s8,264(sp)
    3d62:	4501                	li	a0,0
    3d64:	6155                	addi	sp,sp,304
    3d66:	8082                	ret
    3d68:	00044503          	lbu	a0,0(s0)
    3d6c:	e5cff0ef          	jal	ra,33c8 <st_page_status_str>
    3d70:	86aa                	mv	a3,a0
    3d72:	864a                	mv	a2,s2
    3d74:	00009597          	auipc	a1,0x9
    3d78:	0d858593          	addi	a1,a1,216 # ce4c <__FUNCTION__.4169+0x404>
    3d7c:	00009517          	auipc	a0,0x9
    3d80:	ef850513          	addi	a0,a0,-264 # cc74 <__FUNCTION__.4169+0x22c>
    3d84:	3c0020ef          	jal	ra,6144 <iprintf>
    3d88:	00044603          	lbu	a2,0(s0)
    3d8c:	0fc00793          	li	a5,252
    3d90:	0cf60e63          	beq	a2,a5,3e6c <st_init+0x1cc>
    3d94:	02c7e863          	bltu	a5,a2,3dc4 <st_init+0x124>
    3d98:	c64d                	beqz	a2,3e42 <st_init+0x1a2>
    3d9a:	00009597          	auipc	a1,0x9
    3d9e:	0b258593          	addi	a1,a1,178 # ce4c <__FUNCTION__.4169+0x404>
    3da2:	00009517          	auipc	a0,0x9
    3da6:	fee50513          	addi	a0,a0,-18 # cd90 <__FUNCTION__.4169+0x348>
    3daa:	39a020ef          	jal	ra,6144 <iprintf>
    3dae:	85a6                	mv	a1,s1
    3db0:	22018513          	addi	a0,gp,544 # 20001b08 <st_ctx>
    3db4:	f10ff0ef          	jal	ra,34c4 <st_page_erase>
    3db8:	24054c63          	bltz	a0,4010 <st_init+0x370>
    3dbc:	57fd                	li	a5,-1
    3dbe:	00f40023          	sb	a5,0(s0)
    3dc2:	a041                	j	3e42 <st_init+0x1a2>
    3dc4:	0fe00793          	li	a5,254
    3dc8:	0af60263          	beq	a2,a5,3e6c <st_init+0x1cc>
    3dcc:	0ff00793          	li	a5,255
    3dd0:	fcf615e3          	bne	a2,a5,3d9a <st_init+0xfa>
    3dd4:	10000613          	li	a2,256
    3dd8:	0ff00593          	li	a1,255
    3ddc:	850a                	mv	a0,sp
    3dde:	dddfc0ef          	jal	ra,bba <memset>
    3de2:	10000693          	li	a3,256
    3de6:	860a                	mv	a2,sp
    3de8:	85d2                	mv	a1,s4
    3dea:	452d                	li	a0,11
    3dec:	1fffd097          	auipc	ra,0x1fffd
    3df0:	934080e7          	jalr	-1740(ra) # 20000720 <FLASH_EEPROM_CMD>
    3df4:	c505                	beqz	a0,3e1c <st_init+0x17c>
    3df6:	00009597          	auipc	a1,0x9
    3dfa:	05658593          	addi	a1,a1,86 # ce4c <__FUNCTION__.4169+0x404>
    3dfe:	00009517          	auipc	a0,0x9
    3e02:	e8a50513          	addi	a0,a0,-374 # cc88 <__FUNCTION__.4169+0x240>
    3e06:	33e020ef          	jal	ra,6144 <iprintf>
    3e0a:	00009597          	auipc	a1,0x9
    3e0e:	04258593          	addi	a1,a1,66 # ce4c <__FUNCTION__.4169+0x404>
    3e12:	00009517          	auipc	a0,0x9
    3e16:	e8a50513          	addi	a0,a0,-374 # cc9c <__FUNCTION__.4169+0x254>
    3e1a:	bf19                	j	3d30 <st_init+0x90>
    3e1c:	4781                	li	a5,0
    3e1e:	0ff00693          	li	a3,255
    3e22:	10000713          	li	a4,256
    3e26:	00f10633          	add	a2,sp,a5
    3e2a:	00064603          	lbu	a2,0(a2)
    3e2e:	1cd61063          	bne	a2,a3,3fee <st_init+0x34e>
    3e32:	0785                	addi	a5,a5,1
    3e34:	fee799e3          	bne	a5,a4,3e26 <st_init+0x186>
    3e38:	2221d783          	lhu	a5,546(gp) # 20001b0a <st_ctx+0x2>
    3e3c:	0785                	addi	a5,a5,1
    3e3e:	22f19123          	sh	a5,546(gp) # 20001b0a <st_ctx+0x2>
    3e42:	0905                	addi	s2,s2,1
    3e44:	08000793          	li	a5,128
    3e48:	0421                	addi	s0,s0,8
    3e4a:	eaf915e3          	bne	s2,a5,3cf4 <st_init+0x54>
    3e4e:	2241d683          	lhu	a3,548(gp) # 20001b0c <st_ctx+0x4>
    3e52:	2221d603          	lhu	a2,546(gp) # 20001b0a <st_ctx+0x2>
    3e56:	00009597          	auipc	a1,0x9
    3e5a:	ff658593          	addi	a1,a1,-10 # ce4c <__FUNCTION__.4169+0x404>
    3e5e:	00009517          	auipc	a0,0x9
    3e62:	f6250513          	addi	a0,a0,-158 # cdc0 <__FUNCTION__.4169+0x378>
    3e66:	2de020ef          	jal	ra,6144 <iprintf>
    3e6a:	b5e9                	j	3d34 <st_init+0x94>
    3e6c:	0fc00613          	li	a2,252
    3e70:	4581                	li	a1,0
    3e72:	850a                	mv	a0,sp
    3e74:	d47fc0ef          	jal	ra,bba <memset>
    3e78:	864a                	mv	a2,s2
    3e7a:	00009597          	auipc	a1,0x9
    3e7e:	fd258593          	addi	a1,a1,-46 # ce4c <__FUNCTION__.4169+0x404>
    3e82:	00009517          	auipc	a0,0x9
    3e86:	e4a50513          	addi	a0,a0,-438 # cccc <__FUNCTION__.4169+0x284>
    3e8a:	00041223          	sh	zero,4(s0)
    3e8e:	00041123          	sh	zero,2(s0)
    3e92:	0fe00a13          	li	s4,254
    3e96:	2ae020ef          	jal	ra,6144 <iprintf>
    3e9a:	0ff00c13          	li	s8,255
    3e9e:	00009a97          	auipc	s5,0x9
    3ea2:	faea8a93          	addi	s5,s5,-82 # ce4c <__FUNCTION__.4169+0x404>
    3ea6:	00445583          	lhu	a1,4(s0)
    3eaa:	04ba7163          	bgeu	s4,a1,3eec <st_init+0x24c>
    3eae:	0fc00593          	li	a1,252
    3eb2:	8526                	mv	a0,s1
    3eb4:	ea8ff0ef          	jal	ra,355c <st_page_status_update.constprop.12>
    3eb8:	00044703          	lbu	a4,0(s0)
    3ebc:	0fc00793          	li	a5,252
    3ec0:	10f71563          	bne	a4,a5,3fca <st_init+0x32a>
    3ec4:	00245783          	lhu	a5,2(s0)
    3ec8:	10079163          	bnez	a5,3fca <st_init+0x32a>
    3ecc:	85a6                	mv	a1,s1
    3ece:	22018513          	addi	a0,gp,544 # 20001b08 <st_ctx>
    3ed2:	df2ff0ef          	jal	ra,34c4 <st_page_erase>
    3ed6:	0e055a63          	bgez	a0,3fca <st_init+0x32a>
    3eda:	00009597          	auipc	a1,0x9
    3ede:	f7258593          	addi	a1,a1,-142 # ce4c <__FUNCTION__.4169+0x404>
    3ee2:	00009517          	auipc	a0,0x9
    3ee6:	c8650513          	addi	a0,a0,-890 # cb68 <__FUNCTION__.4169+0x120>
    3eea:	a005                	j	3f0a <st_init+0x26a>
    3eec:	4691                	li	a3,4
    3eee:	860a                	mv	a2,sp
    3ef0:	8526                	mv	a0,s1
    3ef2:	d5eff0ef          	jal	ra,3450 <st_page_read>
    3ef6:	02055563          	bgez	a0,3f20 <st_init+0x280>
    3efa:	00009597          	auipc	a1,0x9
    3efe:	f5258593          	addi	a1,a1,-174 # ce4c <__FUNCTION__.4169+0x404>
    3f02:	00009517          	auipc	a0,0x9
    3f06:	de250513          	addi	a0,a0,-542 # cce4 <__FUNCTION__.4169+0x29c>
    3f0a:	23a020ef          	jal	ra,6144 <iprintf>
    3f0e:	00009597          	auipc	a1,0x9
    3f12:	f3e58593          	addi	a1,a1,-194 # ce4c <__FUNCTION__.4169+0x404>
    3f16:	00009517          	auipc	a0,0x9
    3f1a:	e5e50513          	addi	a0,a0,-418 # cd74 <__FUNCTION__.4169+0x32c>
    3f1e:	bd09                	j	3d30 <st_init+0x90>
    3f20:	00014603          	lbu	a2,0(sp)
    3f24:	09860e63          	beq	a2,s8,3fc0 <st_init+0x320>
    3f28:	00215683          	lhu	a3,2(sp)
    3f2c:	fff68793          	addi	a5,a3,-1
    3f30:	07c2                	slli	a5,a5,0x10
    3f32:	83c1                	srli	a5,a5,0x10
    3f34:	04f9ef63          	bltu	s3,a5,3f92 <st_init+0x2f2>
    3f38:	00114703          	lbu	a4,1(sp)
    3f3c:	85d6                	mv	a1,s5
    3f3e:	855a                	mv	a0,s6
    3f40:	204020ef          	jal	ra,6144 <iprintf>
    3f44:	00445583          	lhu	a1,4(s0)
    3f48:	00014683          	lbu	a3,0(sp)
    3f4c:	0050                	addi	a2,sp,4
    3f4e:	0591                	addi	a1,a1,4
    3f50:	05c2                	slli	a1,a1,0x10
    3f52:	81c1                	srli	a1,a1,0x10
    3f54:	8526                	mv	a0,s1
    3f56:	cfaff0ef          	jal	ra,3450 <st_page_read>
    3f5a:	00055b63          	bgez	a0,3f70 <st_init+0x2d0>
    3f5e:	00009597          	auipc	a1,0x9
    3f62:	eee58593          	addi	a1,a1,-274 # ce4c <__FUNCTION__.4169+0x404>
    3f66:	00009517          	auipc	a0,0x9
    3f6a:	c6a50513          	addi	a0,a0,-918 # cbd0 <__FUNCTION__.4169+0x188>
    3f6e:	bf71                	j	3f0a <st_init+0x26a>
    3f70:	850a                	mv	a0,sp
    3f72:	ca4ff0ef          	jal	ra,3416 <st_item_verify>
    3f76:	e51d                	bnez	a0,3fa4 <st_init+0x304>
    3f78:	85d6                	mv	a1,s5
    3f7a:	855e                	mv	a0,s7
    3f7c:	1c8020ef          	jal	ra,6144 <iprintf>
    3f80:	00445583          	lhu	a1,4(s0)
    3f84:	4691                	li	a3,4
    3f86:	860a                	mv	a2,sp
    3f88:	8526                	mv	a0,s1
    3f8a:	00011123          	sh	zero,2(sp)
    3f8e:	f3aff0ef          	jal	ra,36c8 <st_page_write>
    3f92:	00014783          	lbu	a5,0(sp)
    3f96:	00445703          	lhu	a4,4(s0)
    3f9a:	0791                	addi	a5,a5,4
    3f9c:	97ba                	add	a5,a5,a4
    3f9e:	00f41223          	sh	a5,4(s0)
    3fa2:	b711                	j	3ea6 <st_init+0x206>
    3fa4:	00014783          	lbu	a5,0(sp)
    3fa8:	00645703          	lhu	a4,6(s0)
    3fac:	0791                	addi	a5,a5,4
    3fae:	97ba                	add	a5,a5,a4
    3fb0:	00f41323          	sh	a5,6(s0)
    3fb4:	00245783          	lhu	a5,2(s0)
    3fb8:	0785                	addi	a5,a5,1
    3fba:	00f41123          	sh	a5,2(s0)
    3fbe:	bfd1                	j	3f92 <st_init+0x2f2>
    3fc0:	00445783          	lhu	a5,4(s0)
    3fc4:	eefa7ae3          	bgeu	s4,a5,3eb8 <st_init+0x218>
    3fc8:	b5dd                	j	3eae <st_init+0x20e>
    3fca:	00645703          	lhu	a4,6(s0)
    3fce:	00445683          	lhu	a3,4(s0)
    3fd2:	864a                	mv	a2,s2
    3fd4:	00009597          	auipc	a1,0x9
    3fd8:	e7858593          	addi	a1,a1,-392 # ce4c <__FUNCTION__.4169+0x404>
    3fdc:	00009517          	auipc	a0,0x9
    3fe0:	d5850513          	addi	a0,a0,-680 # cd34 <__FUNCTION__.4169+0x2ec>
    3fe4:	160020ef          	jal	ra,6144 <iprintf>
    3fe8:	22919223          	sh	s1,548(gp) # 20001b0c <st_ctx+0x4>
    3fec:	bd99                	j	3e42 <st_init+0x1a2>
    3fee:	00009597          	auipc	a1,0x9
    3ff2:	e5e58593          	addi	a1,a1,-418 # ce4c <__FUNCTION__.4169+0x404>
    3ff6:	00009517          	auipc	a0,0x9
    3ffa:	dfa50513          	addi	a0,a0,-518 # cdf0 <__FUNCTION__.4169+0x3a8>
    3ffe:	146020ef          	jal	ra,6144 <iprintf>
    4002:	85a6                	mv	a1,s1
    4004:	22018513          	addi	a0,gp,544 # 20001b08 <st_ctx>
    4008:	cbcff0ef          	jal	ra,34c4 <st_page_erase>
    400c:	e20556e3          	bgez	a0,3e38 <st_init+0x198>
    4010:	00009597          	auipc	a1,0x9
    4014:	e3c58593          	addi	a1,a1,-452 # ce4c <__FUNCTION__.4169+0x404>
    4018:	00009517          	auipc	a0,0x9
    401c:	ca050513          	addi	a0,a0,-864 # ccb8 <__FUNCTION__.4169+0x270>
    4020:	bb01                	j	3d30 <st_init+0x90>

00004022 <st_write_item>:
    4022:	dc010113          	addi	sp,sp,-576
    4026:	22812c23          	sw	s0,568(sp)
    402a:	23212823          	sw	s2,560(sp)
    402e:	23312623          	sw	s3,556(sp)
    4032:	842e                	mv	s0,a1
    4034:	89aa                	mv	s3,a0
    4036:	4581                	li	a1,0
    4038:	8932                	mv	s2,a2
    403a:	0828                	addi	a0,sp,24
    403c:	0fc00613          	li	a2,252
    4040:	22112e23          	sw	ra,572(sp)
    4044:	22912a23          	sw	s1,564(sp)
    4048:	23412423          	sw	s4,552(sp)
    404c:	23512223          	sw	s5,548(sp)
    4050:	23612023          	sw	s6,544(sp)
    4054:	21712e23          	sw	s7,540(sp)
    4058:	21812c23          	sw	s8,536(sp)
    405c:	21912a23          	sw	s9,532(sp)
    4060:	b5bfc0ef          	jal	ra,bba <memset>
    4064:	4651                	li	a2,20
    4066:	00008597          	auipc	a1,0x8
    406a:	1e258593          	addi	a1,a1,482 # c248 <_sbrk+0x34>
    406e:	0048                	addi	a0,sp,4
    4070:	c002                	sw	zero,0(sp)
    4072:	02e010ef          	jal	ra,50a0 <memcpy>
    4076:	c429                	beqz	s0,40c0 <st_write_item+0x9e>
    4078:	fff90793          	addi	a5,s2,-1
    407c:	0f700713          	li	a4,247
    4080:	557d                	li	a0,-1
    4082:	38f76a63          	bltu	a4,a5,4416 <st_write_item+0x3f4>
    4086:	fff98713          	addi	a4,s3,-1 # ffff <_data_lma+0x28ef>
    408a:	0742                	slli	a4,a4,0x10
    408c:	67c1                	lui	a5,0x10
    408e:	8341                	srli	a4,a4,0x10
    4090:	17f5                	addi	a5,a5,-3
    4092:	38e7e263          	bltu	a5,a4,4416 <st_write_item+0x3f4>
    4096:	08000793          	li	a5,128
    409a:	860a                	mv	a2,sp
    409c:	082c                	addi	a1,sp,24
    409e:	854e                	mv	a0,s3
    40a0:	00f11023          	sh	a5,0(sp)
    40a4:	97dff0ef          	jal	ra,3a20 <st_find_item>
    40a8:	00055e63          	bgez	a0,40c4 <st_write_item+0xa2>
    40ac:	00009597          	auipc	a1,0x9
    40b0:	da058593          	addi	a1,a1,-608 # ce4c <__FUNCTION__.4169+0x404>
    40b4:	00009517          	auipc	a0,0x9
    40b8:	f0450513          	addi	a0,a0,-252 # cfb8 <__FUNCTION__.4169+0x570>
    40bc:	088020ef          	jal	ra,6144 <iprintf>
    40c0:	557d                	li	a0,-1
    40c2:	ae91                	j	4416 <st_write_item+0x3f4>
    40c4:	864a                	mv	a2,s2
    40c6:	85a2                	mv	a1,s0
    40c8:	0868                	addi	a0,sp,28
    40ca:	01210c23          	sb	s2,24(sp)
    40ce:	01311d23          	sh	s3,26(sp)
    40d2:	7cf000ef          	jal	ra,50a0 <memcpy>
    40d6:	864a                	mv	a2,s2
    40d8:	086c                	addi	a1,sp,28
    40da:	0048                	addi	a0,sp,4
    40dc:	802fd0ef          	jal	ra,10de <crc_check>
    40e0:	00a10ca3          	sb	a0,25(sp)
    40e4:	0911                	addi	s2,s2,4
    40e6:	0f800793          	li	a5,248
    40ea:	547d                	li	s0,-1
    40ec:	0f27e763          	bltu	a5,s2,41da <st_write_item+0x1b8>
    40f0:	2241d483          	lhu	s1,548(gp) # 20001b0c <st_ctx+0x4>
    40f4:	07f00a13          	li	s4,127
    40f8:	8426                	mv	s0,s1
    40fa:	009a7c63          	bgeu	s4,s1,4112 <st_write_item+0xf0>
    40fe:	0fe00593          	li	a1,254
    4102:	4501                	li	a0,0
    4104:	d82ff0ef          	jal	ra,3686 <st_first_page.constprop.11>
    4108:	01051413          	slli	s0,a0,0x10
    410c:	8041                	srli	s0,s0,0x10
    410e:	288a6363          	bltu	s4,s0,4394 <st_write_item+0x372>
    4112:	8522                	mv	a0,s0
    4114:	d26ff0ef          	jal	ra,363a <st_page_get_freesize.constprop.13>
    4118:	0d257163          	bgeu	a0,s2,41da <st_write_item+0x1b8>
    411c:	2221d703          	lhu	a4,546(gp) # 20001b0a <st_ctx+0x2>
    4120:	4789                	li	a5,2
    4122:	08e7ea63          	bltu	a5,a4,41b6 <st_write_item+0x194>
    4126:	07f00793          	li	a5,127
    412a:	0097f363          	bgeu	a5,s1,4130 <st_write_item+0x10e>
    412e:	4481                	li	s1,0
    4130:	22018613          	addi	a2,gp,544 # 20001b08 <st_ctx>
    4134:	6541                	lui	a0,0x10
    4136:	87a6                	mv	a5,s1
    4138:	08000413          	li	s0,128
    413c:	0fc00893          	li	a7,252
    4140:	8a32                	mv	s4,a2
    4142:	07f00593          	li	a1,127
    4146:	157d                	addi	a0,a0,-1
    4148:	00379693          	slli	a3,a5,0x3
    414c:	96b2                	add	a3,a3,a2
    414e:	00a6c803          	lbu	a6,10(a3)
    4152:	01079713          	slli	a4,a5,0x10
    4156:	8341                	srli	a4,a4,0x10
    4158:	01181e63          	bne	a6,a7,4174 <st_write_item+0x152>
    415c:	0085eb63          	bltu	a1,s0,4172 <st_write_item+0x150>
    4160:	00341813          	slli	a6,s0,0x3
    4164:	9832                	add	a6,a6,a2
    4166:	00c6d303          	lhu	t1,12(a3)
    416a:	00c85683          	lhu	a3,12(a6)
    416e:	00d37363          	bgeu	t1,a3,4174 <st_write_item+0x152>
    4172:	843a                	mv	s0,a4
    4174:	08e5e363          	bltu	a1,a4,41fa <st_write_item+0x1d8>
    4178:	08b70363          	beq	a4,a1,41fe <st_write_item+0x1dc>
    417c:	8fe9                	and	a5,a5,a0
    417e:	0785                	addi	a5,a5,1
    4180:	fcf494e3          	bne	s1,a5,4148 <st_write_item+0x126>
    4184:	07f00793          	li	a5,127
    4188:	0687fd63          	bgeu	a5,s0,4202 <st_write_item+0x1e0>
    418c:	00009617          	auipc	a2,0x9
    4190:	8b060613          	addi	a2,a2,-1872 # ca3c <__FUNCTION__.4144>
    4194:	00009597          	auipc	a1,0x9
    4198:	cb858593          	addi	a1,a1,-840 # ce4c <__FUNCTION__.4169+0x404>
    419c:	00009517          	auipc	a0,0x9
    41a0:	e3850513          	addi	a0,a0,-456 # cfd4 <__FUNCTION__.4169+0x58c>
    41a4:	7a1010ef          	jal	ra,6144 <iprintf>
    41a8:	2241d403          	lhu	s0,548(gp) # 20001b0c <st_ctx+0x4>
    41ac:	8522                	mv	a0,s0
    41ae:	c8cff0ef          	jal	ra,363a <st_page_get_freesize.constprop.13>
    41b2:	03257463          	bgeu	a0,s2,41da <st_write_item+0x1b8>
    41b6:	0fc00593          	li	a1,252
    41ba:	8522                	mv	a0,s0
    41bc:	ba0ff0ef          	jal	ra,355c <st_page_status_update.constprop.12>
    41c0:	1c055b63          	bgez	a0,4396 <st_write_item+0x374>
    41c4:	00009597          	auipc	a1,0x9
    41c8:	c8858593          	addi	a1,a1,-888 # ce4c <__FUNCTION__.4169+0x404>
    41cc:	00009517          	auipc	a0,0x9
    41d0:	e7450513          	addi	a0,a0,-396 # d040 <__FUNCTION__.4169+0x5f8>
    41d4:	771010ef          	jal	ra,6144 <iprintf>
    41d8:	547d                	li	s0,-1
    41da:	01041493          	slli	s1,s0,0x10
    41de:	80c1                	srli	s1,s1,0x10
    41e0:	07f00793          	li	a5,127
    41e4:	1e97f763          	bgeu	a5,s1,43d2 <st_write_item+0x3b0>
    41e8:	00009597          	auipc	a1,0x9
    41ec:	c6458593          	addi	a1,a1,-924 # ce4c <__FUNCTION__.4169+0x404>
    41f0:	00009517          	auipc	a0,0x9
    41f4:	e8850513          	addi	a0,a0,-376 # d078 <__FUNCTION__.4169+0x630>
    41f8:	b5d1                	j	40bc <st_write_item+0x9a>
    41fa:	57fd                	li	a5,-1
    41fc:	b7b1                	j	4148 <st_write_item+0x126>
    41fe:	4781                	li	a5,0
    4200:	b741                	j	4180 <st_write_item+0x15e>
    4202:	0fc00613          	li	a2,252
    4206:	4581                	li	a1,0
    4208:	0a48                	addi	a0,sp,276
    420a:	9b1fc0ef          	jal	ra,bba <memset>
    420e:	8622                	mv	a2,s0
    4210:	00009597          	auipc	a1,0x9
    4214:	c3c58593          	addi	a1,a1,-964 # ce4c <__FUNCTION__.4169+0x404>
    4218:	00009517          	auipc	a0,0x9
    421c:	dd850513          	addi	a0,a0,-552 # cff0 <__FUNCTION__.4169+0x5a8>
    4220:	725010ef          	jal	ra,6144 <iprintf>
    4224:	00341793          	slli	a5,s0,0x3
    4228:	4481                	li	s1,0
    422a:	9a3e                	add	s4,s4,a5
    422c:	07f00a93          	li	s5,127
    4230:	00009b17          	auipc	s6,0x9
    4234:	c1cb0b13          	addi	s6,s6,-996 # ce4c <__FUNCTION__.4169+0x404>
    4238:	00009b97          	auipc	s7,0x9
    423c:	9bcb8b93          	addi	s7,s7,-1604 # cbf4 <__FUNCTION__.4169+0x1ac>
    4240:	00ea5783          	lhu	a5,14(s4)
    4244:	02f4e263          	bltu	s1,a5,4268 <st_write_item+0x246>
    4248:	85a2                	mv	a1,s0
    424a:	22018513          	addi	a0,gp,544 # 20001b08 <st_ctx>
    424e:	a76ff0ef          	jal	ra,34c4 <st_page_erase>
    4252:	f4055be3          	bgez	a0,41a8 <st_write_item+0x186>
    4256:	00009597          	auipc	a1,0x9
    425a:	bf658593          	addi	a1,a1,-1034 # ce4c <__FUNCTION__.4169+0x404>
    425e:	00009517          	auipc	a0,0x9
    4262:	90a50513          	addi	a0,a0,-1782 # cb68 <__FUNCTION__.4169+0x120>
    4266:	a00d                	j	4288 <st_write_item+0x266>
    4268:	4691                	li	a3,4
    426a:	0a50                	addi	a2,sp,276
    426c:	85a6                	mv	a1,s1
    426e:	8522                	mv	a0,s0
    4270:	9e0ff0ef          	jal	ra,3450 <st_page_read>
    4274:	02055663          	bgez	a0,42a0 <st_write_item+0x27e>
    4278:	00009597          	auipc	a1,0x9
    427c:	bd458593          	addi	a1,a1,-1068 # ce4c <__FUNCTION__.4169+0x404>
    4280:	00009517          	auipc	a0,0x9
    4284:	8fc50513          	addi	a0,a0,-1796 # cb7c <__FUNCTION__.4169+0x134>
    4288:	6bd010ef          	jal	ra,6144 <iprintf>
    428c:	8622                	mv	a2,s0
    428e:	00009597          	auipc	a1,0x9
    4292:	bbe58593          	addi	a1,a1,-1090 # ce4c <__FUNCTION__.4169+0x404>
    4296:	00009517          	auipc	a0,0x9
    429a:	d8a50513          	addi	a0,a0,-630 # d020 <__FUNCTION__.4169+0x5d8>
    429e:	b719                	j	41a4 <st_write_item+0x182>
    42a0:	11514783          	lbu	a5,277(sp)
    42a4:	11414683          	lbu	a3,276(sp)
    42a8:	c781                	beqz	a5,42b0 <st_write_item+0x28e>
    42aa:	11615783          	lhu	a5,278(sp)
    42ae:	e791                	bnez	a5,42ba <st_write_item+0x298>
    42b0:	0691                	addi	a3,a3,4
    42b2:	94b6                	add	s1,s1,a3
    42b4:	04c2                	slli	s1,s1,0x10
    42b6:	80c1                	srli	s1,s1,0x10
    42b8:	b761                	j	4240 <st_write_item+0x21e>
    42ba:	00448593          	addi	a1,s1,4
    42be:	05c2                	slli	a1,a1,0x10
    42c0:	0a30                	addi	a2,sp,280
    42c2:	81c1                	srli	a1,a1,0x10
    42c4:	8522                	mv	a0,s0
    42c6:	98aff0ef          	jal	ra,3450 <st_page_read>
    42ca:	00055b63          	bgez	a0,42e0 <st_write_item+0x2be>
    42ce:	00009597          	auipc	a1,0x9
    42d2:	b7e58593          	addi	a1,a1,-1154 # ce4c <__FUNCTION__.4169+0x404>
    42d6:	00009517          	auipc	a0,0x9
    42da:	8fa50513          	addi	a0,a0,-1798 # cbd0 <__FUNCTION__.4169+0x188>
    42de:	b76d                	j	4288 <st_write_item+0x266>
    42e0:	0a48                	addi	a0,sp,276
    42e2:	934ff0ef          	jal	ra,3416 <st_item_verify>
    42e6:	e915                	bnez	a0,431a <st_write_item+0x2f8>
    42e8:	85da                	mv	a1,s6
    42ea:	855e                	mv	a0,s7
    42ec:	659010ef          	jal	ra,6144 <iprintf>
    42f0:	85a6                	mv	a1,s1
    42f2:	4691                	li	a3,4
    42f4:	0a50                	addi	a2,sp,276
    42f6:	8522                	mv	a0,s0
    42f8:	10011b23          	sh	zero,278(sp)
    42fc:	bccff0ef          	jal	ra,36c8 <st_page_write>
    4300:	11414783          	lbu	a5,276(sp)
    4304:	0791                	addi	a5,a5,4
    4306:	94be                	add	s1,s1,a5
    4308:	00ca5783          	lhu	a5,12(s4)
    430c:	04c2                	slli	s1,s1,0x10
    430e:	80c1                	srli	s1,s1,0x10
    4310:	db85                	beqz	a5,4240 <st_write_item+0x21e>
    4312:	17fd                	addi	a5,a5,-1
    4314:	00fa1623          	sh	a5,12(s4)
    4318:	b725                	j	4240 <st_write_item+0x21e>
    431a:	2241dc03          	lhu	s8,548(gp) # 20001b0c <st_ctx+0x4>
    431e:	8562                	mv	a0,s8
    4320:	b1aff0ef          	jal	ra,363a <st_page_get_freesize.constprop.13>
    4324:	11414783          	lbu	a5,276(sp)
    4328:	0791                	addi	a5,a5,4
    432a:	04f57063          	bgeu	a0,a5,436a <st_write_item+0x348>
    432e:	0ff00593          	li	a1,255
    4332:	8562                	mv	a0,s8
    4334:	b52ff0ef          	jal	ra,3686 <st_first_page.constprop.11>
    4338:	01051c93          	slli	s9,a0,0x10
    433c:	010cdc93          	srli	s9,s9,0x10
    4340:	019afb63          	bgeu	s5,s9,4356 <st_write_item+0x334>
    4344:	00009597          	auipc	a1,0x9
    4348:	b0858593          	addi	a1,a1,-1272 # ce4c <__FUNCTION__.4169+0x404>
    434c:	00009517          	auipc	a0,0x9
    4350:	cbc50513          	addi	a0,a0,-836 # d008 <__FUNCTION__.4169+0x5c0>
    4354:	bf15                	j	4288 <st_write_item+0x266>
    4356:	0fc00593          	li	a1,252
    435a:	8562                	mv	a0,s8
    435c:	a00ff0ef          	jal	ra,355c <st_page_status_update.constprop.12>
    4360:	0fe00593          	li	a1,254
    4364:	8566                	mv	a0,s9
    4366:	9f6ff0ef          	jal	ra,355c <st_page_status_update.constprop.12>
    436a:	0a4c                	addi	a1,sp,276
    436c:	2241d503          	lhu	a0,548(gp) # 20001b0c <st_ctx+0x4>
    4370:	be2ff0ef          	jal	ra,3752 <st_page_write_item.constprop.10>
    4374:	00055b63          	bgez	a0,438a <st_write_item+0x368>
    4378:	00009597          	auipc	a1,0x9
    437c:	ad458593          	addi	a1,a1,-1324 # ce4c <__FUNCTION__.4169+0x404>
    4380:	00009517          	auipc	a0,0x9
    4384:	bf850513          	addi	a0,a0,-1032 # cf78 <__FUNCTION__.4169+0x530>
    4388:	b701                	j	4288 <st_write_item+0x266>
    438a:	11414783          	lbu	a5,276(sp)
    438e:	0791                	addi	a5,a5,4
    4390:	94be                	add	s1,s1,a5
    4392:	b70d                	j	42b4 <st_write_item+0x292>
    4394:	4401                	li	s0,0
    4396:	8522                	mv	a0,s0
    4398:	0ff00593          	li	a1,255
    439c:	aeaff0ef          	jal	ra,3686 <st_first_page.constprop.11>
    43a0:	842a                	mv	s0,a0
    43a2:	0542                	slli	a0,a0,0x10
    43a4:	8141                	srli	a0,a0,0x10
    43a6:	07f00793          	li	a5,127
    43aa:	00a7fb63          	bgeu	a5,a0,43c0 <st_write_item+0x39e>
    43ae:	00009597          	auipc	a1,0x9
    43b2:	a9e58593          	addi	a1,a1,-1378 # ce4c <__FUNCTION__.4169+0x404>
    43b6:	00009517          	auipc	a0,0x9
    43ba:	caa50513          	addi	a0,a0,-854 # d060 <__FUNCTION__.4169+0x618>
    43be:	bd19                	j	41d4 <st_write_item+0x1b2>
    43c0:	0fe00593          	li	a1,254
    43c4:	998ff0ef          	jal	ra,355c <st_page_status_update.constprop.12>
    43c8:	de054ee3          	bltz	a0,41c4 <st_write_item+0x1a2>
    43cc:	0442                	slli	s0,s0,0x10
    43ce:	8041                	srli	s0,s0,0x10
    43d0:	b529                	j	41da <st_write_item+0x1b8>
    43d2:	082c                	addi	a1,sp,24
    43d4:	8526                	mv	a0,s1
    43d6:	b7cff0ef          	jal	ra,3752 <st_page_write_item.constprop.10>
    43da:	00055b63          	bgez	a0,43f0 <st_write_item+0x3ce>
    43de:	00009597          	auipc	a1,0x9
    43e2:	a6e58593          	addi	a1,a1,-1426 # ce4c <__FUNCTION__.4169+0x404>
    43e6:	00009517          	auipc	a0,0x9
    43ea:	cae50513          	addi	a0,a0,-850 # d094 <__FUNCTION__.4169+0x64c>
    43ee:	b1f9                	j	40bc <st_write_item+0x9a>
    43f0:	22018793          	addi	a5,gp,544 # 20001b08 <st_ctx>
    43f4:	040e                	slli	s0,s0,0x3
    43f6:	943e                	add	s0,s0,a5
    43f8:	00a44703          	lbu	a4,10(s0)
    43fc:	0fe00793          	li	a5,254
    4400:	00f71463          	bne	a4,a5,4408 <st_write_item+0x3e6>
    4404:	22919223          	sh	s1,548(gp) # 20001b0c <st_ctx+0x4>
    4408:	00015703          	lhu	a4,0(sp)
    440c:	07f00793          	li	a5,127
    4410:	02e7fc63          	bgeu	a5,a4,4448 <st_write_item+0x426>
    4414:	4501                	li	a0,0
    4416:	23c12083          	lw	ra,572(sp)
    441a:	23812403          	lw	s0,568(sp)
    441e:	23412483          	lw	s1,564(sp)
    4422:	23012903          	lw	s2,560(sp)
    4426:	22c12983          	lw	s3,556(sp)
    442a:	22812a03          	lw	s4,552(sp)
    442e:	22412a83          	lw	s5,548(sp)
    4432:	22012b03          	lw	s6,544(sp)
    4436:	21c12b83          	lw	s7,540(sp)
    443a:	21812c03          	lw	s8,536(sp)
    443e:	21412c83          	lw	s9,532(sp)
    4442:	24010113          	addi	sp,sp,576
    4446:	8082                	ret
    4448:	860a                	mv	a2,sp
    444a:	85ce                	mv	a1,s3
    444c:	22018513          	addi	a0,gp,544 # 20001b08 <st_ctx>
    4450:	c50ff0ef          	jal	ra,38a0 <st_delete_item_with_loc>
    4454:	fc0550e3          	bgez	a0,4414 <st_write_item+0x3f2>
    4458:	00009597          	auipc	a1,0x9
    445c:	9f458593          	addi	a1,a1,-1548 # ce4c <__FUNCTION__.4169+0x404>
    4460:	00009517          	auipc	a0,0x9
    4464:	c5450513          	addi	a0,a0,-940 # d0b4 <__FUNCTION__.4169+0x66c>
    4468:	b991                	j	40bc <st_write_item+0x9a>

0000446a <st_read_item>:
    446a:	716d                	addi	sp,sp,-272
    446c:	10812423          	sw	s0,264(sp)
    4470:	10912223          	sw	s1,260(sp)
    4474:	11212023          	sw	s2,256(sp)
    4478:	842a                	mv	s0,a0
    447a:	892e                	mv	s2,a1
    447c:	84b2                	mv	s1,a2
    447e:	4581                	li	a1,0
    4480:	0fc00613          	li	a2,252
    4484:	0048                	addi	a0,sp,4
    4486:	10112623          	sw	ra,268(sp)
    448a:	f30fc0ef          	jal	ra,bba <memset>
    448e:	2201c783          	lbu	a5,544(gp) # 20001b08 <st_ctx>
    4492:	ef89                	bnez	a5,44ac <st_read_item+0x42>
    4494:	547d                	li	s0,-1
    4496:	8522                	mv	a0,s0
    4498:	10c12083          	lw	ra,268(sp)
    449c:	10812403          	lw	s0,264(sp)
    44a0:	10412483          	lw	s1,260(sp)
    44a4:	10012903          	lw	s2,256(sp)
    44a8:	6151                	addi	sp,sp,272
    44aa:	8082                	ret
    44ac:	fe0904e3          	beqz	s2,4494 <st_read_item+0x2a>
    44b0:	fe9052e3          	blez	s1,4494 <st_read_item+0x2a>
    44b4:	fff40713          	addi	a4,s0,-1
    44b8:	0742                	slli	a4,a4,0x10
    44ba:	67c1                	lui	a5,0x10
    44bc:	8341                	srli	a4,a4,0x10
    44be:	17f5                	addi	a5,a5,-3
    44c0:	fce7eae3          	bltu	a5,a4,4494 <st_read_item+0x2a>
    44c4:	8522                	mv	a0,s0
    44c6:	4601                	li	a2,0
    44c8:	004c                	addi	a1,sp,4
    44ca:	d56ff0ef          	jal	ra,3a20 <st_find_item>
    44ce:	842a                	mv	s0,a0
    44d0:	fc0542e3          	bltz	a0,4494 <st_read_item+0x2a>
    44d4:	d169                	beqz	a0,4496 <st_read_item+0x2c>
    44d6:	00414403          	lbu	s0,4(sp)
    44da:	0084d363          	bge	s1,s0,44e0 <st_read_item+0x76>
    44de:	8426                	mv	s0,s1
    44e0:	8622                	mv	a2,s0
    44e2:	002c                	addi	a1,sp,8
    44e4:	854a                	mv	a0,s2
    44e6:	3bb000ef          	jal	ra,50a0 <memcpy>
    44ea:	b775                	j	4496 <st_read_item+0x2c>

000044ec <uart_set_stopbits>:
    44ec:	1141                	addi	sp,sp,-16
    44ee:	c606                	sw	ra,12(sp)
    44f0:	478d                	li	a5,3
    44f2:	00a7fe63          	bgeu	a5,a0,450e <uart_set_stopbits+0x22>
    44f6:	00009597          	auipc	a1,0x9
    44fa:	c4258593          	addi	a1,a1,-958 # d138 <__FUNCTION__.4169+0x6f0>
    44fe:	00009517          	auipc	a0,0x9
    4502:	c4250513          	addi	a0,a0,-958 # d140 <__FUNCTION__.4169+0x6f8>
    4506:	43f010ef          	jal	ra,6144 <iprintf>
    450a:	557d                	li	a0,-1
    450c:	a83d                	j	454a <uart_set_stopbits+0x5e>
    450e:	cd89                	beqz	a1,4528 <uart_set_stopbits+0x3c>
    4510:	4789                	li	a5,2
    4512:	02f58f63          	beq	a1,a5,4550 <uart_set_stopbits+0x64>
    4516:	00009597          	auipc	a1,0x9
    451a:	c2258593          	addi	a1,a1,-990 # d138 <__FUNCTION__.4169+0x6f0>
    451e:	00009517          	auipc	a0,0x9
    4522:	c3e50513          	addi	a0,a0,-962 # d15c <__FUNCTION__.4169+0x714>
    4526:	b7c5                	j	4506 <uart_set_stopbits+0x1a>
    4528:	07c00793          	li	a5,124
    452c:	02f50533          	mul	a0,a0,a5
    4530:	1fffc797          	auipc	a5,0x1fffc
    4534:	7fc78793          	addi	a5,a5,2044 # 20000d2c <uart_ctx>
    4538:	953e                	add	a0,a0,a5
    453a:	4178                	lw	a4,68(a0)
    453c:	00074783          	lbu	a5,0(a4)
    4540:	0fb7f793          	andi	a5,a5,251
    4544:	00f70023          	sb	a5,0(a4)
    4548:	4501                	li	a0,0
    454a:	40b2                	lw	ra,12(sp)
    454c:	0141                	addi	sp,sp,16
    454e:	8082                	ret
    4550:	07c00793          	li	a5,124
    4554:	02f50533          	mul	a0,a0,a5
    4558:	1fffc797          	auipc	a5,0x1fffc
    455c:	7d478793          	addi	a5,a5,2004 # 20000d2c <uart_ctx>
    4560:	953e                	add	a0,a0,a5
    4562:	4178                	lw	a4,68(a0)
    4564:	00074783          	lbu	a5,0(a4)
    4568:	0047e793          	ori	a5,a5,4
    456c:	bfe1                	j	4544 <uart_set_stopbits+0x58>

0000456e <uart_set_databits>:
    456e:	1141                	addi	sp,sp,-16
    4570:	c606                	sw	ra,12(sp)
    4572:	478d                	li	a5,3
    4574:	02a7f063          	bgeu	a5,a0,4594 <uart_set_databits+0x26>
    4578:	00009597          	auipc	a1,0x9
    457c:	bc058593          	addi	a1,a1,-1088 # d138 <__FUNCTION__.4169+0x6f0>
    4580:	00009517          	auipc	a0,0x9
    4584:	bc050513          	addi	a0,a0,-1088 # d140 <__FUNCTION__.4169+0x6f8>
    4588:	3bd010ef          	jal	ra,6144 <iprintf>
    458c:	557d                	li	a0,-1
    458e:	40b2                	lw	ra,12(sp)
    4590:	0141                	addi	sp,sp,16
    4592:	8082                	ret
    4594:	07c00793          	li	a5,124
    4598:	02f50533          	mul	a0,a0,a5
    459c:	1fffc797          	auipc	a5,0x1fffc
    45a0:	79078793          	addi	a5,a5,1936 # 20000d2c <uart_ctx>
    45a4:	4699                	li	a3,6
    45a6:	862e                	mv	a2,a1
    45a8:	953e                	add	a0,a0,a5
    45aa:	4178                	lw	a4,68(a0)
    45ac:	00074783          	lbu	a5,0(a4)
    45b0:	0fc7f793          	andi	a5,a5,252
    45b4:	02d58963          	beq	a1,a3,45e6 <uart_set_databits+0x78>
    45b8:	02b6e063          	bltu	a3,a1,45d8 <uart_set_databits+0x6a>
    45bc:	4695                	li	a3,5
    45be:	02d60663          	beq	a2,a3,45ea <uart_set_databits+0x7c>
    45c2:	00009597          	auipc	a1,0x9
    45c6:	b7658593          	addi	a1,a1,-1162 # d138 <__FUNCTION__.4169+0x6f0>
    45ca:	00009517          	auipc	a0,0x9
    45ce:	b3250513          	addi	a0,a0,-1230 # d0fc <__FUNCTION__.4169+0x6b4>
    45d2:	373010ef          	jal	ra,6144 <iprintf>
    45d6:	bf5d                	j	458c <uart_set_databits+0x1e>
    45d8:	469d                	li	a3,7
    45da:	00d58c63          	beq	a1,a3,45f2 <uart_set_databits+0x84>
    45de:	46a1                	li	a3,8
    45e0:	0037e793          	ori	a5,a5,3
    45e4:	bfe9                	j	45be <uart_set_databits+0x50>
    45e6:	0017e793          	ori	a5,a5,1
    45ea:	00f70023          	sb	a5,0(a4)
    45ee:	4501                	li	a0,0
    45f0:	bf79                	j	458e <uart_set_databits+0x20>
    45f2:	0027e793          	ori	a5,a5,2
    45f6:	bfd5                	j	45ea <uart_set_databits+0x7c>

000045f8 <uart_set_baudrate>:
    45f8:	1101                	addi	sp,sp,-32
    45fa:	ce06                	sw	ra,28(sp)
    45fc:	cc22                	sw	s0,24(sp)
    45fe:	478d                	li	a5,3
    4600:	02a7f163          	bgeu	a5,a0,4622 <uart_set_baudrate+0x2a>
    4604:	00009597          	auipc	a1,0x9
    4608:	b3458593          	addi	a1,a1,-1228 # d138 <__FUNCTION__.4169+0x6f0>
    460c:	00009517          	auipc	a0,0x9
    4610:	b3450513          	addi	a0,a0,-1228 # d140 <__FUNCTION__.4169+0x6f8>
    4614:	331010ef          	jal	ra,6144 <iprintf>
    4618:	557d                	li	a0,-1
    461a:	40f2                	lw	ra,28(sp)
    461c:	4462                	lw	s0,24(sp)
    461e:	6105                	addi	sp,sp,32
    4620:	8082                	ret
    4622:	842a                	mv	s0,a0
    4624:	c62e                	sw	a1,12(sp)
    4626:	2b71                	jal	4bc2 <GetSysClock>
    4628:	4729                	li	a4,10
    462a:	02e50533          	mul	a0,a0,a4
    462e:	45b2                	lw	a1,12(sp)
    4630:	07c00793          	li	a5,124
    4634:	810d                	srli	a0,a0,0x3
    4636:	02b55533          	divu	a0,a0,a1
    463a:	0515                	addi	a0,a0,5
    463c:	02e55533          	divu	a0,a0,a4
    4640:	02f40433          	mul	s0,s0,a5
    4644:	1fffc797          	auipc	a5,0x1fffc
    4648:	6e878793          	addi	a5,a5,1768 # 20000d2c <uart_ctx>
    464c:	0542                	slli	a0,a0,0x10
    464e:	8141                	srli	a0,a0,0x10
    4650:	943e                	add	s0,s0,a5
    4652:	507c                	lw	a5,100(s0)
    4654:	00a79023          	sh	a0,0(a5)
    4658:	4501                	li	a0,0
    465a:	b7c1                	j	461a <uart_set_baudrate+0x22>

0000465c <uart_set_parity>:
    465c:	1141                	addi	sp,sp,-16
    465e:	c606                	sw	ra,12(sp)
    4660:	478d                	li	a5,3
    4662:	02a7f063          	bgeu	a5,a0,4682 <uart_set_parity+0x26>
    4666:	00009597          	auipc	a1,0x9
    466a:	ad258593          	addi	a1,a1,-1326 # d138 <__FUNCTION__.4169+0x6f0>
    466e:	00009517          	auipc	a0,0x9
    4672:	ad250513          	addi	a0,a0,-1326 # d140 <__FUNCTION__.4169+0x6f8>
    4676:	2cf010ef          	jal	ra,6144 <iprintf>
    467a:	557d                	li	a0,-1
    467c:	40b2                	lw	ra,12(sp)
    467e:	0141                	addi	sp,sp,16
    4680:	8082                	ret
    4682:	07c00793          	li	a5,124
    4686:	02f50533          	mul	a0,a0,a5
    468a:	1fffc797          	auipc	a5,0x1fffc
    468e:	6a278793          	addi	a5,a5,1698 # 20000d2c <uart_ctx>
    4692:	953e                	add	a0,a0,a5
    4694:	4178                	lw	a4,68(a0)
    4696:	00074783          	lbu	a5,0(a4)
    469a:	0ff7f793          	andi	a5,a5,255
    469e:	cd89                	beqz	a1,46b8 <uart_set_parity+0x5c>
    46a0:	4689                	li	a3,2
    46a2:	02d58163          	beq	a1,a3,46c4 <uart_set_parity+0x68>
    46a6:	00009597          	auipc	a1,0x9
    46aa:	a9258593          	addi	a1,a1,-1390 # d138 <__FUNCTION__.4169+0x6f0>
    46ae:	00009517          	auipc	a0,0x9
    46b2:	a6e50513          	addi	a0,a0,-1426 # d11c <__FUNCTION__.4169+0x6d4>
    46b6:	b7c1                	j	4676 <uart_set_parity+0x1a>
    46b8:	0f77f793          	andi	a5,a5,247
    46bc:	00f70023          	sb	a5,0(a4)
    46c0:	4501                	li	a0,0
    46c2:	bf6d                	j	467c <uart_set_parity+0x20>
    46c4:	0087e793          	ori	a5,a5,8
    46c8:	bfd5                	j	46bc <uart_set_parity+0x60>

000046ca <uart_init>:
    46ca:	1101                	addi	sp,sp,-32
    46cc:	ce06                	sw	ra,28(sp)
    46ce:	cc22                	sw	s0,24(sp)
    46d0:	ca26                	sw	s1,20(sp)
    46d2:	c84a                	sw	s2,16(sp)
    46d4:	c64e                	sw	s3,12(sp)
    46d6:	478d                	li	a5,3
    46d8:	02a7f463          	bgeu	a5,a0,4700 <uart_init+0x36>
    46dc:	00009597          	auipc	a1,0x9
    46e0:	a5c58593          	addi	a1,a1,-1444 # d138 <__FUNCTION__.4169+0x6f0>
    46e4:	00009517          	auipc	a0,0x9
    46e8:	a5c50513          	addi	a0,a0,-1444 # d140 <__FUNCTION__.4169+0x6f8>
    46ec:	259010ef          	jal	ra,6144 <iprintf>
    46f0:	557d                	li	a0,-1
    46f2:	40f2                	lw	ra,28(sp)
    46f4:	4462                	lw	s0,24(sp)
    46f6:	44d2                	lw	s1,20(sp)
    46f8:	4942                	lw	s2,16(sp)
    46fa:	49b2                	lw	s3,12(sp)
    46fc:	6105                	addi	sp,sp,32
    46fe:	8082                	ret
    4700:	842e                	mv	s0,a1
    4702:	e991                	bnez	a1,4716 <uart_init+0x4c>
    4704:	00009597          	auipc	a1,0x9
    4708:	a3458593          	addi	a1,a1,-1484 # d138 <__FUNCTION__.4169+0x6f0>
    470c:	00009517          	auipc	a0,0x9
    4710:	9c850513          	addi	a0,a0,-1592 # d0d4 <__FUNCTION__.4169+0x68c>
    4714:	bfe1                	j	46ec <uart_init+0x22>
    4716:	07c00913          	li	s2,124
    471a:	03250933          	mul	s2,a0,s2
    471e:	0005c783          	lbu	a5,0(a1)
    4722:	1fffc997          	auipc	s3,0x1fffc
    4726:	60a98993          	addi	s3,s3,1546 # 20000d2c <uart_ctx>
    472a:	84aa                	mv	s1,a0
    472c:	4585                	li	a1,1
    472e:	994e                	add	s2,s2,s3
    4730:	10078863          	beqz	a5,4840 <uart_init+0x176>
    4734:	03092503          	lw	a0,48(s2)
    4738:	9b9fd0ef          	jal	ra,20f0 <gpio_set_direction>
    473c:	03492503          	lw	a0,52(s2)
    4740:	4591                	li	a1,4
    4742:	9affd0ef          	jal	ra,20f0 <gpio_set_direction>
    4746:	03492503          	lw	a0,52(s2)
    474a:	4585                	li	a1,1
    474c:	a07fd0ef          	jal	ra,2152 <gpio_set_level>
    4750:	07092703          	lw	a4,112(s2)
    4754:	07a95683          	lhu	a3,122(s2)
    4758:	00075783          	lhu	a5,0(a4)
    475c:	8fd5                	or	a5,a5,a3
    475e:	00f71023          	sh	a5,0(a4)
    4762:	01444783          	lbu	a5,20(s0)
    4766:	cb99                	beqz	a5,477c <uart_init+0xb2>
    4768:	4c08                	lw	a0,24(s0)
    476a:	4591                	li	a1,4
    476c:	985fd0ef          	jal	ra,20f0 <gpio_set_direction>
    4770:	4c4c                	lw	a1,28(s0)
    4772:	4c08                	lw	a0,24(s0)
    4774:	0015b593          	seqz	a1,a1
    4778:	9dbfd0ef          	jal	ra,2152 <gpio_set_level>
    477c:	404c                	lw	a1,4(s0)
    477e:	8526                	mv	a0,s1
    4780:	3da5                	jal	45f8 <uart_set_baudrate>
    4782:	00844583          	lbu	a1,8(s0)
    4786:	8526                	mv	a0,s1
    4788:	de7ff0ef          	jal	ra,456e <uart_set_databits>
    478c:	444c                	lw	a1,12(s0)
    478e:	8526                	mv	a0,s1
    4790:	d5dff0ef          	jal	ra,44ec <uart_set_stopbits>
    4794:	480c                	lw	a1,16(s0)
    4796:	8526                	mv	a0,s1
    4798:	35d1                	jal	465c <uart_set_parity>
    479a:	07c00793          	li	a5,124
    479e:	02f487b3          	mul	a5,s1,a5
    47a2:	469d                	li	a3,7
    47a4:	97ce                	add	a5,a5,s3
    47a6:	43b8                	lw	a4,64(a5)
    47a8:	00d70023          	sb	a3,0(a4)
    47ac:	5fd8                	lw	a4,60(a5)
    47ae:	04000693          	li	a3,64
    47b2:	00d70023          	sb	a3,0(a4)
    47b6:	57b8                	lw	a4,104(a5)
    47b8:	4685                	li	a3,1
    47ba:	00d70023          	sb	a3,0(a4)
    47be:	43b4                	lw	a3,64(a5)
    47c0:	0006c703          	lbu	a4,0(a3)
    47c4:	03f77713          	andi	a4,a4,63
    47c8:	00e68023          	sb	a4,0(a3)
    47cc:	5fd4                	lw	a3,60(a5)
    47ce:	0006c703          	lbu	a4,0(a3)
    47d2:	00476713          	ori	a4,a4,4
    47d6:	00e68023          	sb	a4,0(a3)
    47da:	5f94                	lw	a3,56(a5)
    47dc:	0006c703          	lbu	a4,0(a3)
    47e0:	00876713          	ori	a4,a4,8
    47e4:	00e68023          	sb	a4,0(a3)
    47e8:	5018                	lw	a4,32(s0)
    47ea:	cf19                	beqz	a4,4808 <uart_init+0x13e>
    47ec:	5fd4                	lw	a3,60(a5)
    47ee:	0006c703          	lbu	a4,0(a3)
    47f2:	00176713          	ori	a4,a4,1
    47f6:	00e68023          	sb	a4,0(a3)
    47fa:	5f98                	lw	a4,56(a5)
    47fc:	00074783          	lbu	a5,0(a4)
    4800:	0087e793          	ori	a5,a5,8
    4804:	00f70023          	sb	a5,0(a4)
    4808:	07c00793          	li	a5,124
    480c:	02f484b3          	mul	s1,s1,a5
    4810:	4905                	li	s2,1
    4812:	e000e6b7          	lui	a3,0xe000e
    4816:	02800613          	li	a2,40
    481a:	85a2                	mv	a1,s0
    481c:	94ce                	add	s1,s1,s3
    481e:	58f8                	lw	a4,116(s1)
    4820:	8526                	mv	a0,s1
    4822:	00575793          	srli	a5,a4,0x5
    4826:	04078793          	addi	a5,a5,64
    482a:	078a                	slli	a5,a5,0x2
    482c:	00e91733          	sll	a4,s2,a4
    4830:	97b6                	add	a5,a5,a3
    4832:	c398                	sw	a4,0(a5)
    4834:	06d000ef          	jal	ra,50a0 <memcpy>
    4838:	4501                	li	a0,0
    483a:	07248c23          	sb	s2,120(s1)
    483e:	bd55                	j	46f2 <uart_init+0x28>
    4840:	02892503          	lw	a0,40(s2)
    4844:	8adfd0ef          	jal	ra,20f0 <gpio_set_direction>
    4848:	02c92503          	lw	a0,44(s2)
    484c:	4591                	li	a1,4
    484e:	8a3fd0ef          	jal	ra,20f0 <gpio_set_direction>
    4852:	02c92503          	lw	a0,44(s2)
    4856:	4585                	li	a1,1
    4858:	8fbfd0ef          	jal	ra,2152 <gpio_set_level>
    485c:	07092703          	lw	a4,112(s2)
    4860:	07a95783          	lhu	a5,122(s2)
    4864:	00075683          	lhu	a3,0(a4)
    4868:	fff7c793          	not	a5,a5
    486c:	8ff5                	and	a5,a5,a3
    486e:	bdc5                	j	475e <uart_init+0x94>

00004870 <uart_send>:
    4870:	1101                	addi	sp,sp,-32
    4872:	ce06                	sw	ra,28(sp)
    4874:	cc22                	sw	s0,24(sp)
    4876:	ca26                	sw	s1,20(sp)
    4878:	c84a                	sw	s2,16(sp)
    487a:	478d                	li	a5,3
    487c:	02a7f363          	bgeu	a5,a0,48a2 <uart_send+0x32>
    4880:	00009597          	auipc	a1,0x9
    4884:	8b858593          	addi	a1,a1,-1864 # d138 <__FUNCTION__.4169+0x6f0>
    4888:	00009517          	auipc	a0,0x9
    488c:	8b850513          	addi	a0,a0,-1864 # d140 <__FUNCTION__.4169+0x6f8>
    4890:	0b5010ef          	jal	ra,6144 <iprintf>
    4894:	557d                	li	a0,-1
    4896:	40f2                	lw	ra,28(sp)
    4898:	4462                	lw	s0,24(sp)
    489a:	44d2                	lw	s1,20(sp)
    489c:	4942                	lw	s2,16(sp)
    489e:	6105                	addi	sp,sp,32
    48a0:	8082                	ret
    48a2:	892e                	mv	s2,a1
    48a4:	e199                	bnez	a1,48aa <uart_send+0x3a>
    48a6:	4501                	li	a0,0
    48a8:	b7fd                	j	4896 <uart_send+0x26>
    48aa:	de75                	beqz	a2,48a6 <uart_send+0x36>
    48ac:	84aa                	mv	s1,a0
    48ae:	07c00793          	li	a5,124
    48b2:	02f487b3          	mul	a5,s1,a5
    48b6:	1fffc517          	auipc	a0,0x1fffc
    48ba:	47650513          	addi	a0,a0,1142 # 20000d2c <uart_ctx>
    48be:	842a                	mv	s0,a0
    48c0:	97aa                	add	a5,a5,a0
    48c2:	0147c703          	lbu	a4,20(a5)
    48c6:	c719                	beqz	a4,48d4 <uart_send+0x64>
    48c8:	4fcc                	lw	a1,28(a5)
    48ca:	4f88                	lw	a0,24(a5)
    48cc:	c632                	sw	a2,12(sp)
    48ce:	885fd0ef          	jal	ra,2152 <gpio_set_level>
    48d2:	4632                	lw	a2,12(sp)
    48d4:	07c00793          	li	a5,124
    48d8:	02f487b3          	mul	a5,s1,a5
    48dc:	4701                	li	a4,0
    48de:	45a1                	li	a1,8
    48e0:	97a2                	add	a5,a5,s0
    48e2:	53b4                	lw	a3,96(a5)
    48e4:	02c71c63          	bne	a4,a2,491c <uart_send+0xac>
    48e8:	07c00513          	li	a0,124
    48ec:	02a48533          	mul	a0,s1,a0
    48f0:	9522                	add	a0,a0,s0
    48f2:	0006c783          	lbu	a5,0(a3) # e000e000 <_eusrstack+0xc0006000>
    48f6:	0ff7f793          	andi	a5,a5,255
    48fa:	ffe5                	bnez	a5,48f2 <uart_send+0x82>
    48fc:	457c                	lw	a5,76(a0)
    48fe:	0007c783          	lbu	a5,0(a5)
    4902:	0407f793          	andi	a5,a5,64
    4906:	d7f5                	beqz	a5,48f2 <uart_send+0x82>
    4908:	01454783          	lbu	a5,20(a0)
    490c:	dfc9                	beqz	a5,48a6 <uart_send+0x36>
    490e:	4d4c                	lw	a1,28(a0)
    4910:	4d08                	lw	a0,24(a0)
    4912:	0015b593          	seqz	a1,a1
    4916:	83dfd0ef          	jal	ra,2152 <gpio_set_level>
    491a:	b771                	j	48a6 <uart_send+0x36>
    491c:	0006c503          	lbu	a0,0(a3)
    4920:	fca582e3          	beq	a1,a0,48e4 <uart_send+0x74>
    4924:	00e90533          	add	a0,s2,a4
    4928:	4fb4                	lw	a3,88(a5)
    492a:	00054503          	lbu	a0,0(a0)
    492e:	0705                	addi	a4,a4,1
    4930:	00a68023          	sb	a0,0(a3)
    4934:	b77d                	j	48e2 <uart_send+0x72>

00004936 <uart_read>:
    4936:	1101                	addi	sp,sp,-32
    4938:	ca26                	sw	s1,20(sp)
    493a:	c452                	sw	s4,8(sp)
    493c:	c256                	sw	s5,4(sp)
    493e:	c05a                	sw	s6,0(sp)
    4940:	ce06                	sw	ra,28(sp)
    4942:	cc22                	sw	s0,24(sp)
    4944:	c84a                	sw	s2,16(sp)
    4946:	c64e                	sw	s3,12(sp)
    4948:	84aa                	mv	s1,a0
    494a:	8aae                	mv	s5,a1
    494c:	8b32                	mv	s6,a2
    494e:	8a36                	mv	s4,a3
    4950:	2211                	jal	4a54 <worktime_get>
    4952:	478d                	li	a5,3
    4954:	0297f763          	bgeu	a5,s1,4982 <uart_read+0x4c>
    4958:	00008597          	auipc	a1,0x8
    495c:	7e058593          	addi	a1,a1,2016 # d138 <__FUNCTION__.4169+0x6f0>
    4960:	00008517          	auipc	a0,0x8
    4964:	7e050513          	addi	a0,a0,2016 # d140 <__FUNCTION__.4169+0x6f8>
    4968:	7dc010ef          	jal	ra,6144 <iprintf>
    496c:	557d                	li	a0,-1
    496e:	40f2                	lw	ra,28(sp)
    4970:	4462                	lw	s0,24(sp)
    4972:	44d2                	lw	s1,20(sp)
    4974:	4942                	lw	s2,16(sp)
    4976:	49b2                	lw	s3,12(sp)
    4978:	4a22                	lw	s4,8(sp)
    497a:	4a92                	lw	s5,4(sp)
    497c:	4b02                	lw	s6,0(sp)
    497e:	6105                	addi	sp,sp,32
    4980:	8082                	ret
    4982:	07c00793          	li	a5,124
    4986:	02f487b3          	mul	a5,s1,a5
    498a:	1fffc497          	auipc	s1,0x1fffc
    498e:	3a248493          	addi	s1,s1,930 # 20000d2c <uart_ctx>
    4992:	892a                	mv	s2,a0
    4994:	89ae                	mv	s3,a1
    4996:	4401                	li	s0,0
    4998:	94be                	add	s1,s1,a5
    499a:	0784c783          	lbu	a5,120(s1)
    499e:	ef8d                	bnez	a5,49d8 <uart_read+0xa2>
    49a0:	00008597          	auipc	a1,0x8
    49a4:	79858593          	addi	a1,a1,1944 # d138 <__FUNCTION__.4169+0x6f0>
    49a8:	00008517          	auipc	a0,0x8
    49ac:	74050513          	addi	a0,a0,1856 # d0e8 <__FUNCTION__.4169+0x6a0>
    49b0:	bf65                	j	4968 <uart_read+0x32>
    49b2:	48f8                	lw	a4,84(s1)
    49b4:	00140793          	addi	a5,s0,1
    49b8:	07c2                	slli	a5,a5,0x10
    49ba:	00074703          	lbu	a4,0(a4)
    49be:	9456                	add	s0,s0,s5
    49c0:	83c1                	srli	a5,a5,0x10
    49c2:	00e40023          	sb	a4,0(s0)
    49c6:	843e                	mv	s0,a5
    49c8:	0167fe63          	bgeu	a5,s6,49e4 <uart_read+0xae>
    49cc:	4cfc                	lw	a5,92(s1)
    49ce:	0007c783          	lbu	a5,0(a5)
    49d2:	0ff7f793          	andi	a5,a5,255
    49d6:	fff1                	bnez	a5,49b2 <uart_read+0x7c>
    49d8:	854a                	mv	a0,s2
    49da:	85ce                	mv	a1,s3
    49dc:	2049                	jal	4a5e <worktime_since>
    49de:	e199                	bnez	a1,49e4 <uart_read+0xae>
    49e0:	ff4566e3          	bltu	a0,s4,49cc <uart_read+0x96>
    49e4:	8522                	mv	a0,s0
    49e6:	b761                	j	496e <uart_read+0x38>

000049e8 <get_uid>:
    49e8:	82c1c783          	lbu	a5,-2004(gp) # 20001114 <uid_read>
    49ec:	e785                	bnez	a5,4a14 <get_uid+0x2c>
    49ee:	1141                	addi	sp,sp,-16
    49f0:	4681                	li	a3,0
    49f2:	63418613          	addi	a2,gp,1588 # 20001f1c <uid>
    49f6:	4581                	li	a1,0
    49f8:	451d                	li	a0,7
    49fa:	c606                	sw	ra,12(sp)
    49fc:	1fffc097          	auipc	ra,0x1fffc
    4a00:	d24080e7          	jalr	-732(ra) # 20000720 <FLASH_EEPROM_CMD>
    4a04:	40b2                	lw	ra,12(sp)
    4a06:	4785                	li	a5,1
    4a08:	82f18623          	sb	a5,-2004(gp) # 20001114 <uid_read>
    4a0c:	63418513          	addi	a0,gp,1588 # 20001f1c <uid>
    4a10:	0141                	addi	sp,sp,16
    4a12:	8082                	ret
    4a14:	63418513          	addi	a0,gp,1588 # 20001f1c <uid>
    4a18:	8082                	ret

00004a1a <worktime_init>:
    4a1a:	1141                	addi	sp,sp,-16
    4a1c:	c606                	sw	ra,12(sp)
    4a1e:	2255                	jal	4bc2 <GetSysClock>
    4a20:	3e800793          	li	a5,1000
    4a24:	02f55533          	divu	a0,a0,a5
    4a28:	40b2                	lw	ra,12(sp)
    4a2a:	fff50693          	addi	a3,a0,-1
    4a2e:	00a6b533          	sltu	a0,a3,a0
    4a32:	8736                	mv	a4,a3
    4a34:	e000f6b7          	lui	a3,0xe000f
    4a38:	ca98                	sw	a4,16(a3)
    4a3a:	fff50793          	addi	a5,a0,-1
    4a3e:	cadc                	sw	a5,20(a3)
    4a40:	6705                	lui	a4,0x1
    4a42:	e000e7b7          	lui	a5,0xe000e
    4a46:	10e7a023          	sw	a4,256(a5) # e000e100 <_eusrstack+0xc0006100>
    4a4a:	02f00793          	li	a5,47
    4a4e:	c29c                	sw	a5,0(a3)
    4a50:	0141                	addi	sp,sp,16
    4a52:	8082                	ret

00004a54 <worktime_get>:
    4a54:	83018793          	addi	a5,gp,-2000 # 20001118 <worktime>
    4a58:	4388                	lw	a0,0(a5)
    4a5a:	43cc                	lw	a1,4(a5)
    4a5c:	8082                	ret

00004a5e <worktime_since>:
    4a5e:	83018713          	addi	a4,gp,-2000 # 20001118 <worktime>
    4a62:	431c                	lw	a5,0(a4)
    4a64:	4358                	lw	a4,4(a4)
    4a66:	40a78533          	sub	a0,a5,a0
    4a6a:	00a7b7b3          	sltu	a5,a5,a0
    4a6e:	40b705b3          	sub	a1,a4,a1
    4a72:	8d9d                	sub	a1,a1,a5
    4a74:	8082                	ret

00004a76 <GPIOA_ModeCfg>:
    4a76:	4791                	li	a5,4
    4a78:	02b7ee63          	bltu	a5,a1,4ab4 <GPIOA_ModeCfg+0x3e>
    4a7c:	00008717          	auipc	a4,0x8
    4a80:	70070713          	addi	a4,a4,1792 # d17c <__FUNCTION__.4169+0x734>
    4a84:	058a                	slli	a1,a1,0x2
    4a86:	95ba                	add	a1,a1,a4
    4a88:	419c                	lw	a5,0(a1)
    4a8a:	97ba                	add	a5,a5,a4
    4a8c:	8782                	jr	a5
    4a8e:	400017b7          	lui	a5,0x40001
    4a92:	0b47a703          	lw	a4,180(a5) # 400010b4 <_eusrstack+0x1fff90b4>
    4a96:	fff54513          	not	a0,a0
    4a9a:	8f69                	and	a4,a4,a0
    4a9c:	0ae7aa23          	sw	a4,180(a5)
    4aa0:	0b07a703          	lw	a4,176(a5)
    4aa4:	8f69                	and	a4,a4,a0
    4aa6:	0ae7a823          	sw	a4,176(a5)
    4aaa:	0a07a703          	lw	a4,160(a5)
    4aae:	8d79                	and	a0,a0,a4
    4ab0:	0aa7a023          	sw	a0,160(a5)
    4ab4:	8082                	ret
    4ab6:	400017b7          	lui	a5,0x40001
    4aba:	0b47a683          	lw	a3,180(a5) # 400010b4 <_eusrstack+0x1fff90b4>
    4abe:	fff54713          	not	a4,a0
    4ac2:	8ef9                	and	a3,a3,a4
    4ac4:	0ad7aa23          	sw	a3,180(a5)
    4ac8:	0b07a683          	lw	a3,176(a5)
    4acc:	8d55                	or	a0,a0,a3
    4ace:	0aa7a823          	sw	a0,176(a5)
    4ad2:	0a07a683          	lw	a3,160(a5)
    4ad6:	8f75                	and	a4,a4,a3
    4ad8:	0ae7a023          	sw	a4,160(a5)
    4adc:	8082                	ret
    4ade:	400017b7          	lui	a5,0x40001
    4ae2:	0b47a703          	lw	a4,180(a5) # 400010b4 <_eusrstack+0x1fff90b4>
    4ae6:	8f49                	or	a4,a4,a0
    4ae8:	0ae7aa23          	sw	a4,180(a5)
    4aec:	0b07a703          	lw	a4,176(a5)
    4af0:	fff54513          	not	a0,a0
    4af4:	bf45                	j	4aa4 <GPIOA_ModeCfg+0x2e>
    4af6:	400017b7          	lui	a5,0x40001
    4afa:	0b47a683          	lw	a3,180(a5) # 400010b4 <_eusrstack+0x1fff90b4>
    4afe:	fff54713          	not	a4,a0
    4b02:	8f75                	and	a4,a4,a3
    4b04:	0ae7aa23          	sw	a4,180(a5)
    4b08:	0a07a703          	lw	a4,160(a5)
    4b0c:	8d59                	or	a0,a0,a4
    4b0e:	b74d                	j	4ab0 <GPIOA_ModeCfg+0x3a>
    4b10:	400017b7          	lui	a5,0x40001
    4b14:	0b47a703          	lw	a4,180(a5) # 400010b4 <_eusrstack+0x1fff90b4>
    4b18:	8f49                	or	a4,a4,a0
    4b1a:	b7ed                	j	4b04 <GPIOA_ModeCfg+0x8e>

00004b1c <GPIOB_ModeCfg>:
    4b1c:	4791                	li	a5,4
    4b1e:	02b7ee63          	bltu	a5,a1,4b5a <GPIOB_ModeCfg+0x3e>
    4b22:	00008717          	auipc	a4,0x8
    4b26:	66e70713          	addi	a4,a4,1646 # d190 <__FUNCTION__.4169+0x748>
    4b2a:	058a                	slli	a1,a1,0x2
    4b2c:	95ba                	add	a1,a1,a4
    4b2e:	419c                	lw	a5,0(a1)
    4b30:	97ba                	add	a5,a5,a4
    4b32:	8782                	jr	a5
    4b34:	400017b7          	lui	a5,0x40001
    4b38:	0d47a703          	lw	a4,212(a5) # 400010d4 <_eusrstack+0x1fff90d4>
    4b3c:	fff54513          	not	a0,a0
    4b40:	8f69                	and	a4,a4,a0
    4b42:	0ce7aa23          	sw	a4,212(a5)
    4b46:	0d07a703          	lw	a4,208(a5)
    4b4a:	8f69                	and	a4,a4,a0
    4b4c:	0ce7a823          	sw	a4,208(a5)
    4b50:	0c07a703          	lw	a4,192(a5)
    4b54:	8d79                	and	a0,a0,a4
    4b56:	0ca7a023          	sw	a0,192(a5)
    4b5a:	8082                	ret
    4b5c:	400017b7          	lui	a5,0x40001
    4b60:	0d47a683          	lw	a3,212(a5) # 400010d4 <_eusrstack+0x1fff90d4>
    4b64:	fff54713          	not	a4,a0
    4b68:	8ef9                	and	a3,a3,a4
    4b6a:	0cd7aa23          	sw	a3,212(a5)
    4b6e:	0d07a683          	lw	a3,208(a5)
    4b72:	8d55                	or	a0,a0,a3
    4b74:	0ca7a823          	sw	a0,208(a5)
    4b78:	0c07a683          	lw	a3,192(a5)
    4b7c:	8f75                	and	a4,a4,a3
    4b7e:	0ce7a023          	sw	a4,192(a5)
    4b82:	8082                	ret
    4b84:	400017b7          	lui	a5,0x40001
    4b88:	0d47a703          	lw	a4,212(a5) # 400010d4 <_eusrstack+0x1fff90d4>
    4b8c:	8f49                	or	a4,a4,a0
    4b8e:	0ce7aa23          	sw	a4,212(a5)
    4b92:	0d07a703          	lw	a4,208(a5)
    4b96:	fff54513          	not	a0,a0
    4b9a:	bf45                	j	4b4a <GPIOB_ModeCfg+0x2e>
    4b9c:	400017b7          	lui	a5,0x40001
    4ba0:	0d47a683          	lw	a3,212(a5) # 400010d4 <_eusrstack+0x1fff90d4>
    4ba4:	fff54713          	not	a4,a0
    4ba8:	8f75                	and	a4,a4,a3
    4baa:	0ce7aa23          	sw	a4,212(a5)
    4bae:	0c07a703          	lw	a4,192(a5)
    4bb2:	8d59                	or	a0,a0,a4
    4bb4:	b74d                	j	4b56 <GPIOB_ModeCfg+0x3a>
    4bb6:	400017b7          	lui	a5,0x40001
    4bba:	0d47a703          	lw	a4,212(a5) # 400010d4 <_eusrstack+0x1fff90d4>
    4bbe:	8f49                	or	a4,a4,a0
    4bc0:	b7ed                	j	4baa <GPIOB_ModeCfg+0x8e>

00004bc2 <GetSysClock>:
    4bc2:	400017b7          	lui	a5,0x40001
    4bc6:	0087d503          	lhu	a0,8(a5) # 40001008 <_eusrstack+0x1fff9008>
    4bca:	0542                	slli	a0,a0,0x10
    4bcc:	8141                	srli	a0,a0,0x10
    4bce:	04057793          	andi	a5,a0,64
    4bd2:	eb91                	bnez	a5,4be6 <GetSysClock+0x24>
    4bd4:	01f57793          	andi	a5,a0,31
    4bd8:	01e85537          	lui	a0,0x1e85
    4bdc:	80050513          	addi	a0,a0,-2048 # 1e84800 <_data_lma+0x1e770f0>
    4be0:	02f54533          	div	a0,a0,a5
    4be4:	8082                	ret
    4be6:	0c057793          	andi	a5,a0,192
    4bea:	04000713          	li	a4,64
    4bee:	00e79763          	bne	a5,a4,4bfc <GetSysClock+0x3a>
    4bf2:	01f57793          	andi	a5,a0,31
    4bf6:	1c9c4537          	lui	a0,0x1c9c4
    4bfa:	b7cd                	j	4bdc <GetSysClock+0x1a>
    4bfc:	6521                	lui	a0,0x8
    4bfe:	d0050513          	addi	a0,a0,-768 # 7d00 <_dtoa_r+0x866>
    4c02:	8082                	ret

00004c04 <_write>:
    4c04:	4781                	li	a5,0
    4c06:	40003737          	lui	a4,0x40003
    4c0a:	46a1                	li	a3,8
    4c0c:	00c7c463          	blt	a5,a2,4c14 <_write+0x10>
    4c10:	8532                	mv	a0,a2
    4c12:	8082                	ret
    4c14:	40b74503          	lbu	a0,1035(a4) # 4000340b <_eusrstack+0x1fffb40b>
    4c18:	fea68ee3          	beq	a3,a0,4c14 <_write+0x10>
    4c1c:	00f58533          	add	a0,a1,a5
    4c20:	00054503          	lbu	a0,0(a0)
    4c24:	0785                	addi	a5,a5,1
    4c26:	40a70423          	sb	a0,1032(a4)
    4c2a:	b7cd                	j	4c0c <_write+0x8>

00004c2c <TMR0_TimerInit>:
    4c2c:	400027b7          	lui	a5,0x40002
    4c30:	c7c8                	sw	a0,12(a5)
    4c32:	4709                	li	a4,2
    4c34:	00e78023          	sb	a4,0(a5) # 40002000 <_eusrstack+0x1fffa000>
    4c38:	4711                	li	a4,4
    4c3a:	00e78023          	sb	a4,0(a5)
    4c3e:	8082                	ret

00004c40 <UART0_BaudRateCfg>:
    4c40:	1141                	addi	sp,sp,-16
    4c42:	c422                	sw	s0,8(sp)
    4c44:	c606                	sw	ra,12(sp)
    4c46:	842a                	mv	s0,a0
    4c48:	3fad                	jal	4bc2 <GetSysClock>
    4c4a:	4729                	li	a4,10
    4c4c:	02e507b3          	mul	a5,a0,a4
    4c50:	40b2                	lw	ra,12(sp)
    4c52:	838d                	srli	a5,a5,0x3
    4c54:	0287d7b3          	divu	a5,a5,s0
    4c58:	4422                	lw	s0,8(sp)
    4c5a:	0795                	addi	a5,a5,5
    4c5c:	02e7d7b3          	divu	a5,a5,a4
    4c60:	40003737          	lui	a4,0x40003
    4c64:	07c2                	slli	a5,a5,0x10
    4c66:	83c1                	srli	a5,a5,0x10
    4c68:	00f71623          	sh	a5,12(a4) # 4000300c <_eusrstack+0x1fffb00c>
    4c6c:	0141                	addi	sp,sp,16
    4c6e:	8082                	ret

00004c70 <UART0_SendString>:
    4c70:	400037b7          	lui	a5,0x40003
    4c74:	4721                	li	a4,8
    4c76:	400036b7          	lui	a3,0x40003
    4c7a:	e191                	bnez	a1,4c7e <UART0_SendString+0xe>
    4c7c:	8082                	ret
    4c7e:	00b7c603          	lbu	a2,11(a5) # 4000300b <_eusrstack+0x1fffb00b>
    4c82:	fec70ce3          	beq	a4,a2,4c7a <UART0_SendString+0xa>
    4c86:	0505                	addi	a0,a0,1
    4c88:	fff54603          	lbu	a2,-1(a0)
    4c8c:	15fd                	addi	a1,a1,-1
    4c8e:	05c2                	slli	a1,a1,0x10
    4c90:	00c68423          	sb	a2,8(a3) # 40003008 <_eusrstack+0x1fffb008>
    4c94:	81c1                	srli	a1,a1,0x10
    4c96:	b7d5                	j	4c7a <UART0_SendString+0xa>

00004c98 <__udivdi3>:
    4c98:	87b6                	mv	a5,a3
    4c9a:	88b2                	mv	a7,a2
    4c9c:	832a                	mv	t1,a0
    4c9e:	882e                	mv	a6,a1
    4ca0:	14069d63          	bnez	a3,4dfa <__udivdi3+0x162>
    4ca4:	0ac5f963          	bgeu	a1,a2,4d56 <__udivdi3+0xbe>
    4ca8:	6741                	lui	a4,0x10
    4caa:	1ae66e63          	bltu	a2,a4,4e66 <__udivdi3+0x1ce>
    4cae:	010007b7          	lui	a5,0x1000
    4cb2:	34f66363          	bltu	a2,a5,4ff8 <__udivdi3+0x360>
    4cb6:	01865693          	srli	a3,a2,0x18
    4cba:	47e1                	li	a5,24
    4cbc:	00008717          	auipc	a4,0x8
    4cc0:	4e870713          	addi	a4,a4,1256 # d1a4 <__clz_tab>
    4cc4:	9736                	add	a4,a4,a3
    4cc6:	00074703          	lbu	a4,0(a4)
    4cca:	97ba                	add	a5,a5,a4
    4ccc:	02000713          	li	a4,32
    4cd0:	8f1d                	sub	a4,a4,a5
    4cd2:	cb19                	beqz	a4,4ce8 <__udivdi3+0x50>
    4cd4:	00e59833          	sll	a6,a1,a4
    4cd8:	00f557b3          	srl	a5,a0,a5
    4cdc:	00e618b3          	sll	a7,a2,a4
    4ce0:	0107e833          	or	a6,a5,a6
    4ce4:	00e51333          	sll	t1,a0,a4
    4ce8:	0108d613          	srli	a2,a7,0x10
    4cec:	02c85533          	divu	a0,a6,a2
    4cf0:	01089693          	slli	a3,a7,0x10
    4cf4:	82c1                	srli	a3,a3,0x10
    4cf6:	01035793          	srli	a5,t1,0x10
    4cfa:	02c87733          	remu	a4,a6,a2
    4cfe:	02a685b3          	mul	a1,a3,a0
    4d02:	0742                	slli	a4,a4,0x10
    4d04:	00f76833          	or	a6,a4,a5
    4d08:	00b87a63          	bgeu	a6,a1,4d1c <__udivdi3+0x84>
    4d0c:	9846                	add	a6,a6,a7
    4d0e:	fff50793          	addi	a5,a0,-1
    4d12:	01186463          	bltu	a6,a7,4d1a <__udivdi3+0x82>
    4d16:	30b86763          	bltu	a6,a1,5024 <__udivdi3+0x38c>
    4d1a:	853e                	mv	a0,a5
    4d1c:	40b80833          	sub	a6,a6,a1
    4d20:	02c85733          	divu	a4,a6,a2
    4d24:	0342                	slli	t1,t1,0x10
    4d26:	01035313          	srli	t1,t1,0x10
    4d2a:	02c87833          	remu	a6,a6,a2
    4d2e:	02e686b3          	mul	a3,a3,a4
    4d32:	0842                	slli	a6,a6,0x10
    4d34:	00686833          	or	a6,a6,t1
    4d38:	00d87b63          	bgeu	a6,a3,4d4e <__udivdi3+0xb6>
    4d3c:	9846                	add	a6,a6,a7
    4d3e:	fff70793          	addi	a5,a4,-1
    4d42:	01186563          	bltu	a6,a7,4d4c <__udivdi3+0xb4>
    4d46:	1779                	addi	a4,a4,-2
    4d48:	00d86363          	bltu	a6,a3,4d4e <__udivdi3+0xb6>
    4d4c:	873e                	mv	a4,a5
    4d4e:	0542                	slli	a0,a0,0x10
    4d50:	8d59                	or	a0,a0,a4
    4d52:	4581                	li	a1,0
    4d54:	8082                	ret
    4d56:	e601                	bnez	a2,4d5e <__udivdi3+0xc6>
    4d58:	4705                	li	a4,1
    4d5a:	02c758b3          	divu	a7,a4,a2
    4d5e:	6741                	lui	a4,0x10
    4d60:	0ee8ea63          	bltu	a7,a4,4e54 <__udivdi3+0x1bc>
    4d64:	010007b7          	lui	a5,0x1000
    4d68:	28f8ec63          	bltu	a7,a5,5000 <__udivdi3+0x368>
    4d6c:	0188d693          	srli	a3,a7,0x18
    4d70:	47e1                	li	a5,24
    4d72:	00008717          	auipc	a4,0x8
    4d76:	43270713          	addi	a4,a4,1074 # d1a4 <__clz_tab>
    4d7a:	9736                	add	a4,a4,a3
    4d7c:	00074683          	lbu	a3,0(a4)
    4d80:	96be                	add	a3,a3,a5
    4d82:	02000793          	li	a5,32
    4d86:	8f95                	sub	a5,a5,a3
    4d88:	ebe5                	bnez	a5,4e78 <__udivdi3+0x1e0>
    4d8a:	01089e93          	slli	t4,a7,0x10
    4d8e:	41158733          	sub	a4,a1,a7
    4d92:	0108df13          	srli	t5,a7,0x10
    4d96:	010ede93          	srli	t4,t4,0x10
    4d9a:	4585                	li	a1,1
    4d9c:	01035793          	srli	a5,t1,0x10
    4da0:	03e75533          	divu	a0,a4,t5
    4da4:	03e77733          	remu	a4,a4,t5
    4da8:	03d506b3          	mul	a3,a0,t4
    4dac:	0742                	slli	a4,a4,0x10
    4dae:	8fd9                	or	a5,a5,a4
    4db0:	00d7fa63          	bgeu	a5,a3,4dc4 <__udivdi3+0x12c>
    4db4:	97c6                	add	a5,a5,a7
    4db6:	fff50713          	addi	a4,a0,-1
    4dba:	0117e463          	bltu	a5,a7,4dc2 <__udivdi3+0x12a>
    4dbe:	26d7e663          	bltu	a5,a3,502a <__udivdi3+0x392>
    4dc2:	853a                	mv	a0,a4
    4dc4:	8f95                	sub	a5,a5,a3
    4dc6:	03e7d733          	divu	a4,a5,t5
    4dca:	0342                	slli	t1,t1,0x10
    4dcc:	01035313          	srli	t1,t1,0x10
    4dd0:	03e7f7b3          	remu	a5,a5,t5
    4dd4:	03d70eb3          	mul	t4,a4,t4
    4dd8:	07c2                	slli	a5,a5,0x10
    4dda:	0067e7b3          	or	a5,a5,t1
    4dde:	01d7fb63          	bgeu	a5,t4,4df4 <__udivdi3+0x15c>
    4de2:	97c6                	add	a5,a5,a7
    4de4:	fff70693          	addi	a3,a4,-1
    4de8:	0117e563          	bltu	a5,a7,4df2 <__udivdi3+0x15a>
    4dec:	1779                	addi	a4,a4,-2
    4dee:	01d7e363          	bltu	a5,t4,4df4 <__udivdi3+0x15c>
    4df2:	8736                	mv	a4,a3
    4df4:	0542                	slli	a0,a0,0x10
    4df6:	8d59                	or	a0,a0,a4
    4df8:	8082                	ret
    4dfa:	04d5e263          	bltu	a1,a3,4e3e <__udivdi3+0x1a6>
    4dfe:	67c1                	lui	a5,0x10
    4e00:	04f6e263          	bltu	a3,a5,4e44 <__udivdi3+0x1ac>
    4e04:	010007b7          	lui	a5,0x1000
    4e08:	1ef6e463          	bltu	a3,a5,4ff0 <__udivdi3+0x358>
    4e0c:	0186d713          	srli	a4,a3,0x18
    4e10:	4861                	li	a6,24
    4e12:	00008797          	auipc	a5,0x8
    4e16:	39278793          	addi	a5,a5,914 # d1a4 <__clz_tab>
    4e1a:	97ba                	add	a5,a5,a4
    4e1c:	0007c703          	lbu	a4,0(a5)
    4e20:	02000e13          	li	t3,32
    4e24:	9742                	add	a4,a4,a6
    4e26:	40ee0e33          	sub	t3,t3,a4
    4e2a:	0c0e1a63          	bnez	t3,4efe <__udivdi3+0x266>
    4e2e:	1cb6ed63          	bltu	a3,a1,5008 <__udivdi3+0x370>
    4e32:	00c53533          	sltu	a0,a0,a2
    4e36:	00154513          	xori	a0,a0,1
    4e3a:	4581                	li	a1,0
    4e3c:	8082                	ret
    4e3e:	4581                	li	a1,0
    4e40:	4501                	li	a0,0
    4e42:	8082                	ret
    4e44:	0ff00793          	li	a5,255
    4e48:	1cd7f363          	bgeu	a5,a3,500e <__udivdi3+0x376>
    4e4c:	0086d713          	srli	a4,a3,0x8
    4e50:	4821                	li	a6,8
    4e52:	b7c1                	j	4e12 <__udivdi3+0x17a>
    4e54:	0ff00713          	li	a4,255
    4e58:	86c6                	mv	a3,a7
    4e5a:	f1177ce3          	bgeu	a4,a7,4d72 <__udivdi3+0xda>
    4e5e:	0088d693          	srli	a3,a7,0x8
    4e62:	47a1                	li	a5,8
    4e64:	b739                	j	4d72 <__udivdi3+0xda>
    4e66:	0ff00713          	li	a4,255
    4e6a:	86b2                	mv	a3,a2
    4e6c:	e4c778e3          	bgeu	a4,a2,4cbc <__udivdi3+0x24>
    4e70:	00865693          	srli	a3,a2,0x8
    4e74:	47a1                	li	a5,8
    4e76:	b599                	j	4cbc <__udivdi3+0x24>
    4e78:	00f898b3          	sll	a7,a7,a5
    4e7c:	00d5d633          	srl	a2,a1,a3
    4e80:	0108df13          	srli	t5,a7,0x10
    4e84:	03e65e33          	divu	t3,a2,t5
    4e88:	00f59733          	sll	a4,a1,a5
    4e8c:	00d556b3          	srl	a3,a0,a3
    4e90:	8f55                	or	a4,a4,a3
    4e92:	01089e93          	slli	t4,a7,0x10
    4e96:	010ede93          	srli	t4,t4,0x10
    4e9a:	00f51333          	sll	t1,a0,a5
    4e9e:	01075593          	srli	a1,a4,0x10
    4ea2:	03e676b3          	remu	a3,a2,t5
    4ea6:	03ce87b3          	mul	a5,t4,t3
    4eaa:	06c2                	slli	a3,a3,0x10
    4eac:	8ecd                	or	a3,a3,a1
    4eae:	00f6fb63          	bgeu	a3,a5,4ec4 <__udivdi3+0x22c>
    4eb2:	96c6                	add	a3,a3,a7
    4eb4:	fffe0613          	addi	a2,t3,-1
    4eb8:	1716e463          	bltu	a3,a7,5020 <__udivdi3+0x388>
    4ebc:	16f6f263          	bgeu	a3,a5,5020 <__udivdi3+0x388>
    4ec0:	1e79                	addi	t3,t3,-2
    4ec2:	96c6                	add	a3,a3,a7
    4ec4:	8e9d                	sub	a3,a3,a5
    4ec6:	03e6d633          	divu	a2,a3,t5
    4eca:	01071793          	slli	a5,a4,0x10
    4ece:	83c1                	srli	a5,a5,0x10
    4ed0:	03e6f6b3          	remu	a3,a3,t5
    4ed4:	02ce8533          	mul	a0,t4,a2
    4ed8:	01069713          	slli	a4,a3,0x10
    4edc:	8f5d                	or	a4,a4,a5
    4ede:	00a77b63          	bgeu	a4,a0,4ef4 <__udivdi3+0x25c>
    4ee2:	9746                	add	a4,a4,a7
    4ee4:	fff60793          	addi	a5,a2,-1
    4ee8:	13176863          	bltu	a4,a7,5018 <__udivdi3+0x380>
    4eec:	12a77663          	bgeu	a4,a0,5018 <__udivdi3+0x380>
    4ef0:	1679                	addi	a2,a2,-2
    4ef2:	9746                	add	a4,a4,a7
    4ef4:	010e1593          	slli	a1,t3,0x10
    4ef8:	8f09                	sub	a4,a4,a0
    4efa:	8dd1                	or	a1,a1,a2
    4efc:	b545                	j	4d9c <__udivdi3+0x104>
    4efe:	00e657b3          	srl	a5,a2,a4
    4f02:	01c696b3          	sll	a3,a3,t3
    4f06:	8edd                	or	a3,a3,a5
    4f08:	00e5d333          	srl	t1,a1,a4
    4f0c:	0106df13          	srli	t5,a3,0x10
    4f10:	03e357b3          	divu	a5,t1,t5
    4f14:	01069e93          	slli	t4,a3,0x10
    4f18:	010ede93          	srli	t4,t4,0x10
    4f1c:	01c59833          	sll	a6,a1,t3
    4f20:	00e55733          	srl	a4,a0,a4
    4f24:	01076833          	or	a6,a4,a6
    4f28:	01085893          	srli	a7,a6,0x10
    4f2c:	01c61633          	sll	a2,a2,t3
    4f30:	03e37333          	remu	t1,t1,t5
    4f34:	02fe85b3          	mul	a1,t4,a5
    4f38:	0342                	slli	t1,t1,0x10
    4f3a:	011368b3          	or	a7,t1,a7
    4f3e:	00b8fb63          	bgeu	a7,a1,4f54 <__udivdi3+0x2bc>
    4f42:	98b6                	add	a7,a7,a3
    4f44:	fff78713          	addi	a4,a5,-1
    4f48:	0cd8ea63          	bltu	a7,a3,501c <__udivdi3+0x384>
    4f4c:	0cb8f863          	bgeu	a7,a1,501c <__udivdi3+0x384>
    4f50:	17f9                	addi	a5,a5,-2
    4f52:	98b6                	add	a7,a7,a3
    4f54:	40b888b3          	sub	a7,a7,a1
    4f58:	03e8d733          	divu	a4,a7,t5
    4f5c:	0842                	slli	a6,a6,0x10
    4f5e:	01085813          	srli	a6,a6,0x10
    4f62:	03e8f8b3          	remu	a7,a7,t5
    4f66:	02ee8333          	mul	t1,t4,a4
    4f6a:	08c2                	slli	a7,a7,0x10
    4f6c:	0108e5b3          	or	a1,a7,a6
    4f70:	0065fb63          	bgeu	a1,t1,4f86 <__udivdi3+0x2ee>
    4f74:	95b6                	add	a1,a1,a3
    4f76:	fff70813          	addi	a6,a4,-1
    4f7a:	08d5ed63          	bltu	a1,a3,5014 <__udivdi3+0x37c>
    4f7e:	0865fb63          	bgeu	a1,t1,5014 <__udivdi3+0x37c>
    4f82:	1779                	addi	a4,a4,-2
    4f84:	95b6                	add	a1,a1,a3
    4f86:	07c2                	slli	a5,a5,0x10
    4f88:	6f41                	lui	t5,0x10
    4f8a:	8fd9                	or	a5,a5,a4
    4f8c:	ffff0713          	addi	a4,t5,-1 # ffff <_data_lma+0x28ef>
    4f90:	00e7f6b3          	and	a3,a5,a4
    4f94:	0107d893          	srli	a7,a5,0x10
    4f98:	8f71                	and	a4,a4,a2
    4f9a:	8241                	srli	a2,a2,0x10
    4f9c:	02e68eb3          	mul	t4,a3,a4
    4fa0:	406585b3          	sub	a1,a1,t1
    4fa4:	02c686b3          	mul	a3,a3,a2
    4fa8:	010ed813          	srli	a6,t4,0x10
    4fac:	02e88733          	mul	a4,a7,a4
    4fb0:	96ba                	add	a3,a3,a4
    4fb2:	96c2                	add	a3,a3,a6
    4fb4:	02c88633          	mul	a2,a7,a2
    4fb8:	00e6f363          	bgeu	a3,a4,4fbe <__udivdi3+0x326>
    4fbc:	967a                	add	a2,a2,t5
    4fbe:	0106d893          	srli	a7,a3,0x10
    4fc2:	9646                	add	a2,a2,a7
    4fc4:	02c5e263          	bltu	a1,a2,4fe8 <__udivdi3+0x350>
    4fc8:	00c58563          	beq	a1,a2,4fd2 <__udivdi3+0x33a>
    4fcc:	853e                	mv	a0,a5
    4fce:	4581                	li	a1,0
    4fd0:	8082                	ret
    4fd2:	6741                	lui	a4,0x10
    4fd4:	177d                	addi	a4,a4,-1
    4fd6:	8ef9                	and	a3,a3,a4
    4fd8:	06c2                	slli	a3,a3,0x10
    4fda:	00eefeb3          	and	t4,t4,a4
    4fde:	01c51533          	sll	a0,a0,t3
    4fe2:	96f6                	add	a3,a3,t4
    4fe4:	fed574e3          	bgeu	a0,a3,4fcc <__udivdi3+0x334>
    4fe8:	fff78513          	addi	a0,a5,-1
    4fec:	4581                	li	a1,0
    4fee:	8082                	ret
    4ff0:	0106d713          	srli	a4,a3,0x10
    4ff4:	4841                	li	a6,16
    4ff6:	bd31                	j	4e12 <__udivdi3+0x17a>
    4ff8:	01065693          	srli	a3,a2,0x10
    4ffc:	47c1                	li	a5,16
    4ffe:	b97d                	j	4cbc <__udivdi3+0x24>
    5000:	0108d693          	srli	a3,a7,0x10
    5004:	47c1                	li	a5,16
    5006:	b3b5                	j	4d72 <__udivdi3+0xda>
    5008:	4581                	li	a1,0
    500a:	4505                	li	a0,1
    500c:	8082                	ret
    500e:	8736                	mv	a4,a3
    5010:	4801                	li	a6,0
    5012:	b501                	j	4e12 <__udivdi3+0x17a>
    5014:	8742                	mv	a4,a6
    5016:	bf85                	j	4f86 <__udivdi3+0x2ee>
    5018:	863e                	mv	a2,a5
    501a:	bde9                	j	4ef4 <__udivdi3+0x25c>
    501c:	87ba                	mv	a5,a4
    501e:	bf1d                	j	4f54 <__udivdi3+0x2bc>
    5020:	8e32                	mv	t3,a2
    5022:	b54d                	j	4ec4 <__udivdi3+0x22c>
    5024:	1579                	addi	a0,a0,-2
    5026:	9846                	add	a6,a6,a7
    5028:	b9d5                	j	4d1c <__udivdi3+0x84>
    502a:	1579                	addi	a0,a0,-2
    502c:	97c6                	add	a5,a5,a7
    502e:	bb59                	j	4dc4 <__udivdi3+0x12c>

00005030 <__locale_ctype_ptr_l>:
    5030:	0ec52503          	lw	a0,236(a0)
    5034:	8082                	ret

00005036 <malloc>:
    5036:	80818793          	addi	a5,gp,-2040 # 200010f0 <_impure_ptr>
    503a:	85aa                	mv	a1,a0
    503c:	4388                	lw	a0,0(a5)
    503e:	a2c1                	j	51fe <_malloc_r>

00005040 <__ascii_mbtowc>:
    5040:	e185                	bnez	a1,5060 <__ascii_mbtowc+0x20>
    5042:	1141                	addi	sp,sp,-16
    5044:	006c                	addi	a1,sp,12
    5046:	4501                	li	a0,0
    5048:	ca11                	beqz	a2,505c <__ascii_mbtowc+0x1c>
    504a:	5579                	li	a0,-2
    504c:	ca81                	beqz	a3,505c <__ascii_mbtowc+0x1c>
    504e:	00064783          	lbu	a5,0(a2)
    5052:	c19c                	sw	a5,0(a1)
    5054:	00064503          	lbu	a0,0(a2)
    5058:	00a03533          	snez	a0,a0
    505c:	0141                	addi	sp,sp,16
    505e:	8082                	ret
    5060:	4501                	li	a0,0
    5062:	ca19                	beqz	a2,5078 <__ascii_mbtowc+0x38>
    5064:	5579                	li	a0,-2
    5066:	ca89                	beqz	a3,5078 <__ascii_mbtowc+0x38>
    5068:	00064783          	lbu	a5,0(a2)
    506c:	c19c                	sw	a5,0(a1)
    506e:	00064503          	lbu	a0,0(a2)
    5072:	00a03533          	snez	a0,a0
    5076:	8082                	ret
    5078:	8082                	ret

0000507a <memcmp>:
    507a:	4701                	li	a4,0
    507c:	00e61463          	bne	a2,a4,5084 <memcmp+0xa>
    5080:	4501                	li	a0,0
    5082:	8082                	ret
    5084:	00e507b3          	add	a5,a0,a4
    5088:	0705                	addi	a4,a4,1
    508a:	00e586b3          	add	a3,a1,a4
    508e:	0007c783          	lbu	a5,0(a5)
    5092:	fff6c683          	lbu	a3,-1(a3)
    5096:	fed783e3          	beq	a5,a3,507c <memcmp+0x2>
    509a:	40d78533          	sub	a0,a5,a3
    509e:	8082                	ret

000050a0 <memcpy>:
    50a0:	00a5c7b3          	xor	a5,a1,a0
    50a4:	8b8d                	andi	a5,a5,3
    50a6:	00c50733          	add	a4,a0,a2
    50aa:	e781                	bnez	a5,50b2 <memcpy+0x12>
    50ac:	478d                	li	a5,3
    50ae:	00c7ee63          	bltu	a5,a2,50ca <memcpy+0x2a>
    50b2:	87aa                	mv	a5,a0
    50b4:	0ae57063          	bgeu	a0,a4,5154 <memcpy+0xb4>
    50b8:	0005c683          	lbu	a3,0(a1)
    50bc:	0785                	addi	a5,a5,1
    50be:	0585                	addi	a1,a1,1
    50c0:	fed78fa3          	sb	a3,-1(a5)
    50c4:	fee7eae3          	bltu	a5,a4,50b8 <memcpy+0x18>
    50c8:	8082                	ret
    50ca:	00357693          	andi	a3,a0,3
    50ce:	87aa                	mv	a5,a0
    50d0:	ca91                	beqz	a3,50e4 <memcpy+0x44>
    50d2:	0005c683          	lbu	a3,0(a1)
    50d6:	0785                	addi	a5,a5,1
    50d8:	0585                	addi	a1,a1,1
    50da:	fed78fa3          	sb	a3,-1(a5)
    50de:	0037f693          	andi	a3,a5,3
    50e2:	b7fd                	j	50d0 <memcpy+0x30>
    50e4:	ffc77693          	andi	a3,a4,-4
    50e8:	fe068613          	addi	a2,a3,-32
    50ec:	06c7f063          	bgeu	a5,a2,514c <memcpy+0xac>
    50f0:	0005a383          	lw	t2,0(a1)
    50f4:	0045a283          	lw	t0,4(a1)
    50f8:	0085af83          	lw	t6,8(a1)
    50fc:	00c5af03          	lw	t5,12(a1)
    5100:	0105ae83          	lw	t4,16(a1)
    5104:	0145ae03          	lw	t3,20(a1)
    5108:	0185a303          	lw	t1,24(a1)
    510c:	01c5a883          	lw	a7,28(a1)
    5110:	02458593          	addi	a1,a1,36
    5114:	0077a023          	sw	t2,0(a5)
    5118:	ffc5a803          	lw	a6,-4(a1)
    511c:	0057a223          	sw	t0,4(a5)
    5120:	01f7a423          	sw	t6,8(a5)
    5124:	01e7a623          	sw	t5,12(a5)
    5128:	01d7a823          	sw	t4,16(a5)
    512c:	01c7aa23          	sw	t3,20(a5)
    5130:	0067ac23          	sw	t1,24(a5)
    5134:	0117ae23          	sw	a7,28(a5)
    5138:	02478793          	addi	a5,a5,36
    513c:	ff07ae23          	sw	a6,-4(a5)
    5140:	b775                	j	50ec <memcpy+0x4c>
    5142:	4190                	lw	a2,0(a1)
    5144:	0791                	addi	a5,a5,4
    5146:	0591                	addi	a1,a1,4
    5148:	fec7ae23          	sw	a2,-4(a5)
    514c:	fed7ebe3          	bltu	a5,a3,5142 <memcpy+0xa2>
    5150:	f6e7e4e3          	bltu	a5,a4,50b8 <memcpy+0x18>
    5154:	8082                	ret

00005156 <_free_r>:
    5156:	c1dd                	beqz	a1,51fc <_free_r+0xa6>
    5158:	ffc5a783          	lw	a5,-4(a1)
    515c:	1141                	addi	sp,sp,-16
    515e:	c422                	sw	s0,8(sp)
    5160:	c606                	sw	ra,12(sp)
    5162:	c226                	sw	s1,4(sp)
    5164:	ffc58413          	addi	s0,a1,-4
    5168:	0007d363          	bgez	a5,516e <_free_r+0x18>
    516c:	943e                	add	s0,s0,a5
    516e:	84aa                	mv	s1,a0
    5170:	39f030ef          	jal	ra,8d0e <__malloc_lock>
    5174:	83818793          	addi	a5,gp,-1992 # 20001120 <__malloc_free_list>
    5178:	439c                	lw	a5,0(a5)
    517a:	ef81                	bnez	a5,5192 <_free_r+0x3c>
    517c:	00042223          	sw	zero,4(s0)
    5180:	8281ac23          	sw	s0,-1992(gp) # 20001120 <__malloc_free_list>
    5184:	4422                	lw	s0,8(sp)
    5186:	40b2                	lw	ra,12(sp)
    5188:	8526                	mv	a0,s1
    518a:	4492                	lw	s1,4(sp)
    518c:	0141                	addi	sp,sp,16
    518e:	3830306f          	j	8d10 <__malloc_unlock>
    5192:	00f47e63          	bgeu	s0,a5,51ae <_free_r+0x58>
    5196:	4014                	lw	a3,0(s0)
    5198:	00d40733          	add	a4,s0,a3
    519c:	00e79663          	bne	a5,a4,51a8 <_free_r+0x52>
    51a0:	4398                	lw	a4,0(a5)
    51a2:	43dc                	lw	a5,4(a5)
    51a4:	9736                	add	a4,a4,a3
    51a6:	c018                	sw	a4,0(s0)
    51a8:	c05c                	sw	a5,4(s0)
    51aa:	bfd9                	j	5180 <_free_r+0x2a>
    51ac:	87ba                	mv	a5,a4
    51ae:	43d8                	lw	a4,4(a5)
    51b0:	c319                	beqz	a4,51b6 <_free_r+0x60>
    51b2:	fee47de3          	bgeu	s0,a4,51ac <_free_r+0x56>
    51b6:	4394                	lw	a3,0(a5)
    51b8:	00d78633          	add	a2,a5,a3
    51bc:	00861f63          	bne	a2,s0,51da <_free_r+0x84>
    51c0:	4010                	lw	a2,0(s0)
    51c2:	96b2                	add	a3,a3,a2
    51c4:	c394                	sw	a3,0(a5)
    51c6:	00d78633          	add	a2,a5,a3
    51ca:	fac71de3          	bne	a4,a2,5184 <_free_r+0x2e>
    51ce:	4310                	lw	a2,0(a4)
    51d0:	4358                	lw	a4,4(a4)
    51d2:	96b2                	add	a3,a3,a2
    51d4:	c394                	sw	a3,0(a5)
    51d6:	c3d8                	sw	a4,4(a5)
    51d8:	b775                	j	5184 <_free_r+0x2e>
    51da:	00c47563          	bgeu	s0,a2,51e4 <_free_r+0x8e>
    51de:	47b1                	li	a5,12
    51e0:	c09c                	sw	a5,0(s1)
    51e2:	b74d                	j	5184 <_free_r+0x2e>
    51e4:	4010                	lw	a2,0(s0)
    51e6:	00c406b3          	add	a3,s0,a2
    51ea:	00d71663          	bne	a4,a3,51f6 <_free_r+0xa0>
    51ee:	4314                	lw	a3,0(a4)
    51f0:	4358                	lw	a4,4(a4)
    51f2:	96b2                	add	a3,a3,a2
    51f4:	c014                	sw	a3,0(s0)
    51f6:	c058                	sw	a4,4(s0)
    51f8:	c3c0                	sw	s0,4(a5)
    51fa:	b769                	j	5184 <_free_r+0x2e>
    51fc:	8082                	ret

000051fe <_malloc_r>:
    51fe:	1101                	addi	sp,sp,-32
    5200:	ca26                	sw	s1,20(sp)
    5202:	00358493          	addi	s1,a1,3
    5206:	98f1                	andi	s1,s1,-4
    5208:	ce06                	sw	ra,28(sp)
    520a:	cc22                	sw	s0,24(sp)
    520c:	c84a                	sw	s2,16(sp)
    520e:	c64e                	sw	s3,12(sp)
    5210:	04a1                	addi	s1,s1,8
    5212:	47b1                	li	a5,12
    5214:	04f4f563          	bgeu	s1,a5,525e <_malloc_r+0x60>
    5218:	44b1                	li	s1,12
    521a:	04b4e463          	bltu	s1,a1,5262 <_malloc_r+0x64>
    521e:	892a                	mv	s2,a0
    5220:	2ef030ef          	jal	ra,8d0e <__malloc_lock>
    5224:	83818793          	addi	a5,gp,-1992 # 20001120 <__malloc_free_list>
    5228:	4398                	lw	a4,0(a5)
    522a:	843a                	mv	s0,a4
    522c:	e429                	bnez	s0,5276 <_malloc_r+0x78>
    522e:	83c18793          	addi	a5,gp,-1988 # 20001124 <__malloc_sbrk_start>
    5232:	439c                	lw	a5,0(a5)
    5234:	e799                	bnez	a5,5242 <_malloc_r+0x44>
    5236:	4581                	li	a1,0
    5238:	854a                	mv	a0,s2
    523a:	03a010ef          	jal	ra,6274 <_sbrk_r>
    523e:	82a1ae23          	sw	a0,-1988(gp) # 20001124 <__malloc_sbrk_start>
    5242:	85a6                	mv	a1,s1
    5244:	854a                	mv	a0,s2
    5246:	02e010ef          	jal	ra,6274 <_sbrk_r>
    524a:	59fd                	li	s3,-1
    524c:	07351963          	bne	a0,s3,52be <_malloc_r+0xc0>
    5250:	47b1                	li	a5,12
    5252:	00f92023          	sw	a5,0(s2)
    5256:	854a                	mv	a0,s2
    5258:	2b9030ef          	jal	ra,8d10 <__malloc_unlock>
    525c:	a029                	j	5266 <_malloc_r+0x68>
    525e:	fa04dee3          	bgez	s1,521a <_malloc_r+0x1c>
    5262:	47b1                	li	a5,12
    5264:	c11c                	sw	a5,0(a0)
    5266:	4501                	li	a0,0
    5268:	40f2                	lw	ra,28(sp)
    526a:	4462                	lw	s0,24(sp)
    526c:	44d2                	lw	s1,20(sp)
    526e:	4942                	lw	s2,16(sp)
    5270:	49b2                	lw	s3,12(sp)
    5272:	6105                	addi	sp,sp,32
    5274:	8082                	ret
    5276:	401c                	lw	a5,0(s0)
    5278:	8f85                	sub	a5,a5,s1
    527a:	0207cf63          	bltz	a5,52b8 <_malloc_r+0xba>
    527e:	46ad                	li	a3,11
    5280:	00f6f663          	bgeu	a3,a5,528c <_malloc_r+0x8e>
    5284:	c01c                	sw	a5,0(s0)
    5286:	943e                	add	s0,s0,a5
    5288:	c004                	sw	s1,0(s0)
    528a:	a031                	j	5296 <_malloc_r+0x98>
    528c:	405c                	lw	a5,4(s0)
    528e:	02871363          	bne	a4,s0,52b4 <_malloc_r+0xb6>
    5292:	82f1ac23          	sw	a5,-1992(gp) # 20001120 <__malloc_free_list>
    5296:	854a                	mv	a0,s2
    5298:	279030ef          	jal	ra,8d10 <__malloc_unlock>
    529c:	00b40513          	addi	a0,s0,11
    52a0:	00440793          	addi	a5,s0,4
    52a4:	9961                	andi	a0,a0,-8
    52a6:	40f50733          	sub	a4,a0,a5
    52aa:	df5d                	beqz	a4,5268 <_malloc_r+0x6a>
    52ac:	943a                	add	s0,s0,a4
    52ae:	8f89                	sub	a5,a5,a0
    52b0:	c01c                	sw	a5,0(s0)
    52b2:	bf5d                	j	5268 <_malloc_r+0x6a>
    52b4:	c35c                	sw	a5,4(a4)
    52b6:	b7c5                	j	5296 <_malloc_r+0x98>
    52b8:	8722                	mv	a4,s0
    52ba:	4040                	lw	s0,4(s0)
    52bc:	bf85                	j	522c <_malloc_r+0x2e>
    52be:	00350413          	addi	s0,a0,3
    52c2:	9871                	andi	s0,s0,-4
    52c4:	fc8502e3          	beq	a0,s0,5288 <_malloc_r+0x8a>
    52c8:	40a405b3          	sub	a1,s0,a0
    52cc:	854a                	mv	a0,s2
    52ce:	7a7000ef          	jal	ra,6274 <_sbrk_r>
    52d2:	fb351be3          	bne	a0,s3,5288 <_malloc_r+0x8a>
    52d6:	bfad                	j	5250 <_malloc_r+0x52>

000052d8 <__cvt>:
    52d8:	7179                	addi	sp,sp,-48
    52da:	d422                	sw	s0,40(sp)
    52dc:	d04a                	sw	s2,32(sp)
    52de:	cc52                	sw	s4,24(sp)
    52e0:	ca56                	sw	s5,20(sp)
    52e2:	c85a                	sw	s6,16(sp)
    52e4:	d606                	sw	ra,44(sp)
    52e6:	d226                	sw	s1,36(sp)
    52e8:	ce4e                	sw	s3,28(sp)
    52ea:	8a3a                	mv	s4,a4
    52ec:	8aae                	mv	s5,a1
    52ee:	8432                	mv	s0,a2
    52f0:	8936                	mv	s2,a3
    52f2:	8b42                	mv	s6,a6
    52f4:	4701                	li	a4,0
    52f6:	00065863          	bgez	a2,5306 <__cvt+0x2e>
    52fa:	80000737          	lui	a4,0x80000
    52fe:	00c74433          	xor	s0,a4,a2
    5302:	02d00713          	li	a4,45
    5306:	00e78023          	sb	a4,0(a5)
    530a:	fdf8f493          	andi	s1,a7,-33
    530e:	04600793          	li	a5,70
    5312:	468d                	li	a3,3
    5314:	00f48863          	beq	s1,a5,5324 <__cvt+0x4c>
    5318:	04500793          	li	a5,69
    531c:	4689                	li	a3,2
    531e:	00f49363          	bne	s1,a5,5324 <__cvt+0x4c>
    5322:	0905                	addi	s2,s2,1
    5324:	87da                	mv	a5,s6
    5326:	00c10893          	addi	a7,sp,12
    532a:	00810813          	addi	a6,sp,8
    532e:	874a                	mv	a4,s2
    5330:	85d6                	mv	a1,s5
    5332:	8622                	mv	a2,s0
    5334:	166020ef          	jal	ra,749a <_dtoa_r>
    5338:	04700793          	li	a5,71
    533c:	89aa                	mv	s3,a0
    533e:	00f49663          	bne	s1,a5,534a <__cvt+0x72>
    5342:	001a7a13          	andi	s4,s4,1
    5346:	040a0a63          	beqz	s4,539a <__cvt+0xc2>
    534a:	04600793          	li	a5,70
    534e:	01298a33          	add	s4,s3,s2
    5352:	02f49763          	bne	s1,a5,5380 <__cvt+0xa8>
    5356:	0009c703          	lbu	a4,0(s3)
    535a:	03000793          	li	a5,48
    535e:	00f71e63          	bne	a4,a5,537a <__cvt+0xa2>
    5362:	4601                	li	a2,0
    5364:	4681                	li	a3,0
    5366:	8556                	mv	a0,s5
    5368:	85a2                	mv	a1,s0
    536a:	137050ef          	jal	ra,aca0 <__eqdf2>
    536e:	c511                	beqz	a0,537a <__cvt+0xa2>
    5370:	4785                	li	a5,1
    5372:	41278933          	sub	s2,a5,s2
    5376:	012b2023          	sw	s2,0(s6)
    537a:	000b2783          	lw	a5,0(s6)
    537e:	9a3e                	add	s4,s4,a5
    5380:	4601                	li	a2,0
    5382:	4681                	li	a3,0
    5384:	8556                	mv	a0,s5
    5386:	85a2                	mv	a1,s0
    5388:	119050ef          	jal	ra,aca0 <__eqdf2>
    538c:	e111                	bnez	a0,5390 <__cvt+0xb8>
    538e:	c652                	sw	s4,12(sp)
    5390:	03000713          	li	a4,48
    5394:	47b2                	lw	a5,12(sp)
    5396:	0347e263          	bltu	a5,s4,53ba <__cvt+0xe2>
    539a:	47b2                	lw	a5,12(sp)
    539c:	5742                	lw	a4,48(sp)
    539e:	50b2                	lw	ra,44(sp)
    53a0:	5422                	lw	s0,40(sp)
    53a2:	413787b3          	sub	a5,a5,s3
    53a6:	c31c                	sw	a5,0(a4)
    53a8:	854e                	mv	a0,s3
    53aa:	5492                	lw	s1,36(sp)
    53ac:	5902                	lw	s2,32(sp)
    53ae:	49f2                	lw	s3,28(sp)
    53b0:	4a62                	lw	s4,24(sp)
    53b2:	4ad2                	lw	s5,20(sp)
    53b4:	4b42                	lw	s6,16(sp)
    53b6:	6145                	addi	sp,sp,48
    53b8:	8082                	ret
    53ba:	00178693          	addi	a3,a5,1
    53be:	c636                	sw	a3,12(sp)
    53c0:	00e78023          	sb	a4,0(a5)
    53c4:	bfc1                	j	5394 <__cvt+0xbc>

000053c6 <__exponent>:
    53c6:	00c50023          	sb	a2,0(a0)
    53ca:	00250713          	addi	a4,a0,2
    53ce:	02b00793          	li	a5,43
    53d2:	0005d663          	bgez	a1,53de <__exponent+0x18>
    53d6:	40b005b3          	neg	a1,a1
    53da:	02d00793          	li	a5,45
    53de:	00f500a3          	sb	a5,1(a0)
    53e2:	47a5                	li	a5,9
    53e4:	04b7da63          	bge	a5,a1,5438 <__exponent+0x72>
    53e8:	1141                	addi	sp,sp,-16
    53ea:	00f10793          	addi	a5,sp,15
    53ee:	88be                	mv	a7,a5
    53f0:	4829                	li	a6,10
    53f2:	06300313          	li	t1,99
    53f6:	0305e6b3          	rem	a3,a1,a6
    53fa:	fff78613          	addi	a2,a5,-1
    53fe:	03068693          	addi	a3,a3,48
    5402:	fed78fa3          	sb	a3,-1(a5)
    5406:	0305c6b3          	div	a3,a1,a6
    540a:	00b34d63          	blt	t1,a1,5424 <__exponent+0x5e>
    540e:	03068693          	addi	a3,a3,48
    5412:	17f9                	addi	a5,a5,-2
    5414:	fed60fa3          	sb	a3,-1(a2)
    5418:	0117e963          	bltu	a5,a7,542a <__exponent+0x64>
    541c:	40a70533          	sub	a0,a4,a0
    5420:	0141                	addi	sp,sp,16
    5422:	8082                	ret
    5424:	87b2                	mv	a5,a2
    5426:	85b6                	mv	a1,a3
    5428:	b7f9                	j	53f6 <__exponent+0x30>
    542a:	0785                	addi	a5,a5,1
    542c:	fff7c683          	lbu	a3,-1(a5)
    5430:	0705                	addi	a4,a4,1
    5432:	fed70fa3          	sb	a3,-1(a4) # 7fffffff <_eusrstack+0x5fff7fff>
    5436:	b7cd                	j	5418 <__exponent+0x52>
    5438:	03000793          	li	a5,48
    543c:	00450713          	addi	a4,a0,4
    5440:	03058593          	addi	a1,a1,48
    5444:	00f50123          	sb	a5,2(a0)
    5448:	00b501a3          	sb	a1,3(a0)
    544c:	40a70533          	sub	a0,a4,a0
    5450:	8082                	ret

00005452 <_printf_float>:
    5452:	7119                	addi	sp,sp,-128
    5454:	ce3a                	sw	a4,28(sp)
    5456:	de86                	sw	ra,124(sp)
    5458:	dca2                	sw	s0,120(sp)
    545a:	daa6                	sw	s1,116(sp)
    545c:	842e                	mv	s0,a1
    545e:	d8ca                	sw	s2,112(sp)
    5460:	d6ce                	sw	s3,108(sp)
    5462:	d4d2                	sw	s4,104(sp)
    5464:	89b6                	mv	s3,a3
    5466:	d0da                	sw	s6,96(sp)
    5468:	cede                	sw	s7,92(sp)
    546a:	cce2                	sw	s8,88(sp)
    546c:	8932                	mv	s2,a2
    546e:	d2d6                	sw	s5,100(sp)
    5470:	cae6                	sw	s9,84(sp)
    5472:	c8ea                	sw	s10,80(sp)
    5474:	c6ee                	sw	s11,76(sp)
    5476:	84aa                	mv	s1,a0
    5478:	768030ef          	jal	ra,8be0 <_localeconv_r>
    547c:	00052b83          	lw	s7,0(a0)
    5480:	855e                	mv	a0,s7
    5482:	66f000ef          	jal	ra,62f0 <strlen>
    5486:	00042b03          	lw	s6,0(s0)
    548a:	4772                	lw	a4,28(sp)
    548c:	dc02                	sw	zero,56(sp)
    548e:	100b7693          	andi	a3,s6,256
    5492:	8c2a                	mv	s8,a0
    5494:	01844a03          	lbu	s4,24(s0)
    5498:	431c                	lw	a5,0(a4)
    549a:	caf1                	beqz	a3,556e <_printf_float+0x11c>
    549c:	00478693          	addi	a3,a5,4
    54a0:	c314                	sw	a3,0(a4)
    54a2:	439c                	lw	a5,0(a5)
    54a4:	1008                	addi	a0,sp,32
    54a6:	4398                	lw	a4,0(a5)
    54a8:	d03a                	sw	a4,32(sp)
    54aa:	43d8                	lw	a4,4(a5)
    54ac:	d23a                	sw	a4,36(sp)
    54ae:	4798                	lw	a4,8(a5)
    54b0:	d43a                	sw	a4,40(sp)
    54b2:	47dc                	lw	a5,12(a5)
    54b4:	d63e                	sw	a5,44(sp)
    54b6:	28f060ef          	jal	ra,bf44 <__trunctfdf2>
    54ba:	c428                	sw	a0,72(s0)
    54bc:	c46c                	sw	a1,76(s0)
    54be:	04c42c83          	lw	s9,76(s0)
    54c2:	00008717          	auipc	a4,0x8
    54c6:	df670713          	addi	a4,a4,-522 # d2b8 <__clz_tab+0x114>
    54ca:	04842a83          	lw	s5,72(s0)
    54ce:	00072d03          	lw	s10,0(a4)
    54d2:	00472d83          	lw	s11,4(a4)
    54d6:	001c9793          	slli	a5,s9,0x1
    54da:	8385                	srli	a5,a5,0x1
    54dc:	866a                	mv	a2,s10
    54de:	86ee                	mv	a3,s11
    54e0:	8556                	mv	a0,s5
    54e2:	85be                	mv	a1,a5
    54e4:	ce3e                	sw	a5,28(sp)
    54e6:	57e060ef          	jal	ra,ba64 <__unorddf2>
    54ea:	ed41                	bnez	a0,5582 <_printf_float+0x130>
    54ec:	47f2                	lw	a5,28(sp)
    54ee:	866a                	mv	a2,s10
    54f0:	86ee                	mv	a3,s11
    54f2:	8556                	mv	a0,s5
    54f4:	85be                	mv	a1,a5
    54f6:	0c3050ef          	jal	ra,adb8 <__ledf2>
    54fa:	08a05463          	blez	a0,5582 <_printf_float+0x130>
    54fe:	4601                	li	a2,0
    5500:	4681                	li	a3,0
    5502:	8556                	mv	a0,s5
    5504:	85e6                	mv	a1,s9
    5506:	0b3050ef          	jal	ra,adb8 <__ledf2>
    550a:	00055663          	bgez	a0,5516 <_printf_float+0xc4>
    550e:	02d00793          	li	a5,45
    5512:	04f401a3          	sb	a5,67(s0)
    5516:	04700793          	li	a5,71
    551a:	00008a97          	auipc	s5,0x8
    551e:	da6a8a93          	addi	s5,s5,-602 # d2c0 <__clz_tab+0x11c>
    5522:	0147f663          	bgeu	a5,s4,552e <_printf_float+0xdc>
    5526:	00008a97          	auipc	s5,0x8
    552a:	d9ea8a93          	addi	s5,s5,-610 # d2c4 <__clz_tab+0x120>
    552e:	ffbb7b13          	andi	s6,s6,-5
    5532:	478d                	li	a5,3
    5534:	01642023          	sw	s6,0(s0)
    5538:	c81c                	sw	a5,16(s0)
    553a:	4b01                	li	s6,0
    553c:	874e                	mv	a4,s3
    553e:	86ca                	mv	a3,s2
    5540:	1870                	addi	a2,sp,60
    5542:	85a2                	mv	a1,s0
    5544:	8526                	mv	a0,s1
    5546:	2ec1                	jal	5916 <_printf_common>
    5548:	5cfd                	li	s9,-1
    554a:	15951e63          	bne	a0,s9,56a6 <_printf_float+0x254>
    554e:	557d                	li	a0,-1
    5550:	50f6                	lw	ra,124(sp)
    5552:	5466                	lw	s0,120(sp)
    5554:	54d6                	lw	s1,116(sp)
    5556:	5946                	lw	s2,112(sp)
    5558:	59b6                	lw	s3,108(sp)
    555a:	5a26                	lw	s4,104(sp)
    555c:	5a96                	lw	s5,100(sp)
    555e:	5b06                	lw	s6,96(sp)
    5560:	4bf6                	lw	s7,92(sp)
    5562:	4c66                	lw	s8,88(sp)
    5564:	4cd6                	lw	s9,84(sp)
    5566:	4d46                	lw	s10,80(sp)
    5568:	4db6                	lw	s11,76(sp)
    556a:	6109                	addi	sp,sp,128
    556c:	8082                	ret
    556e:	079d                	addi	a5,a5,7
    5570:	9be1                	andi	a5,a5,-8
    5572:	00878693          	addi	a3,a5,8
    5576:	c314                	sw	a3,0(a4)
    5578:	4398                	lw	a4,0(a5)
    557a:	43dc                	lw	a5,4(a5)
    557c:	c438                	sw	a4,72(s0)
    557e:	c47c                	sw	a5,76(s0)
    5580:	bf3d                	j	54be <_printf_float+0x6c>
    5582:	8656                	mv	a2,s5
    5584:	86e6                	mv	a3,s9
    5586:	8556                	mv	a0,s5
    5588:	85e6                	mv	a1,s9
    558a:	4da060ef          	jal	ra,ba64 <__unorddf2>
    558e:	cd11                	beqz	a0,55aa <_printf_float+0x158>
    5590:	04700793          	li	a5,71
    5594:	00008a97          	auipc	s5,0x8
    5598:	d34a8a93          	addi	s5,s5,-716 # d2c8 <__clz_tab+0x124>
    559c:	f947f9e3          	bgeu	a5,s4,552e <_printf_float+0xdc>
    55a0:	00008a97          	auipc	s5,0x8
    55a4:	d2ca8a93          	addi	s5,s5,-724 # d2cc <__clz_tab+0x128>
    55a8:	b759                	j	552e <_printf_float+0xdc>
    55aa:	405c                	lw	a5,4(s0)
    55ac:	577d                	li	a4,-1
    55ae:	0dfa7d13          	andi	s10,s4,223
    55b2:	08e79563          	bne	a5,a4,563c <_printf_float+0x1ea>
    55b6:	4799                	li	a5,6
    55b8:	c05c                	sw	a5,4(s0)
    55ba:	4054                	lw	a3,4(s0)
    55bc:	400b6713          	ori	a4,s6,1024
    55c0:	183c                	addi	a5,sp,56
    55c2:	85d6                	mv	a1,s5
    55c4:	c03e                	sw	a5,0(sp)
    55c6:	c018                	sw	a4,0(s0)
    55c8:	03310793          	addi	a5,sp,51
    55cc:	c202                	sw	zero,4(sp)
    55ce:	88d2                	mv	a7,s4
    55d0:	03410813          	addi	a6,sp,52
    55d4:	8666                	mv	a2,s9
    55d6:	8526                	mv	a0,s1
    55d8:	d01ff0ef          	jal	ra,52d8 <__cvt>
    55dc:	04700793          	li	a5,71
    55e0:	8aaa                	mv	s5,a0
    55e2:	55d2                	lw	a1,52(sp)
    55e4:	00fd1b63          	bne	s10,a5,55fa <_printf_float+0x1a8>
    55e8:	57f5                	li	a5,-3
    55ea:	00f5c563          	blt	a1,a5,55f4 <_printf_float+0x1a2>
    55ee:	405c                	lw	a5,4(s0)
    55f0:	08b7d863          	bge	a5,a1,5680 <_printf_float+0x22e>
    55f4:	1a79                	addi	s4,s4,-2
    55f6:	0ffa7a13          	andi	s4,s4,255
    55fa:	06500793          	li	a5,101
    55fe:	0547e663          	bltu	a5,s4,564a <_printf_float+0x1f8>
    5602:	15fd                	addi	a1,a1,-1
    5604:	8652                	mv	a2,s4
    5606:	05040513          	addi	a0,s0,80
    560a:	da2e                	sw	a1,52(sp)
    560c:	dbbff0ef          	jal	ra,53c6 <__exponent>
    5610:	5762                	lw	a4,56(sp)
    5612:	4685                	li	a3,1
    5614:	8b2a                	mv	s6,a0
    5616:	00a707b3          	add	a5,a4,a0
    561a:	c81c                	sw	a5,16(s0)
    561c:	00e6c563          	blt	a3,a4,5626 <_printf_float+0x1d4>
    5620:	4018                	lw	a4,0(s0)
    5622:	8b05                	andi	a4,a4,1
    5624:	c319                	beqz	a4,562a <_printf_float+0x1d8>
    5626:	0785                	addi	a5,a5,1
    5628:	c81c                	sw	a5,16(s0)
    562a:	03314783          	lbu	a5,51(sp)
    562e:	f00787e3          	beqz	a5,553c <_printf_float+0xea>
    5632:	02d00793          	li	a5,45
    5636:	04f401a3          	sb	a5,67(s0)
    563a:	b709                	j	553c <_printf_float+0xea>
    563c:	04700713          	li	a4,71
    5640:	f6ed1de3          	bne	s10,a4,55ba <_printf_float+0x168>
    5644:	fbbd                	bnez	a5,55ba <_printf_float+0x168>
    5646:	4785                	li	a5,1
    5648:	bf85                	j	55b8 <_printf_float+0x166>
    564a:	06600793          	li	a5,102
    564e:	02fa1b63          	bne	s4,a5,5684 <_printf_float+0x232>
    5652:	405c                	lw	a5,4(s0)
    5654:	00b05b63          	blez	a1,566a <_printf_float+0x218>
    5658:	c80c                	sw	a1,16(s0)
    565a:	e781                	bnez	a5,5662 <_printf_float+0x210>
    565c:	4018                	lw	a4,0(s0)
    565e:	8b05                	andi	a4,a4,1
    5660:	cf09                	beqz	a4,567a <_printf_float+0x228>
    5662:	0785                	addi	a5,a5,1
    5664:	97ae                	add	a5,a5,a1
    5666:	c81c                	sw	a5,16(s0)
    5668:	a809                	j	567a <_printf_float+0x228>
    566a:	e789                	bnez	a5,5674 <_printf_float+0x222>
    566c:	4018                	lw	a4,0(s0)
    566e:	4685                	li	a3,1
    5670:	8b05                	andi	a4,a4,1
    5672:	c319                	beqz	a4,5678 <_printf_float+0x226>
    5674:	00278693          	addi	a3,a5,2
    5678:	c814                	sw	a3,16(s0)
    567a:	cc2c                	sw	a1,88(s0)
    567c:	4b01                	li	s6,0
    567e:	b775                	j	562a <_printf_float+0x1d8>
    5680:	06700a13          	li	s4,103
    5684:	57e2                	lw	a5,56(sp)
    5686:	00f5c963          	blt	a1,a5,5698 <_printf_float+0x246>
    568a:	401c                	lw	a5,0(s0)
    568c:	c80c                	sw	a1,16(s0)
    568e:	8b85                	andi	a5,a5,1
    5690:	d7ed                	beqz	a5,567a <_printf_float+0x228>
    5692:	00158793          	addi	a5,a1,1
    5696:	bfc1                	j	5666 <_printf_float+0x214>
    5698:	4705                	li	a4,1
    569a:	00b04463          	bgtz	a1,56a2 <_printf_float+0x250>
    569e:	4709                	li	a4,2
    56a0:	8f0d                	sub	a4,a4,a1
    56a2:	97ba                	add	a5,a5,a4
    56a4:	b7c9                	j	5666 <_printf_float+0x214>
    56a6:	401c                	lw	a5,0(s0)
    56a8:	4007f713          	andi	a4,a5,1024
    56ac:	e315                	bnez	a4,56d0 <_printf_float+0x27e>
    56ae:	4814                	lw	a3,16(s0)
    56b0:	8656                	mv	a2,s5
    56b2:	85ca                	mv	a1,s2
    56b4:	8526                	mv	a0,s1
    56b6:	9982                	jalr	s3
    56b8:	e9950be3          	beq	a0,s9,554e <_printf_float+0xfc>
    56bc:	401c                	lw	a5,0(s0)
    56be:	8b89                	andi	a5,a5,2
    56c0:	24079663          	bnez	a5,590c <_printf_float+0x4ba>
    56c4:	57f2                	lw	a5,60(sp)
    56c6:	4448                	lw	a0,12(s0)
    56c8:	e8f554e3          	bge	a0,a5,5550 <_printf_float+0xfe>
    56cc:	853e                	mv	a0,a5
    56ce:	b549                	j	5550 <_printf_float+0xfe>
    56d0:	06500713          	li	a4,101
    56d4:	19477b63          	bgeu	a4,s4,586a <_printf_float+0x418>
    56d8:	4428                	lw	a0,72(s0)
    56da:	446c                	lw	a1,76(s0)
    56dc:	4601                	li	a2,0
    56de:	4681                	li	a3,0
    56e0:	5c0050ef          	jal	ra,aca0 <__eqdf2>
    56e4:	e939                	bnez	a0,573a <_printf_float+0x2e8>
    56e6:	4685                	li	a3,1
    56e8:	00008617          	auipc	a2,0x8
    56ec:	be860613          	addi	a2,a2,-1048 # d2d0 <__clz_tab+0x12c>
    56f0:	85ca                	mv	a1,s2
    56f2:	8526                	mv	a0,s1
    56f4:	9982                	jalr	s3
    56f6:	e5950ce3          	beq	a0,s9,554e <_printf_float+0xfc>
    56fa:	5752                	lw	a4,52(sp)
    56fc:	57e2                	lw	a5,56(sp)
    56fe:	00f74563          	blt	a4,a5,5708 <_printf_float+0x2b6>
    5702:	401c                	lw	a5,0(s0)
    5704:	8b85                	andi	a5,a5,1
    5706:	dbdd                	beqz	a5,56bc <_printf_float+0x26a>
    5708:	86e2                	mv	a3,s8
    570a:	865e                	mv	a2,s7
    570c:	85ca                	mv	a1,s2
    570e:	8526                	mv	a0,s1
    5710:	9982                	jalr	s3
    5712:	57fd                	li	a5,-1
    5714:	e2f50de3          	beq	a0,a5,554e <_printf_float+0xfc>
    5718:	4a01                	li	s4,0
    571a:	01a40a93          	addi	s5,s0,26
    571e:	5b7d                	li	s6,-1
    5720:	57e2                	lw	a5,56(sp)
    5722:	17fd                	addi	a5,a5,-1
    5724:	f8fa5ce3          	bge	s4,a5,56bc <_printf_float+0x26a>
    5728:	4685                	li	a3,1
    572a:	8656                	mv	a2,s5
    572c:	85ca                	mv	a1,s2
    572e:	8526                	mv	a0,s1
    5730:	9982                	jalr	s3
    5732:	e1650ee3          	beq	a0,s6,554e <_printf_float+0xfc>
    5736:	0a05                	addi	s4,s4,1
    5738:	b7e5                	j	5720 <_printf_float+0x2ce>
    573a:	57d2                	lw	a5,52(sp)
    573c:	06f04663          	bgtz	a5,57a8 <_printf_float+0x356>
    5740:	4685                	li	a3,1
    5742:	00008617          	auipc	a2,0x8
    5746:	b8e60613          	addi	a2,a2,-1138 # d2d0 <__clz_tab+0x12c>
    574a:	85ca                	mv	a1,s2
    574c:	8526                	mv	a0,s1
    574e:	9982                	jalr	s3
    5750:	df950fe3          	beq	a0,s9,554e <_printf_float+0xfc>
    5754:	57d2                	lw	a5,52(sp)
    5756:	5762                	lw	a4,56(sp)
    5758:	8fd9                	or	a5,a5,a4
    575a:	e781                	bnez	a5,5762 <_printf_float+0x310>
    575c:	401c                	lw	a5,0(s0)
    575e:	8b85                	andi	a5,a5,1
    5760:	dfb1                	beqz	a5,56bc <_printf_float+0x26a>
    5762:	86e2                	mv	a3,s8
    5764:	865e                	mv	a2,s7
    5766:	85ca                	mv	a1,s2
    5768:	8526                	mv	a0,s1
    576a:	9982                	jalr	s3
    576c:	57fd                	li	a5,-1
    576e:	def500e3          	beq	a0,a5,554e <_printf_float+0xfc>
    5772:	4a01                	li	s4,0
    5774:	01a40b13          	addi	s6,s0,26
    5778:	5bfd                	li	s7,-1
    577a:	57d2                	lw	a5,52(sp)
    577c:	40f007b3          	neg	a5,a5
    5780:	00fa4b63          	blt	s4,a5,5796 <_printf_float+0x344>
    5784:	56e2                	lw	a3,56(sp)
    5786:	8656                	mv	a2,s5
    5788:	85ca                	mv	a1,s2
    578a:	8526                	mv	a0,s1
    578c:	9982                	jalr	s3
    578e:	57fd                	li	a5,-1
    5790:	f2f516e3          	bne	a0,a5,56bc <_printf_float+0x26a>
    5794:	bb6d                	j	554e <_printf_float+0xfc>
    5796:	4685                	li	a3,1
    5798:	865a                	mv	a2,s6
    579a:	85ca                	mv	a1,s2
    579c:	8526                	mv	a0,s1
    579e:	9982                	jalr	s3
    57a0:	db7507e3          	beq	a0,s7,554e <_printf_float+0xfc>
    57a4:	0a05                	addi	s4,s4,1
    57a6:	bfd1                	j	577a <_printf_float+0x328>
    57a8:	4c3c                	lw	a5,88(s0)
    57aa:	5a62                	lw	s4,56(sp)
    57ac:	0147d363          	bge	a5,s4,57b2 <_printf_float+0x360>
    57b0:	8a3e                	mv	s4,a5
    57b2:	01405a63          	blez	s4,57c6 <_printf_float+0x374>
    57b6:	86d2                	mv	a3,s4
    57b8:	8656                	mv	a2,s5
    57ba:	85ca                	mv	a1,s2
    57bc:	8526                	mv	a0,s1
    57be:	9982                	jalr	s3
    57c0:	57fd                	li	a5,-1
    57c2:	d8f506e3          	beq	a0,a5,554e <_printf_float+0xfc>
    57c6:	4c81                	li	s9,0
    57c8:	01a40d13          	addi	s10,s0,26
    57cc:	5dfd                	li	s11,-1
    57ce:	a809                	j	57e0 <_printf_float+0x38e>
    57d0:	4685                	li	a3,1
    57d2:	866a                	mv	a2,s10
    57d4:	85ca                	mv	a1,s2
    57d6:	8526                	mv	a0,s1
    57d8:	9982                	jalr	s3
    57da:	d7b50ae3          	beq	a0,s11,554e <_printf_float+0xfc>
    57de:	0c85                	addi	s9,s9,1
    57e0:	05842b03          	lw	s6,88(s0)
    57e4:	87d2                	mv	a5,s4
    57e6:	000a5363          	bgez	s4,57ec <_printf_float+0x39a>
    57ea:	4781                	li	a5,0
    57ec:	40fb07b3          	sub	a5,s6,a5
    57f0:	fefcc0e3          	blt	s9,a5,57d0 <_printf_float+0x37e>
    57f4:	5752                	lw	a4,52(sp)
    57f6:	57e2                	lw	a5,56(sp)
    57f8:	02f74d63          	blt	a4,a5,5832 <_printf_float+0x3e0>
    57fc:	401c                	lw	a5,0(s0)
    57fe:	8b85                	andi	a5,a5,1
    5800:	eb8d                	bnez	a5,5832 <_printf_float+0x3e0>
    5802:	57e2                	lw	a5,56(sp)
    5804:	5752                	lw	a4,52(sp)
    5806:	40e78a33          	sub	s4,a5,a4
    580a:	00eb4463          	blt	s6,a4,5812 <_printf_float+0x3c0>
    580e:	41678a33          	sub	s4,a5,s6
    5812:	01405b63          	blez	s4,5828 <_printf_float+0x3d6>
    5816:	86d2                	mv	a3,s4
    5818:	016a8633          	add	a2,s5,s6
    581c:	85ca                	mv	a1,s2
    581e:	8526                	mv	a0,s1
    5820:	9982                	jalr	s3
    5822:	57fd                	li	a5,-1
    5824:	d2f505e3          	beq	a0,a5,554e <_printf_float+0xfc>
    5828:	4a81                	li	s5,0
    582a:	01a40b13          	addi	s6,s0,26
    582e:	5bfd                	li	s7,-1
    5830:	a015                	j	5854 <_printf_float+0x402>
    5832:	86e2                	mv	a3,s8
    5834:	865e                	mv	a2,s7
    5836:	85ca                	mv	a1,s2
    5838:	8526                	mv	a0,s1
    583a:	9982                	jalr	s3
    583c:	57fd                	li	a5,-1
    583e:	fcf512e3          	bne	a0,a5,5802 <_printf_float+0x3b0>
    5842:	b331                	j	554e <_printf_float+0xfc>
    5844:	4685                	li	a3,1
    5846:	865a                	mv	a2,s6
    5848:	85ca                	mv	a1,s2
    584a:	8526                	mv	a0,s1
    584c:	9982                	jalr	s3
    584e:	d17500e3          	beq	a0,s7,554e <_printf_float+0xfc>
    5852:	0a85                	addi	s5,s5,1
    5854:	5752                	lw	a4,52(sp)
    5856:	57e2                	lw	a5,56(sp)
    5858:	8f99                	sub	a5,a5,a4
    585a:	8752                	mv	a4,s4
    585c:	000a5363          	bgez	s4,5862 <_printf_float+0x410>
    5860:	4701                	li	a4,0
    5862:	8f99                	sub	a5,a5,a4
    5864:	fefac0e3          	blt	s5,a5,5844 <_printf_float+0x3f2>
    5868:	bd91                	j	56bc <_printf_float+0x26a>
    586a:	56e2                	lw	a3,56(sp)
    586c:	4705                	li	a4,1
    586e:	00d74463          	blt	a4,a3,5876 <_printf_float+0x424>
    5872:	8b85                	andi	a5,a5,1
    5874:	c7b5                	beqz	a5,58e0 <_printf_float+0x48e>
    5876:	4685                	li	a3,1
    5878:	8656                	mv	a2,s5
    587a:	85ca                	mv	a1,s2
    587c:	8526                	mv	a0,s1
    587e:	9982                	jalr	s3
    5880:	5a7d                	li	s4,-1
    5882:	cd4506e3          	beq	a0,s4,554e <_printf_float+0xfc>
    5886:	86e2                	mv	a3,s8
    5888:	865e                	mv	a2,s7
    588a:	85ca                	mv	a1,s2
    588c:	8526                	mv	a0,s1
    588e:	9982                	jalr	s3
    5890:	cb450fe3          	beq	a0,s4,554e <_printf_float+0xfc>
    5894:	4428                	lw	a0,72(s0)
    5896:	446c                	lw	a1,76(s0)
    5898:	4601                	li	a2,0
    589a:	4681                	li	a3,0
    589c:	404050ef          	jal	ra,aca0 <__eqdf2>
    58a0:	c91d                	beqz	a0,58d6 <_printf_float+0x484>
    58a2:	56e2                	lw	a3,56(sp)
    58a4:	001a8613          	addi	a2,s5,1
    58a8:	85ca                	mv	a1,s2
    58aa:	16fd                	addi	a3,a3,-1
    58ac:	8526                	mv	a0,s1
    58ae:	9982                	jalr	s3
    58b0:	c9450fe3          	beq	a0,s4,554e <_printf_float+0xfc>
    58b4:	86da                	mv	a3,s6
    58b6:	05040613          	addi	a2,s0,80
    58ba:	b5f9                	j	5788 <_printf_float+0x336>
    58bc:	4685                	li	a3,1
    58be:	8656                	mv	a2,s5
    58c0:	85ca                	mv	a1,s2
    58c2:	8526                	mv	a0,s1
    58c4:	9982                	jalr	s3
    58c6:	c97504e3          	beq	a0,s7,554e <_printf_float+0xfc>
    58ca:	0a05                	addi	s4,s4,1
    58cc:	57e2                	lw	a5,56(sp)
    58ce:	17fd                	addi	a5,a5,-1
    58d0:	fefa46e3          	blt	s4,a5,58bc <_printf_float+0x46a>
    58d4:	b7c5                	j	58b4 <_printf_float+0x462>
    58d6:	4a01                	li	s4,0
    58d8:	01a40a93          	addi	s5,s0,26
    58dc:	5bfd                	li	s7,-1
    58de:	b7fd                	j	58cc <_printf_float+0x47a>
    58e0:	4685                	li	a3,1
    58e2:	8656                	mv	a2,s5
    58e4:	85ca                	mv	a1,s2
    58e6:	8526                	mv	a0,s1
    58e8:	9982                	jalr	s3
    58ea:	fd9515e3          	bne	a0,s9,58b4 <_printf_float+0x462>
    58ee:	b185                	j	554e <_printf_float+0xfc>
    58f0:	4685                	li	a3,1
    58f2:	8656                	mv	a2,s5
    58f4:	85ca                	mv	a1,s2
    58f6:	8526                	mv	a0,s1
    58f8:	9982                	jalr	s3
    58fa:	c5650ae3          	beq	a0,s6,554e <_printf_float+0xfc>
    58fe:	0a05                	addi	s4,s4,1
    5900:	445c                	lw	a5,12(s0)
    5902:	5772                	lw	a4,60(sp)
    5904:	8f99                	sub	a5,a5,a4
    5906:	fefa45e3          	blt	s4,a5,58f0 <_printf_float+0x49e>
    590a:	bb6d                	j	56c4 <_printf_float+0x272>
    590c:	4a01                	li	s4,0
    590e:	01940a93          	addi	s5,s0,25
    5912:	5b7d                	li	s6,-1
    5914:	b7f5                	j	5900 <_printf_float+0x4ae>

00005916 <_printf_common>:
    5916:	7179                	addi	sp,sp,-48
    5918:	ca56                	sw	s5,20(sp)
    591a:	499c                	lw	a5,16(a1)
    591c:	8aba                	mv	s5,a4
    591e:	4598                	lw	a4,8(a1)
    5920:	d422                	sw	s0,40(sp)
    5922:	d226                	sw	s1,36(sp)
    5924:	ce4e                	sw	s3,28(sp)
    5926:	cc52                	sw	s4,24(sp)
    5928:	d606                	sw	ra,44(sp)
    592a:	d04a                	sw	s2,32(sp)
    592c:	c85a                	sw	s6,16(sp)
    592e:	c65e                	sw	s7,12(sp)
    5930:	89aa                	mv	s3,a0
    5932:	842e                	mv	s0,a1
    5934:	84b2                	mv	s1,a2
    5936:	8a36                	mv	s4,a3
    5938:	00e7d363          	bge	a5,a4,593e <_printf_common+0x28>
    593c:	87ba                	mv	a5,a4
    593e:	c09c                	sw	a5,0(s1)
    5940:	04344703          	lbu	a4,67(s0)
    5944:	c319                	beqz	a4,594a <_printf_common+0x34>
    5946:	0785                	addi	a5,a5,1
    5948:	c09c                	sw	a5,0(s1)
    594a:	401c                	lw	a5,0(s0)
    594c:	0207f793          	andi	a5,a5,32
    5950:	c781                	beqz	a5,5958 <_printf_common+0x42>
    5952:	409c                	lw	a5,0(s1)
    5954:	0789                	addi	a5,a5,2
    5956:	c09c                	sw	a5,0(s1)
    5958:	00042903          	lw	s2,0(s0)
    595c:	00697913          	andi	s2,s2,6
    5960:	00091a63          	bnez	s2,5974 <_printf_common+0x5e>
    5964:	01940b13          	addi	s6,s0,25
    5968:	5bfd                	li	s7,-1
    596a:	445c                	lw	a5,12(s0)
    596c:	4098                	lw	a4,0(s1)
    596e:	8f99                	sub	a5,a5,a4
    5970:	04f94c63          	blt	s2,a5,59c8 <_printf_common+0xb2>
    5974:	401c                	lw	a5,0(s0)
    5976:	04344683          	lbu	a3,67(s0)
    597a:	0207f793          	andi	a5,a5,32
    597e:	00d036b3          	snez	a3,a3
    5982:	eba5                	bnez	a5,59f2 <_printf_common+0xdc>
    5984:	04340613          	addi	a2,s0,67
    5988:	85d2                	mv	a1,s4
    598a:	854e                	mv	a0,s3
    598c:	9a82                	jalr	s5
    598e:	57fd                	li	a5,-1
    5990:	04f50363          	beq	a0,a5,59d6 <_printf_common+0xc0>
    5994:	401c                	lw	a5,0(s0)
    5996:	4611                	li	a2,4
    5998:	4098                	lw	a4,0(s1)
    599a:	8b99                	andi	a5,a5,6
    599c:	4454                	lw	a3,12(s0)
    599e:	4481                	li	s1,0
    59a0:	00c79763          	bne	a5,a2,59ae <_printf_common+0x98>
    59a4:	40e684b3          	sub	s1,a3,a4
    59a8:	0004d363          	bgez	s1,59ae <_printf_common+0x98>
    59ac:	4481                	li	s1,0
    59ae:	441c                	lw	a5,8(s0)
    59b0:	4818                	lw	a4,16(s0)
    59b2:	00f75463          	bge	a4,a5,59ba <_printf_common+0xa4>
    59b6:	8f99                	sub	a5,a5,a4
    59b8:	94be                	add	s1,s1,a5
    59ba:	4901                	li	s2,0
    59bc:	0469                	addi	s0,s0,26
    59be:	5b7d                	li	s6,-1
    59c0:	05249863          	bne	s1,s2,5a10 <_printf_common+0xfa>
    59c4:	4501                	li	a0,0
    59c6:	a809                	j	59d8 <_printf_common+0xc2>
    59c8:	4685                	li	a3,1
    59ca:	865a                	mv	a2,s6
    59cc:	85d2                	mv	a1,s4
    59ce:	854e                	mv	a0,s3
    59d0:	9a82                	jalr	s5
    59d2:	01751e63          	bne	a0,s7,59ee <_printf_common+0xd8>
    59d6:	557d                	li	a0,-1
    59d8:	50b2                	lw	ra,44(sp)
    59da:	5422                	lw	s0,40(sp)
    59dc:	5492                	lw	s1,36(sp)
    59de:	5902                	lw	s2,32(sp)
    59e0:	49f2                	lw	s3,28(sp)
    59e2:	4a62                	lw	s4,24(sp)
    59e4:	4ad2                	lw	s5,20(sp)
    59e6:	4b42                	lw	s6,16(sp)
    59e8:	4bb2                	lw	s7,12(sp)
    59ea:	6145                	addi	sp,sp,48
    59ec:	8082                	ret
    59ee:	0905                	addi	s2,s2,1
    59f0:	bfad                	j	596a <_printf_common+0x54>
    59f2:	00d40733          	add	a4,s0,a3
    59f6:	03000613          	li	a2,48
    59fa:	04c701a3          	sb	a2,67(a4)
    59fe:	04544703          	lbu	a4,69(s0)
    5a02:	00168793          	addi	a5,a3,1
    5a06:	97a2                	add	a5,a5,s0
    5a08:	0689                	addi	a3,a3,2
    5a0a:	04e781a3          	sb	a4,67(a5)
    5a0e:	bf9d                	j	5984 <_printf_common+0x6e>
    5a10:	4685                	li	a3,1
    5a12:	8622                	mv	a2,s0
    5a14:	85d2                	mv	a1,s4
    5a16:	854e                	mv	a0,s3
    5a18:	9a82                	jalr	s5
    5a1a:	fb650ee3          	beq	a0,s6,59d6 <_printf_common+0xc0>
    5a1e:	0905                	addi	s2,s2,1
    5a20:	b745                	j	59c0 <_printf_common+0xaa>

00005a22 <_printf_i>:
    5a22:	7179                	addi	sp,sp,-48
    5a24:	d422                	sw	s0,40(sp)
    5a26:	d226                	sw	s1,36(sp)
    5a28:	d04a                	sw	s2,32(sp)
    5a2a:	ce4e                	sw	s3,28(sp)
    5a2c:	d606                	sw	ra,44(sp)
    5a2e:	cc52                	sw	s4,24(sp)
    5a30:	ca56                	sw	s5,20(sp)
    5a32:	c85a                	sw	s6,16(sp)
    5a34:	89b6                	mv	s3,a3
    5a36:	0185c683          	lbu	a3,24(a1)
    5a3a:	06900793          	li	a5,105
    5a3e:	8932                	mv	s2,a2
    5a40:	84aa                	mv	s1,a0
    5a42:	842e                	mv	s0,a1
    5a44:	04358613          	addi	a2,a1,67
    5a48:	02f68d63          	beq	a3,a5,5a82 <_printf_i+0x60>
    5a4c:	06d7e263          	bltu	a5,a3,5ab0 <_printf_i+0x8e>
    5a50:	05800793          	li	a5,88
    5a54:	18f68963          	beq	a3,a5,5be6 <_printf_i+0x1c4>
    5a58:	00d7ed63          	bltu	a5,a3,5a72 <_printf_i+0x50>
    5a5c:	22068263          	beqz	a3,5c80 <_printf_i+0x25e>
    5a60:	04300793          	li	a5,67
    5a64:	0af68f63          	beq	a3,a5,5b22 <_printf_i+0x100>
    5a68:	04240a93          	addi	s5,s0,66
    5a6c:	04d40123          	sb	a3,66(s0)
    5a70:	a0d1                	j	5b34 <_printf_i+0x112>
    5a72:	06300793          	li	a5,99
    5a76:	0af68663          	beq	a3,a5,5b22 <_printf_i+0x100>
    5a7a:	06400793          	li	a5,100
    5a7e:	fef695e3          	bne	a3,a5,5a68 <_printf_i+0x46>
    5a82:	401c                	lw	a5,0(s0)
    5a84:	4308                	lw	a0,0(a4)
    5a86:	0807f693          	andi	a3,a5,128
    5a8a:	00450593          	addi	a1,a0,4
    5a8e:	c6cd                	beqz	a3,5b38 <_printf_i+0x116>
    5a90:	411c                	lw	a5,0(a0)
    5a92:	c30c                	sw	a1,0(a4)
    5a94:	0007d863          	bgez	a5,5aa4 <_printf_i+0x82>
    5a98:	02d00713          	li	a4,45
    5a9c:	40f007b3          	neg	a5,a5
    5aa0:	04e401a3          	sb	a4,67(s0)
    5aa4:	00008697          	auipc	a3,0x8
    5aa8:	83068693          	addi	a3,a3,-2000 # d2d4 <__clz_tab+0x130>
    5aac:	4729                	li	a4,10
    5aae:	a875                	j	5b6a <_printf_i+0x148>
    5ab0:	07000793          	li	a5,112
    5ab4:	16f68563          	beq	a3,a5,5c1e <_printf_i+0x1fc>
    5ab8:	02d7e563          	bltu	a5,a3,5ae2 <_printf_i+0xc0>
    5abc:	06e00793          	li	a5,110
    5ac0:	18f68c63          	beq	a3,a5,5c58 <_printf_i+0x236>
    5ac4:	06f00793          	li	a5,111
    5ac8:	faf690e3          	bne	a3,a5,5a68 <_printf_i+0x46>
    5acc:	400c                	lw	a1,0(s0)
    5ace:	431c                	lw	a5,0(a4)
    5ad0:	0805f813          	andi	a6,a1,128
    5ad4:	00478513          	addi	a0,a5,4
    5ad8:	06080863          	beqz	a6,5b48 <_printf_i+0x126>
    5adc:	c308                	sw	a0,0(a4)
    5ade:	439c                	lw	a5,0(a5)
    5ae0:	a895                	j	5b54 <_printf_i+0x132>
    5ae2:	07500793          	li	a5,117
    5ae6:	fef683e3          	beq	a3,a5,5acc <_printf_i+0xaa>
    5aea:	07800793          	li	a5,120
    5aee:	12f68c63          	beq	a3,a5,5c26 <_printf_i+0x204>
    5af2:	07300793          	li	a5,115
    5af6:	f6f699e3          	bne	a3,a5,5a68 <_printf_i+0x46>
    5afa:	431c                	lw	a5,0(a4)
    5afc:	41d0                	lw	a2,4(a1)
    5afe:	4581                	li	a1,0
    5b00:	00478693          	addi	a3,a5,4
    5b04:	c314                	sw	a3,0(a4)
    5b06:	0007aa83          	lw	s5,0(a5)
    5b0a:	8556                	mv	a0,s5
    5b0c:	1e8030ef          	jal	ra,8cf4 <memchr>
    5b10:	c501                	beqz	a0,5b18 <_printf_i+0xf6>
    5b12:	41550533          	sub	a0,a0,s5
    5b16:	c048                	sw	a0,4(s0)
    5b18:	405c                	lw	a5,4(s0)
    5b1a:	c81c                	sw	a5,16(s0)
    5b1c:	040401a3          	sb	zero,67(s0)
    5b20:	a871                	j	5bbc <_printf_i+0x19a>
    5b22:	431c                	lw	a5,0(a4)
    5b24:	04240a93          	addi	s5,s0,66
    5b28:	00478693          	addi	a3,a5,4
    5b2c:	439c                	lw	a5,0(a5)
    5b2e:	c314                	sw	a3,0(a4)
    5b30:	04f40123          	sb	a5,66(s0)
    5b34:	4785                	li	a5,1
    5b36:	b7d5                	j	5b1a <_printf_i+0xf8>
    5b38:	0407f693          	andi	a3,a5,64
    5b3c:	411c                	lw	a5,0(a0)
    5b3e:	c30c                	sw	a1,0(a4)
    5b40:	dab1                	beqz	a3,5a94 <_printf_i+0x72>
    5b42:	07c2                	slli	a5,a5,0x10
    5b44:	87c1                	srai	a5,a5,0x10
    5b46:	b7b9                	j	5a94 <_printf_i+0x72>
    5b48:	0405f593          	andi	a1,a1,64
    5b4c:	c308                	sw	a0,0(a4)
    5b4e:	d9c1                	beqz	a1,5ade <_printf_i+0xbc>
    5b50:	0007d783          	lhu	a5,0(a5)
    5b54:	06f00713          	li	a4,111
    5b58:	0ee68863          	beq	a3,a4,5c48 <_printf_i+0x226>
    5b5c:	00007697          	auipc	a3,0x7
    5b60:	77868693          	addi	a3,a3,1912 # d2d4 <__clz_tab+0x130>
    5b64:	4729                	li	a4,10
    5b66:	040401a3          	sb	zero,67(s0)
    5b6a:	404c                	lw	a1,4(s0)
    5b6c:	c40c                	sw	a1,8(s0)
    5b6e:	0005c563          	bltz	a1,5b78 <_printf_i+0x156>
    5b72:	4008                	lw	a0,0(s0)
    5b74:	996d                	andi	a0,a0,-5
    5b76:	c008                	sw	a0,0(s0)
    5b78:	e399                	bnez	a5,5b7e <_printf_i+0x15c>
    5b7a:	8ab2                	mv	s5,a2
    5b7c:	cd91                	beqz	a1,5b98 <_printf_i+0x176>
    5b7e:	8ab2                	mv	s5,a2
    5b80:	02e7f5b3          	remu	a1,a5,a4
    5b84:	1afd                	addi	s5,s5,-1
    5b86:	95b6                	add	a1,a1,a3
    5b88:	0005c583          	lbu	a1,0(a1)
    5b8c:	00ba8023          	sb	a1,0(s5)
    5b90:	02e7d5b3          	divu	a1,a5,a4
    5b94:	0ce7f063          	bgeu	a5,a4,5c54 <_printf_i+0x232>
    5b98:	47a1                	li	a5,8
    5b9a:	00f71e63          	bne	a4,a5,5bb6 <_printf_i+0x194>
    5b9e:	401c                	lw	a5,0(s0)
    5ba0:	8b85                	andi	a5,a5,1
    5ba2:	cb91                	beqz	a5,5bb6 <_printf_i+0x194>
    5ba4:	4058                	lw	a4,4(s0)
    5ba6:	481c                	lw	a5,16(s0)
    5ba8:	00e7c763          	blt	a5,a4,5bb6 <_printf_i+0x194>
    5bac:	03000793          	li	a5,48
    5bb0:	fefa8fa3          	sb	a5,-1(s5)
    5bb4:	1afd                	addi	s5,s5,-1
    5bb6:	41560633          	sub	a2,a2,s5
    5bba:	c810                	sw	a2,16(s0)
    5bbc:	874e                	mv	a4,s3
    5bbe:	86ca                	mv	a3,s2
    5bc0:	0070                	addi	a2,sp,12
    5bc2:	85a2                	mv	a1,s0
    5bc4:	8526                	mv	a0,s1
    5bc6:	d51ff0ef          	jal	ra,5916 <_printf_common>
    5bca:	5a7d                	li	s4,-1
    5bcc:	0b451e63          	bne	a0,s4,5c88 <_printf_i+0x266>
    5bd0:	557d                	li	a0,-1
    5bd2:	50b2                	lw	ra,44(sp)
    5bd4:	5422                	lw	s0,40(sp)
    5bd6:	5492                	lw	s1,36(sp)
    5bd8:	5902                	lw	s2,32(sp)
    5bda:	49f2                	lw	s3,28(sp)
    5bdc:	4a62                	lw	s4,24(sp)
    5bde:	4ad2                	lw	s5,20(sp)
    5be0:	4b42                	lw	s6,16(sp)
    5be2:	6145                	addi	sp,sp,48
    5be4:	8082                	ret
    5be6:	04d582a3          	sb	a3,69(a1)
    5bea:	00007697          	auipc	a3,0x7
    5bee:	6ea68693          	addi	a3,a3,1770 # d2d4 <__clz_tab+0x130>
    5bf2:	400c                	lw	a1,0(s0)
    5bf4:	4308                	lw	a0,0(a4)
    5bf6:	0805f813          	andi	a6,a1,128
    5bfa:	411c                	lw	a5,0(a0)
    5bfc:	0511                	addi	a0,a0,4
    5bfe:	02080d63          	beqz	a6,5c38 <_printf_i+0x216>
    5c02:	c308                	sw	a0,0(a4)
    5c04:	0015f713          	andi	a4,a1,1
    5c08:	c701                	beqz	a4,5c10 <_printf_i+0x1ee>
    5c0a:	0205e593          	ori	a1,a1,32
    5c0e:	c00c                	sw	a1,0(s0)
    5c10:	4741                	li	a4,16
    5c12:	fbb1                	bnez	a5,5b66 <_printf_i+0x144>
    5c14:	400c                	lw	a1,0(s0)
    5c16:	fdf5f593          	andi	a1,a1,-33
    5c1a:	c00c                	sw	a1,0(s0)
    5c1c:	b7a9                	j	5b66 <_printf_i+0x144>
    5c1e:	419c                	lw	a5,0(a1)
    5c20:	0207e793          	ori	a5,a5,32
    5c24:	c19c                	sw	a5,0(a1)
    5c26:	07800793          	li	a5,120
    5c2a:	04f402a3          	sb	a5,69(s0)
    5c2e:	00007697          	auipc	a3,0x7
    5c32:	6ba68693          	addi	a3,a3,1722 # d2e8 <__clz_tab+0x144>
    5c36:	bf75                	j	5bf2 <_printf_i+0x1d0>
    5c38:	0405f813          	andi	a6,a1,64
    5c3c:	c308                	sw	a0,0(a4)
    5c3e:	fc0803e3          	beqz	a6,5c04 <_printf_i+0x1e2>
    5c42:	07c2                	slli	a5,a5,0x10
    5c44:	83c1                	srli	a5,a5,0x10
    5c46:	bf7d                	j	5c04 <_printf_i+0x1e2>
    5c48:	00007697          	auipc	a3,0x7
    5c4c:	68c68693          	addi	a3,a3,1676 # d2d4 <__clz_tab+0x130>
    5c50:	4721                	li	a4,8
    5c52:	bf11                	j	5b66 <_printf_i+0x144>
    5c54:	87ae                	mv	a5,a1
    5c56:	b72d                	j	5b80 <_printf_i+0x15e>
    5c58:	4194                	lw	a3,0(a1)
    5c5a:	431c                	lw	a5,0(a4)
    5c5c:	49cc                	lw	a1,20(a1)
    5c5e:	0806f813          	andi	a6,a3,128
    5c62:	00478513          	addi	a0,a5,4
    5c66:	00080663          	beqz	a6,5c72 <_printf_i+0x250>
    5c6a:	c308                	sw	a0,0(a4)
    5c6c:	439c                	lw	a5,0(a5)
    5c6e:	c38c                	sw	a1,0(a5)
    5c70:	a801                	j	5c80 <_printf_i+0x25e>
    5c72:	c308                	sw	a0,0(a4)
    5c74:	0406f693          	andi	a3,a3,64
    5c78:	439c                	lw	a5,0(a5)
    5c7a:	daf5                	beqz	a3,5c6e <_printf_i+0x24c>
    5c7c:	00b79023          	sh	a1,0(a5)
    5c80:	00042823          	sw	zero,16(s0)
    5c84:	8ab2                	mv	s5,a2
    5c86:	bf1d                	j	5bbc <_printf_i+0x19a>
    5c88:	4814                	lw	a3,16(s0)
    5c8a:	8656                	mv	a2,s5
    5c8c:	85ca                	mv	a1,s2
    5c8e:	8526                	mv	a0,s1
    5c90:	9982                	jalr	s3
    5c92:	f3450fe3          	beq	a0,s4,5bd0 <_printf_i+0x1ae>
    5c96:	401c                	lw	a5,0(s0)
    5c98:	8b89                	andi	a5,a5,2
    5c9a:	e78d                	bnez	a5,5cc4 <_printf_i+0x2a2>
    5c9c:	47b2                	lw	a5,12(sp)
    5c9e:	4448                	lw	a0,12(s0)
    5ca0:	f2f559e3          	bge	a0,a5,5bd2 <_printf_i+0x1b0>
    5ca4:	853e                	mv	a0,a5
    5ca6:	b735                	j	5bd2 <_printf_i+0x1b0>
    5ca8:	4685                	li	a3,1
    5caa:	8656                	mv	a2,s5
    5cac:	85ca                	mv	a1,s2
    5cae:	8526                	mv	a0,s1
    5cb0:	9982                	jalr	s3
    5cb2:	f1650fe3          	beq	a0,s6,5bd0 <_printf_i+0x1ae>
    5cb6:	0a05                	addi	s4,s4,1
    5cb8:	445c                	lw	a5,12(s0)
    5cba:	4732                	lw	a4,12(sp)
    5cbc:	8f99                	sub	a5,a5,a4
    5cbe:	fefa45e3          	blt	s4,a5,5ca8 <_printf_i+0x286>
    5cc2:	bfe9                	j	5c9c <_printf_i+0x27a>
    5cc4:	4a01                	li	s4,0
    5cc6:	01940a93          	addi	s5,s0,25
    5cca:	5b7d                	li	s6,-1
    5ccc:	b7f5                	j	5cb8 <_printf_i+0x296>

00005cce <_scanf_float>:
    5cce:	459c                	lw	a5,8(a1)
    5cd0:	711d                	addi	sp,sp,-96
    5cd2:	cca2                	sw	s0,88(sp)
    5cd4:	c6ce                	sw	s3,76(sp)
    5cd6:	c0da                	sw	s6,64(sp)
    5cd8:	da66                	sw	s9,52(sp)
    5cda:	ce86                	sw	ra,92(sp)
    5cdc:	8cb2                	mv	s9,a2
    5cde:	caa6                	sw	s1,84(sp)
    5ce0:	c8ca                	sw	s2,80(sp)
    5ce2:	c4d2                	sw	s4,72(sp)
    5ce4:	c2d6                	sw	s5,68(sp)
    5ce6:	de5e                	sw	s7,60(sp)
    5ce8:	dc62                	sw	s8,56(sp)
    5cea:	d86a                	sw	s10,48(sp)
    5cec:	d66e                	sw	s11,44(sp)
    5cee:	fff78613          	addi	a2,a5,-1
    5cf2:	15c00713          	li	a4,348
    5cf6:	8b36                	mv	s6,a3
    5cf8:	89aa                	mv	s3,a0
    5cfa:	842e                	mv	s0,a1
    5cfc:	4681                	li	a3,0
    5cfe:	00c77763          	bgeu	a4,a2,5d0c <_scanf_float+0x3e>
    5d02:	ea378693          	addi	a3,a5,-349
    5d06:	15d00793          	li	a5,349
    5d0a:	c59c                	sw	a5,8(a1)
    5d0c:	401c                	lw	a5,0(s0)
    5d0e:	01c40a93          	addi	s5,s0,28
    5d12:	84d6                	mv	s1,s5
    5d14:	7807e793          	ori	a5,a5,1920
    5d18:	c01c                	sw	a5,0(s0)
    5d1a:	4901                	li	s2,0
    5d1c:	4d81                	li	s11,0
    5d1e:	4c01                	li	s8,0
    5d20:	4a01                	li	s4,0
    5d22:	4d01                	li	s10,0
    5d24:	4b81                	li	s7,0
    5d26:	04900613          	li	a2,73
    5d2a:	70000813          	li	a6,1792
    5d2e:	4885                	li	a7,1
    5d30:	40000e93          	li	t4,1024
    5d34:	4309                	li	t1,2
    5d36:	06500e13          	li	t3,101
    5d3a:	4f1d                	li	t5,7
    5d3c:	4418                	lw	a4,8(s0)
    5d3e:	cb1d                	beqz	a4,5d74 <_scanf_float+0xa6>
    5d40:	000ca783          	lw	a5,0(s9)
    5d44:	0007c783          	lbu	a5,0(a5)
    5d48:	12c78b63          	beq	a5,a2,5e7e <_scanf_float+0x1b0>
    5d4c:	0cf66863          	bltu	a2,a5,5e1c <_scanf_float+0x14e>
    5d50:	03900593          	li	a1,57
    5d54:	0af5e463          	bltu	a1,a5,5dfc <_scanf_float+0x12e>
    5d58:	03100593          	li	a1,49
    5d5c:	14b7fb63          	bgeu	a5,a1,5eb2 <_scanf_float+0x1e4>
    5d60:	02d00593          	li	a1,45
    5d64:	16b78363          	beq	a5,a1,5eca <_scanf_float+0x1fc>
    5d68:	04f5e363          	bltu	a1,a5,5dae <_scanf_float+0xe0>
    5d6c:	02b00713          	li	a4,43
    5d70:	14e78d63          	beq	a5,a4,5eca <_scanf_float+0x1fc>
    5d74:	000d0663          	beqz	s10,5d80 <_scanf_float+0xb2>
    5d78:	401c                	lw	a5,0(s0)
    5d7a:	eff7f793          	andi	a5,a5,-257
    5d7e:	c01c                	sw	a5,0(s0)
    5d80:	1dfd                	addi	s11,s11,-1
    5d82:	4785                	li	a5,1
    5d84:	21b7eb63          	bltu	a5,s11,5f9a <_scanf_float+0x2cc>
    5d88:	1e9aed63          	bltu	s5,s1,5f82 <_scanf_float+0x2b4>
    5d8c:	4905                	li	s2,1
    5d8e:	40f6                	lw	ra,92(sp)
    5d90:	4466                	lw	s0,88(sp)
    5d92:	854a                	mv	a0,s2
    5d94:	44d6                	lw	s1,84(sp)
    5d96:	4946                	lw	s2,80(sp)
    5d98:	49b6                	lw	s3,76(sp)
    5d9a:	4a26                	lw	s4,72(sp)
    5d9c:	4a96                	lw	s5,68(sp)
    5d9e:	4b06                	lw	s6,64(sp)
    5da0:	5bf2                	lw	s7,60(sp)
    5da2:	5c62                	lw	s8,56(sp)
    5da4:	5cd2                	lw	s9,52(sp)
    5da6:	5d42                	lw	s10,48(sp)
    5da8:	5db2                	lw	s11,44(sp)
    5daa:	6125                	addi	sp,sp,96
    5dac:	8082                	ret
    5dae:	02e00593          	li	a1,46
    5db2:	14b78f63          	beq	a5,a1,5f10 <_scanf_float+0x242>
    5db6:	03000593          	li	a1,48
    5dba:	fab79de3          	bne	a5,a1,5d74 <_scanf_float+0xa6>
    5dbe:	400c                	lw	a1,0(s0)
    5dc0:	1005f513          	andi	a0,a1,256
    5dc4:	c57d                	beqz	a0,5eb2 <_scanf_float+0x1e4>
    5dc6:	f7f5f593          	andi	a1,a1,-129
    5dca:	c00c                	sw	a1,0(s0)
    5dcc:	0d05                	addi	s10,s10,1
    5dce:	c681                	beqz	a3,5dd6 <_scanf_float+0x108>
    5dd0:	0705                	addi	a4,a4,1
    5dd2:	16fd                	addi	a3,a3,-1
    5dd4:	c418                	sw	a4,8(s0)
    5dd6:	441c                	lw	a5,8(s0)
    5dd8:	17fd                	addi	a5,a5,-1
    5dda:	c41c                	sw	a5,8(s0)
    5ddc:	481c                	lw	a5,16(s0)
    5dde:	0785                	addi	a5,a5,1
    5de0:	c81c                	sw	a5,16(s0)
    5de2:	004ca783          	lw	a5,4(s9)
    5de6:	17fd                	addi	a5,a5,-1
    5de8:	00fca223          	sw	a5,4(s9)
    5dec:	16f05663          	blez	a5,5f58 <_scanf_float+0x28a>
    5df0:	000ca783          	lw	a5,0(s9)
    5df4:	0785                	addi	a5,a5,1
    5df6:	00fca023          	sw	a5,0(s9)
    5dfa:	b789                	j	5d3c <_scanf_float+0x6e>
    5dfc:	04500713          	li	a4,69
    5e00:	12e78263          	beq	a5,a4,5f24 <_scanf_float+0x256>
    5e04:	04600713          	li	a4,70
    5e08:	0ee78b63          	beq	a5,a4,5efe <_scanf_float+0x230>
    5e0c:	04100713          	li	a4,65
    5e10:	f6e792e3          	bne	a5,a4,5d74 <_scanf_float+0xa6>
    5e14:	f71d90e3          	bne	s11,a7,5d74 <_scanf_float+0xa6>
    5e18:	4d89                	li	s11,2
    5e1a:	a065                	j	5ec2 <_scanf_float+0x1f4>
    5e1c:	11c78463          	beq	a5,t3,5f24 <_scanf_float+0x256>
    5e20:	04fe6163          	bltu	t3,a5,5e62 <_scanf_float+0x194>
    5e24:	05400713          	li	a4,84
    5e28:	0ce78f63          	beq	a5,a4,5f06 <_scanf_float+0x238>
    5e2c:	02f76463          	bltu	a4,a5,5e54 <_scanf_float+0x186>
    5e30:	04e00713          	li	a4,78
    5e34:	f4e790e3          	bne	a5,a4,5d74 <_scanf_float+0xa6>
    5e38:	0a0d9163          	bnez	s11,5eda <_scanf_float+0x20c>
    5e3c:	0a0d1163          	bnez	s10,5ede <_scanf_float+0x210>
    5e40:	4018                	lw	a4,0(s0)
    5e42:	70077593          	andi	a1,a4,1792
    5e46:	09059c63          	bne	a1,a6,5ede <_scanf_float+0x210>
    5e4a:	87f77713          	andi	a4,a4,-1921
    5e4e:	c018                	sw	a4,0(s0)
    5e50:	4d85                	li	s11,1
    5e52:	a885                	j	5ec2 <_scanf_float+0x1f4>
    5e54:	05900713          	li	a4,89
    5e58:	04e78963          	beq	a5,a4,5eaa <_scanf_float+0x1dc>
    5e5c:	06100713          	li	a4,97
    5e60:	bf45                	j	5e10 <_scanf_float+0x142>
    5e62:	06e00713          	li	a4,110
    5e66:	fce789e3          	beq	a5,a4,5e38 <_scanf_float+0x16a>
    5e6a:	02f76863          	bltu	a4,a5,5e9a <_scanf_float+0x1cc>
    5e6e:	06600713          	li	a4,102
    5e72:	08e78663          	beq	a5,a4,5efe <_scanf_float+0x230>
    5e76:	06900713          	li	a4,105
    5e7a:	eee79de3          	bne	a5,a4,5d74 <_scanf_float+0xa6>
    5e7e:	06091963          	bnez	s2,5ef0 <_scanf_float+0x222>
    5e82:	ee0d1be3          	bnez	s10,5d78 <_scanf_float+0xaa>
    5e86:	4018                	lw	a4,0(s0)
    5e88:	70077593          	andi	a1,a4,1792
    5e8c:	ef059ae3          	bne	a1,a6,5d80 <_scanf_float+0xb2>
    5e90:	87f77713          	andi	a4,a4,-1921
    5e94:	c018                	sw	a4,0(s0)
    5e96:	4905                	li	s2,1
    5e98:	a02d                	j	5ec2 <_scanf_float+0x1f4>
    5e9a:	07400713          	li	a4,116
    5e9e:	06e78463          	beq	a5,a4,5f06 <_scanf_float+0x238>
    5ea2:	07900713          	li	a4,121
    5ea6:	ece797e3          	bne	a5,a4,5d74 <_scanf_float+0xa6>
    5eaa:	ede915e3          	bne	s2,t5,5d74 <_scanf_float+0xa6>
    5eae:	4921                	li	s2,8
    5eb0:	a809                	j	5ec2 <_scanf_float+0x1f4>
    5eb2:	012d8733          	add	a4,s11,s2
    5eb6:	ea071fe3          	bnez	a4,5d74 <_scanf_float+0xa6>
    5eba:	4018                	lw	a4,0(s0)
    5ebc:	e7f77713          	andi	a4,a4,-385
    5ec0:	c018                	sw	a4,0(s0)
    5ec2:	00f48023          	sb	a5,0(s1)
    5ec6:	0485                	addi	s1,s1,1
    5ec8:	b739                	j	5dd6 <_scanf_float+0x108>
    5eca:	4018                	lw	a4,0(s0)
    5ecc:	08077593          	andi	a1,a4,128
    5ed0:	ea0582e3          	beqz	a1,5d74 <_scanf_float+0xa6>
    5ed4:	f7f77713          	andi	a4,a4,-129
    5ed8:	b7e5                	j	5ec0 <_scanf_float+0x1f2>
    5eda:	066d8d63          	beq	s11,t1,5f54 <_scanf_float+0x286>
    5ede:	01190563          	beq	s2,a7,5ee8 <_scanf_float+0x21a>
    5ee2:	4711                	li	a4,4
    5ee4:	e8e918e3          	bne	s2,a4,5d74 <_scanf_float+0xa6>
    5ee8:	0905                	addi	s2,s2,1
    5eea:	0ff97913          	andi	s2,s2,255
    5eee:	bfd1                	j	5ec2 <_scanf_float+0x1f4>
    5ef0:	ffd90713          	addi	a4,s2,-3
    5ef4:	0fd77713          	andi	a4,a4,253
    5ef8:	e6071ee3          	bnez	a4,5d74 <_scanf_float+0xa6>
    5efc:	b7f5                	j	5ee8 <_scanf_float+0x21a>
    5efe:	e6691be3          	bne	s2,t1,5d74 <_scanf_float+0xa6>
    5f02:	490d                	li	s2,3
    5f04:	bf7d                	j	5ec2 <_scanf_float+0x1f4>
    5f06:	4719                	li	a4,6
    5f08:	e6e916e3          	bne	s2,a4,5d74 <_scanf_float+0xa6>
    5f0c:	491d                	li	s2,7
    5f0e:	bf55                	j	5ec2 <_scanf_float+0x1f4>
    5f10:	4018                	lw	a4,0(s0)
    5f12:	20077593          	andi	a1,a4,512
    5f16:	e4058fe3          	beqz	a1,5d74 <_scanf_float+0xa6>
    5f1a:	d7f77713          	andi	a4,a4,-641
    5f1e:	c018                	sw	a4,0(s0)
    5f20:	8bea                	mv	s7,s10
    5f22:	b745                	j	5ec2 <_scanf_float+0x1f4>
    5f24:	4018                	lw	a4,0(s0)
    5f26:	50077593          	andi	a1,a4,1280
    5f2a:	01d58863          	beq	a1,t4,5f3a <_scanf_float+0x26c>
    5f2e:	40077593          	andi	a1,a4,1024
    5f32:	e40581e3          	beqz	a1,5d74 <_scanf_float+0xa6>
    5f36:	e40d05e3          	beqz	s10,5d80 <_scanf_float+0xb2>
    5f3a:	20077593          	andi	a1,a4,512
    5f3e:	e581                	bnez	a1,5f46 <_scanf_float+0x278>
    5f40:	417d0a33          	sub	s4,s10,s7
    5f44:	8c26                	mv	s8,s1
    5f46:	87f77713          	andi	a4,a4,-1921
    5f4a:	18076713          	ori	a4,a4,384
    5f4e:	c018                	sw	a4,0(s0)
    5f50:	4d01                	li	s10,0
    5f52:	bf85                	j	5ec2 <_scanf_float+0x1f4>
    5f54:	4d8d                	li	s11,3
    5f56:	b7b5                	j	5ec2 <_scanf_float+0x1f4>
    5f58:	18042783          	lw	a5,384(s0)
    5f5c:	85e6                	mv	a1,s9
    5f5e:	854e                	mv	a0,s3
    5f60:	c636                	sw	a3,12(sp)
    5f62:	9782                	jalr	a5
    5f64:	46b2                	lw	a3,12(sp)
    5f66:	04900613          	li	a2,73
    5f6a:	70000813          	li	a6,1792
    5f6e:	4885                	li	a7,1
    5f70:	40000e93          	li	t4,1024
    5f74:	4309                	li	t1,2
    5f76:	06500e13          	li	t3,101
    5f7a:	4f1d                	li	t5,7
    5f7c:	dc0500e3          	beqz	a0,5d3c <_scanf_float+0x6e>
    5f80:	bbd5                	j	5d74 <_scanf_float+0xa6>
    5f82:	14fd                	addi	s1,s1,-1
    5f84:	17c42783          	lw	a5,380(s0)
    5f88:	0004c583          	lbu	a1,0(s1)
    5f8c:	8666                	mv	a2,s9
    5f8e:	854e                	mv	a0,s3
    5f90:	9782                	jalr	a5
    5f92:	481c                	lw	a5,16(s0)
    5f94:	17fd                	addi	a5,a5,-1
    5f96:	c81c                	sw	a5,16(s0)
    5f98:	bbc5                	j	5d88 <_scanf_float+0xba>
    5f9a:	fff90793          	addi	a5,s2,-1
    5f9e:	4719                	li	a4,6
    5fa0:	02f76663          	bltu	a4,a5,5fcc <_scanf_float+0x2fe>
    5fa4:	4789                	li	a5,2
    5fa6:	8da6                	mv	s11,s1
    5fa8:	0927f163          	bgeu	a5,s2,602a <_scanf_float+0x35c>
    5fac:	40990733          	sub	a4,s2,s1
    5fb0:	0ff77713          	andi	a4,a4,255
    5fb4:	468d                	li	a3,3
    5fb6:	00ed87b3          	add	a5,s11,a4
    5fba:	0ff7f793          	andi	a5,a5,255
    5fbe:	02f6ec63          	bltu	a3,a5,5ff6 <_scanf_float+0x328>
    5fc2:	1975                	addi	s2,s2,-3
    5fc4:	0ff97913          	andi	s2,s2,255
    5fc8:	412484b3          	sub	s1,s1,s2
    5fcc:	401c                	lw	a5,0(s0)
    5fce:	1007f713          	andi	a4,a5,256
    5fd2:	c345                	beqz	a4,6072 <_scanf_float+0x3a4>
    5fd4:	4007f793          	andi	a5,a5,1024
    5fd8:	cfa1                	beqz	a5,6030 <_scanf_float+0x362>
    5fda:	da9af9e3          	bgeu	s5,s1,5d8c <_scanf_float+0xbe>
    5fde:	14fd                	addi	s1,s1,-1
    5fe0:	17c42783          	lw	a5,380(s0)
    5fe4:	0004c583          	lbu	a1,0(s1)
    5fe8:	8666                	mv	a2,s9
    5fea:	854e                	mv	a0,s3
    5fec:	9782                	jalr	a5
    5fee:	481c                	lw	a5,16(s0)
    5ff0:	17fd                	addi	a5,a5,-1
    5ff2:	c81c                	sw	a5,16(s0)
    5ff4:	b7dd                	j	5fda <_scanf_float+0x30c>
    5ff6:	1dfd                	addi	s11,s11,-1
    5ff8:	17c42783          	lw	a5,380(s0)
    5ffc:	000dc583          	lbu	a1,0(s11)
    6000:	8666                	mv	a2,s9
    6002:	854e                	mv	a0,s3
    6004:	c63a                	sw	a4,12(sp)
    6006:	9782                	jalr	a5
    6008:	481c                	lw	a5,16(s0)
    600a:	468d                	li	a3,3
    600c:	4732                	lw	a4,12(sp)
    600e:	17fd                	addi	a5,a5,-1
    6010:	c81c                	sw	a5,16(s0)
    6012:	b755                	j	5fb6 <_scanf_float+0x2e8>
    6014:	14fd                	addi	s1,s1,-1
    6016:	17c42783          	lw	a5,380(s0)
    601a:	0004c583          	lbu	a1,0(s1)
    601e:	8666                	mv	a2,s9
    6020:	854e                	mv	a0,s3
    6022:	9782                	jalr	a5
    6024:	481c                	lw	a5,16(s0)
    6026:	17fd                	addi	a5,a5,-1
    6028:	c81c                	sw	a5,16(s0)
    602a:	fe9ae5e3          	bltu	s5,s1,6014 <_scanf_float+0x346>
    602e:	bbb9                	j	5d8c <_scanf_float+0xbe>
    6030:	481c                	lw	a5,16(s0)
    6032:	fff4c583          	lbu	a1,-1(s1)
    6036:	fff48913          	addi	s2,s1,-1
    603a:	17fd                	addi	a5,a5,-1
    603c:	c81c                	sw	a5,16(s0)
    603e:	06500793          	li	a5,101
    6042:	02f58263          	beq	a1,a5,6066 <_scanf_float+0x398>
    6046:	04500793          	li	a5,69
    604a:	00f58e63          	beq	a1,a5,6066 <_scanf_float+0x398>
    604e:	17c42783          	lw	a5,380(s0)
    6052:	8666                	mv	a2,s9
    6054:	854e                	mv	a0,s3
    6056:	9782                	jalr	a5
    6058:	481c                	lw	a5,16(s0)
    605a:	ffe4c583          	lbu	a1,-2(s1)
    605e:	ffe48913          	addi	s2,s1,-2
    6062:	17fd                	addi	a5,a5,-1
    6064:	c81c                	sw	a5,16(s0)
    6066:	17c42783          	lw	a5,380(s0)
    606a:	8666                	mv	a2,s9
    606c:	854e                	mv	a0,s3
    606e:	9782                	jalr	a5
    6070:	84ca                	mv	s1,s2
    6072:	00042903          	lw	s2,0(s0)
    6076:	01097913          	andi	s2,s2,16
    607a:	0c091363          	bnez	s2,6140 <_scanf_float+0x472>
    607e:	00048023          	sb	zero,0(s1)
    6082:	401c                	lw	a5,0(s0)
    6084:	40000713          	li	a4,1024
    6088:	6007f793          	andi	a5,a5,1536
    608c:	02e79e63          	bne	a5,a4,60c8 <_scanf_float+0x3fa>
    6090:	41ab8633          	sub	a2,s7,s10
    6094:	05ab9663          	bne	s7,s10,60e0 <_scanf_float+0x412>
    6098:	85d6                	mv	a1,s5
    609a:	4601                	li	a2,0
    609c:	854e                	mv	a0,s3
    609e:	75b000ef          	jal	ra,6ff8 <_strtod_r>
    60a2:	4018                	lw	a4,0(s0)
    60a4:	8a2a                	mv	s4,a0
    60a6:	8aae                	mv	s5,a1
    60a8:	00277693          	andi	a3,a4,2
    60ac:	000b2783          	lw	a5,0(s6)
    60b0:	c6a9                	beqz	a3,60fa <_scanf_float+0x42c>
    60b2:	00478713          	addi	a4,a5,4
    60b6:	00eb2023          	sw	a4,0(s6)
    60ba:	439c                	lw	a5,0(a5)
    60bc:	c388                	sw	a0,0(a5)
    60be:	c3cc                	sw	a1,4(a5)
    60c0:	445c                	lw	a5,12(s0)
    60c2:	0785                	addi	a5,a5,1
    60c4:	c45c                	sw	a5,12(s0)
    60c6:	b1e1                	j	5d8e <_scanf_float+0xc0>
    60c8:	fc0a08e3          	beqz	s4,6098 <_scanf_float+0x3ca>
    60cc:	4601                	li	a2,0
    60ce:	46a9                	li	a3,10
    60d0:	001c0593          	addi	a1,s8,1
    60d4:	854e                	mv	a0,s3
    60d6:	07c010ef          	jal	ra,7152 <_strtol_r>
    60da:	41450633          	sub	a2,a0,s4
    60de:	84e2                	mv	s1,s8
    60e0:	16f40793          	addi	a5,s0,367
    60e4:	00f4e463          	bltu	s1,a5,60ec <_scanf_float+0x41e>
    60e8:	16e40493          	addi	s1,s0,366
    60ec:	00007597          	auipc	a1,0x7
    60f0:	21058593          	addi	a1,a1,528 # d2fc <__clz_tab+0x158>
    60f4:	8526                	mv	a0,s1
    60f6:	2a55                	jal	62aa <siprintf>
    60f8:	b745                	j	6098 <_scanf_float+0x3ca>
    60fa:	00478693          	addi	a3,a5,4
    60fe:	00db2023          	sw	a3,0(s6)
    6102:	8b11                	andi	a4,a4,4
    6104:	4384                	lw	s1,0(a5)
    6106:	cf19                	beqz	a4,6124 <_scanf_float+0x456>
    6108:	85aa                	mv	a1,a0
    610a:	8656                	mv	a2,s5
    610c:	0808                	addi	a0,sp,16
    610e:	32d050ef          	jal	ra,bc3a <__extenddftf2>
    6112:	46d2                	lw	a3,20(sp)
    6114:	4762                	lw	a4,24(sp)
    6116:	47f2                	lw	a5,28(sp)
    6118:	4642                	lw	a2,16(sp)
    611a:	c0d4                	sw	a3,4(s1)
    611c:	c498                	sw	a4,8(s1)
    611e:	c090                	sw	a2,0(s1)
    6120:	c4dc                	sw	a5,12(s1)
    6122:	bf79                	j	60c0 <_scanf_float+0x3f2>
    6124:	862a                	mv	a2,a0
    6126:	86ae                	mv	a3,a1
    6128:	13d050ef          	jal	ra,ba64 <__unorddf2>
    612c:	c509                	beqz	a0,6136 <_scanf_float+0x468>
    612e:	4501                	li	a0,0
    6130:	22bd                	jal	629e <nanf>
    6132:	c088                	sw	a0,0(s1)
    6134:	b771                	j	60c0 <_scanf_float+0x3f2>
    6136:	8552                	mv	a0,s4
    6138:	85d6                	mv	a1,s5
    613a:	4a1050ef          	jal	ra,bdda <__truncdfsf2>
    613e:	bfd5                	j	6132 <_scanf_float+0x464>
    6140:	4901                	li	s2,0
    6142:	b1b1                	j	5d8e <_scanf_float+0xc0>

00006144 <iprintf>:
    6144:	7139                	addi	sp,sp,-64
    6146:	da3e                	sw	a5,52(sp)
    6148:	d22e                	sw	a1,36(sp)
    614a:	d432                	sw	a2,40(sp)
    614c:	d636                	sw	a3,44(sp)
    614e:	d83a                	sw	a4,48(sp)
    6150:	dc42                	sw	a6,56(sp)
    6152:	de46                	sw	a7,60(sp)
    6154:	80818793          	addi	a5,gp,-2040 # 200010f0 <_impure_ptr>
    6158:	cc22                	sw	s0,24(sp)
    615a:	4380                	lw	s0,0(a5)
    615c:	ca26                	sw	s1,20(sp)
    615e:	ce06                	sw	ra,28(sp)
    6160:	84aa                	mv	s1,a0
    6162:	c411                	beqz	s0,616e <iprintf+0x2a>
    6164:	4c1c                	lw	a5,24(s0)
    6166:	e781                	bnez	a5,616e <iprintf+0x2a>
    6168:	8522                	mv	a0,s0
    616a:	1b0020ef          	jal	ra,831a <__sinit>
    616e:	440c                	lw	a1,8(s0)
    6170:	1054                	addi	a3,sp,36
    6172:	8626                	mv	a2,s1
    6174:	8522                	mv	a0,s0
    6176:	c636                	sw	a3,12(sp)
    6178:	183030ef          	jal	ra,9afa <_vfiprintf_r>
    617c:	40f2                	lw	ra,28(sp)
    617e:	4462                	lw	s0,24(sp)
    6180:	44d2                	lw	s1,20(sp)
    6182:	6121                	addi	sp,sp,64
    6184:	8082                	ret

00006186 <_puts_r>:
    6186:	1101                	addi	sp,sp,-32
    6188:	ca26                	sw	s1,20(sp)
    618a:	c84a                	sw	s2,16(sp)
    618c:	ce06                	sw	ra,28(sp)
    618e:	cc22                	sw	s0,24(sp)
    6190:	c64e                	sw	s3,12(sp)
    6192:	c452                	sw	s4,8(sp)
    6194:	84aa                	mv	s1,a0
    6196:	892e                	mv	s2,a1
    6198:	c509                	beqz	a0,61a2 <_puts_r+0x1c>
    619a:	4d1c                	lw	a5,24(a0)
    619c:	e399                	bnez	a5,61a2 <_puts_r+0x1c>
    619e:	17c020ef          	jal	ra,831a <__sinit>
    61a2:	4c9c                	lw	a5,24(s1)
    61a4:	4480                	lw	s0,8(s1)
    61a6:	e781                	bnez	a5,61ae <_puts_r+0x28>
    61a8:	8526                	mv	a0,s1
    61aa:	170020ef          	jal	ra,831a <__sinit>
    61ae:	00007797          	auipc	a5,0x7
    61b2:	37a78793          	addi	a5,a5,890 # d528 <__sf_fake_stdin>
    61b6:	02f41d63          	bne	s0,a5,61f0 <_puts_r+0x6a>
    61ba:	40c0                	lw	s0,4(s1)
    61bc:	00c45783          	lhu	a5,12(s0)
    61c0:	8ba1                	andi	a5,a5,8
    61c2:	c7b9                	beqz	a5,6210 <_puts_r+0x8a>
    61c4:	481c                	lw	a5,16(s0)
    61c6:	c7a9                	beqz	a5,6210 <_puts_r+0x8a>
    61c8:	59fd                	li	s3,-1
    61ca:	4a29                	li	s4,10
    61cc:	441c                	lw	a5,8(s0)
    61ce:	00094583          	lbu	a1,0(s2)
    61d2:	17fd                	addi	a5,a5,-1
    61d4:	eda1                	bnez	a1,622c <_puts_r+0xa6>
    61d6:	c41c                	sw	a5,8(s0)
    61d8:	0807d163          	bgez	a5,625a <_puts_r+0xd4>
    61dc:	8622                	mv	a2,s0
    61de:	45a9                	li	a1,10
    61e0:	8526                	mv	a0,s1
    61e2:	787000ef          	jal	ra,7168 <__swbuf_r>
    61e6:	57fd                	li	a5,-1
    61e8:	02f50963          	beq	a0,a5,621a <_puts_r+0x94>
    61ec:	4529                	li	a0,10
    61ee:	a03d                	j	621c <_puts_r+0x96>
    61f0:	00007797          	auipc	a5,0x7
    61f4:	35878793          	addi	a5,a5,856 # d548 <__sf_fake_stdout>
    61f8:	00f41463          	bne	s0,a5,6200 <_puts_r+0x7a>
    61fc:	4480                	lw	s0,8(s1)
    61fe:	bf7d                	j	61bc <_puts_r+0x36>
    6200:	00007797          	auipc	a5,0x7
    6204:	30878793          	addi	a5,a5,776 # d508 <__sf_fake_stderr>
    6208:	faf41ae3          	bne	s0,a5,61bc <_puts_r+0x36>
    620c:	44c0                	lw	s0,12(s1)
    620e:	b77d                	j	61bc <_puts_r+0x36>
    6210:	85a2                	mv	a1,s0
    6212:	8526                	mv	a0,s1
    6214:	03a010ef          	jal	ra,724e <__swsetup_r>
    6218:	d945                	beqz	a0,61c8 <_puts_r+0x42>
    621a:	557d                	li	a0,-1
    621c:	40f2                	lw	ra,28(sp)
    621e:	4462                	lw	s0,24(sp)
    6220:	44d2                	lw	s1,20(sp)
    6222:	4942                	lw	s2,16(sp)
    6224:	49b2                	lw	s3,12(sp)
    6226:	4a22                	lw	s4,8(sp)
    6228:	6105                	addi	sp,sp,32
    622a:	8082                	ret
    622c:	c41c                	sw	a5,8(s0)
    622e:	0905                	addi	s2,s2,1
    6230:	0007d763          	bgez	a5,623e <_puts_r+0xb8>
    6234:	4c18                	lw	a4,24(s0)
    6236:	00e7cb63          	blt	a5,a4,624c <_puts_r+0xc6>
    623a:	01458963          	beq	a1,s4,624c <_puts_r+0xc6>
    623e:	401c                	lw	a5,0(s0)
    6240:	00178713          	addi	a4,a5,1
    6244:	c018                	sw	a4,0(s0)
    6246:	00b78023          	sb	a1,0(a5)
    624a:	b749                	j	61cc <_puts_r+0x46>
    624c:	8622                	mv	a2,s0
    624e:	8526                	mv	a0,s1
    6250:	719000ef          	jal	ra,7168 <__swbuf_r>
    6254:	f7351ce3          	bne	a0,s3,61cc <_puts_r+0x46>
    6258:	b7c9                	j	621a <_puts_r+0x94>
    625a:	401c                	lw	a5,0(s0)
    625c:	00178713          	addi	a4,a5,1
    6260:	c018                	sw	a4,0(s0)
    6262:	4729                	li	a4,10
    6264:	00e78023          	sb	a4,0(a5)
    6268:	b751                	j	61ec <_puts_r+0x66>

0000626a <puts>:
    626a:	80818793          	addi	a5,gp,-2040 # 200010f0 <_impure_ptr>
    626e:	85aa                	mv	a1,a0
    6270:	4388                	lw	a0,0(a5)
    6272:	bf11                	j	6186 <_puts_r>

00006274 <_sbrk_r>:
    6274:	1141                	addi	sp,sp,-16
    6276:	c422                	sw	s0,8(sp)
    6278:	842a                	mv	s0,a0
    627a:	852e                	mv	a0,a1
    627c:	6601a423          	sw	zero,1640(gp) # 20001f50 <errno>
    6280:	c606                	sw	ra,12(sp)
    6282:	793050ef          	jal	ra,c214 <_sbrk>
    6286:	57fd                	li	a5,-1
    6288:	00f51763          	bne	a0,a5,6296 <_sbrk_r+0x22>
    628c:	66818793          	addi	a5,gp,1640 # 20001f50 <errno>
    6290:	439c                	lw	a5,0(a5)
    6292:	c391                	beqz	a5,6296 <_sbrk_r+0x22>
    6294:	c01c                	sw	a5,0(s0)
    6296:	40b2                	lw	ra,12(sp)
    6298:	4422                	lw	s0,8(sp)
    629a:	0141                	addi	sp,sp,16
    629c:	8082                	ret

0000629e <nanf>:
    629e:	00007797          	auipc	a5,0x7
    62a2:	06678793          	addi	a5,a5,102 # d304 <__clz_tab+0x160>
    62a6:	4388                	lw	a0,0(a5)
    62a8:	8082                	ret

000062aa <siprintf>:
    62aa:	7135                	addi	sp,sp,-160
    62ac:	cb3e                	sw	a5,148(sp)
    62ae:	800007b7          	lui	a5,0x80000
    62b2:	fff7c793          	not	a5,a5
    62b6:	ce3e                	sw	a5,28(sp)
    62b8:	c83e                	sw	a5,16(sp)
    62ba:	77c1                	lui	a5,0xffff0
    62bc:	20878793          	addi	a5,a5,520 # ffff0208 <_eusrstack+0xdffe8208>
    62c0:	c532                	sw	a2,136(sp)
    62c2:	c736                	sw	a3,140(sp)
    62c4:	c93a                	sw	a4,144(sp)
    62c6:	cd42                	sw	a6,152(sp)
    62c8:	cf46                	sw	a7,156(sp)
    62ca:	ca3e                	sw	a5,20(sp)
    62cc:	80818793          	addi	a5,gp,-2040 # 200010f0 <_impure_ptr>
    62d0:	c42a                	sw	a0,8(sp)
    62d2:	cc2a                	sw	a0,24(sp)
    62d4:	4388                	lw	a0,0(a5)
    62d6:	0134                	addi	a3,sp,136
    62d8:	862e                	mv	a2,a1
    62da:	002c                	addi	a1,sp,8
    62dc:	de86                	sw	ra,124(sp)
    62de:	c236                	sw	a3,4(sp)
    62e0:	52e030ef          	jal	ra,980e <_svfiprintf_r>
    62e4:	47a2                	lw	a5,8(sp)
    62e6:	00078023          	sb	zero,0(a5)
    62ea:	50f6                	lw	ra,124(sp)
    62ec:	610d                	addi	sp,sp,160
    62ee:	8082                	ret

000062f0 <strlen>:
    62f0:	87aa                	mv	a5,a0
    62f2:	0785                	addi	a5,a5,1
    62f4:	fff7c703          	lbu	a4,-1(a5)
    62f8:	ff6d                	bnez	a4,62f2 <strlen+0x2>
    62fa:	40a78533          	sub	a0,a5,a0
    62fe:	157d                	addi	a0,a0,-1
    6300:	8082                	ret

00006302 <strncmp>:
    6302:	c605                	beqz	a2,632a <strncmp+0x28>
    6304:	167d                	addi	a2,a2,-1
    6306:	4701                	li	a4,0
    6308:	00e507b3          	add	a5,a0,a4
    630c:	00e586b3          	add	a3,a1,a4
    6310:	0007c783          	lbu	a5,0(a5)
    6314:	0006c683          	lbu	a3,0(a3)
    6318:	00d79663          	bne	a5,a3,6324 <strncmp+0x22>
    631c:	00c70463          	beq	a4,a2,6324 <strncmp+0x22>
    6320:	0705                	addi	a4,a4,1
    6322:	f3fd                	bnez	a5,6308 <strncmp+0x6>
    6324:	40d78533          	sub	a0,a5,a3
    6328:	8082                	ret
    632a:	4501                	li	a0,0
    632c:	8082                	ret

0000632e <sulp>:
    632e:	1101                	addi	sp,sp,-32
    6330:	cc22                	sw	s0,24(sp)
    6332:	872a                	mv	a4,a0
    6334:	842e                	mv	s0,a1
    6336:	853a                	mv	a0,a4
    6338:	85a2                	mv	a1,s0
    633a:	c632                	sw	a2,12(sp)
    633c:	ce06                	sw	ra,28(sp)
    633e:	0a2030ef          	jal	ra,93e0 <__ulp>
    6342:	4632                	lw	a2,12(sp)
    6344:	882a                	mv	a6,a0
    6346:	88ae                	mv	a7,a1
    6348:	c605                	beqz	a2,6370 <sulp+0x42>
    634a:	8051                	srli	s0,s0,0x14
    634c:	7ff47413          	andi	s0,s0,2047
    6350:	06b00793          	li	a5,107
    6354:	8f81                	sub	a5,a5,s0
    6356:	00f05d63          	blez	a5,6370 <sulp+0x42>
    635a:	07d2                	slli	a5,a5,0x14
    635c:	3ff00737          	lui	a4,0x3ff00
    6360:	4801                	li	a6,0
    6362:	973e                	add	a4,a4,a5
    6364:	8642                	mv	a2,a6
    6366:	86ba                	mv	a3,a4
    6368:	307040ef          	jal	ra,ae6e <__muldf3>
    636c:	882a                	mv	a6,a0
    636e:	88ae                	mv	a7,a1
    6370:	40f2                	lw	ra,28(sp)
    6372:	4462                	lw	s0,24(sp)
    6374:	8542                	mv	a0,a6
    6376:	85c6                	mv	a1,a7
    6378:	6105                	addi	sp,sp,32
    637a:	8082                	ret

0000637c <_strtod_l>:
    637c:	7135                	addi	sp,sp,-160
    637e:	c94a                	sw	s2,144(sp)
    6380:	892a                	mv	s2,a0
    6382:	8536                	mv	a0,a3
    6384:	d432                	sw	a2,40(sp)
    6386:	c636                	sw	a3,12(sp)
    6388:	cf06                	sw	ra,156(sp)
    638a:	cd22                	sw	s0,152(sp)
    638c:	cb26                	sw	s1,148(sp)
    638e:	c74e                	sw	s3,140(sp)
    6390:	d8ea                	sw	s10,112(sp)
    6392:	d6ee                	sw	s11,108(sp)
    6394:	8d2e                	mv	s10,a1
    6396:	c552                	sw	s4,136(sp)
    6398:	c356                	sw	s5,132(sp)
    639a:	c15a                	sw	s6,128(sp)
    639c:	dede                	sw	s7,124(sp)
    639e:	dce2                	sw	s8,120(sp)
    63a0:	dae6                	sw	s9,116(sp)
    63a2:	c882                	sw	zero,80(sp)
    63a4:	037020ef          	jal	ra,8bda <__localeconv_l>
    63a8:	8daa                	mv	s11,a0
    63aa:	4108                	lw	a0,0(a0)
    63ac:	4481                	li	s1,0
    63ae:	4401                	li	s0,0
    63b0:	3781                	jal	62f0 <strlen>
    63b2:	46b2                	lw	a3,12(sp)
    63b4:	89aa                	mv	s3,a0
    63b6:	c6ea                	sw	s10,76(sp)
    63b8:	4635                	li	a2,13
    63ba:	02b00593          	li	a1,43
    63be:	02d00513          	li	a0,45
    63c2:	02000813          	li	a6,32
    63c6:	48a5                	li	a7,9
    63c8:	47b6                	lw	a5,76(sp)
    63ca:	0007c703          	lbu	a4,0(a5)
    63ce:	08e66b63          	bltu	a2,a4,6464 <_strtod_l+0xe8>
    63d2:	09177f63          	bgeu	a4,a7,6470 <_strtod_l+0xf4>
    63d6:	c75d                	beqz	a4,6484 <_strtod_l+0x108>
    63d8:	c802                	sw	zero,16(sp)
    63da:	4a36                	lw	s4,76(sp)
    63dc:	03000793          	li	a5,48
    63e0:	4a81                	li	s5,0
    63e2:	000a4703          	lbu	a4,0(s4)
    63e6:	12f71d63          	bne	a4,a5,6520 <_strtod_l+0x1a4>
    63ea:	001a4783          	lbu	a5,1(s4)
    63ee:	05800713          	li	a4,88
    63f2:	00e78863          	beq	a5,a4,6402 <_strtod_l+0x86>
    63f6:	07800613          	li	a2,120
    63fa:	03000713          	li	a4,48
    63fe:	10c79763          	bne	a5,a2,650c <_strtod_l+0x190>
    6402:	47c2                	lw	a5,16(sp)
    6404:	8836                	mv	a6,a3
    6406:	0898                	addi	a4,sp,80
    6408:	08d4                	addi	a3,sp,84
    640a:	00007617          	auipc	a2,0x7
    640e:	f5e60613          	addi	a2,a2,-162 # d368 <fpi.3395>
    6412:	00ec                	addi	a1,sp,76
    6414:	854a                	mv	a0,s2
    6416:	13a020ef          	jal	ra,8550 <__gethex>
    641a:	00757993          	andi	s3,a0,7
    641e:	8aaa                	mv	s5,a0
    6420:	00098863          	beqz	s3,6430 <_strtod_l+0xb4>
    6424:	4799                	li	a5,6
    6426:	06f99863          	bne	s3,a5,6496 <_strtod_l+0x11a>
    642a:	0a05                	addi	s4,s4,1
    642c:	c6d2                	sw	s4,76(sp)
    642e:	c802                	sw	zero,16(sp)
    6430:	57a2                	lw	a5,40(sp)
    6432:	c781                	beqz	a5,643a <_strtod_l+0xbe>
    6434:	47b6                	lw	a5,76(sp)
    6436:	5722                	lw	a4,40(sp)
    6438:	c31c                	sw	a5,0(a4)
    643a:	47c2                	lw	a5,16(sp)
    643c:	cba1                	beqz	a5,648c <_strtod_l+0x110>
    643e:	800005b7          	lui	a1,0x80000
    6442:	8da1                	xor	a1,a1,s0
    6444:	40fa                	lw	ra,156(sp)
    6446:	446a                	lw	s0,152(sp)
    6448:	8526                	mv	a0,s1
    644a:	494a                	lw	s2,144(sp)
    644c:	44da                	lw	s1,148(sp)
    644e:	49ba                	lw	s3,140(sp)
    6450:	4a2a                	lw	s4,136(sp)
    6452:	4a9a                	lw	s5,132(sp)
    6454:	4b0a                	lw	s6,128(sp)
    6456:	5bf6                	lw	s7,124(sp)
    6458:	5c66                	lw	s8,120(sp)
    645a:	5cd6                	lw	s9,116(sp)
    645c:	5d46                	lw	s10,112(sp)
    645e:	5db6                	lw	s11,108(sp)
    6460:	610d                	addi	sp,sp,160
    6462:	8082                	ret
    6464:	00b70963          	beq	a4,a1,6476 <_strtod_l+0xfa>
    6468:	02a70463          	beq	a4,a0,6490 <_strtod_l+0x114>
    646c:	f70716e3          	bne	a4,a6,63d8 <_strtod_l+0x5c>
    6470:	0785                	addi	a5,a5,1
    6472:	c6be                	sw	a5,76(sp)
    6474:	bf91                	j	63c8 <_strtod_l+0x4c>
    6476:	c802                	sw	zero,16(sp)
    6478:	00178713          	addi	a4,a5,1
    647c:	c6ba                	sw	a4,76(sp)
    647e:	0017c783          	lbu	a5,1(a5)
    6482:	ffa1                	bnez	a5,63da <_strtod_l+0x5e>
    6484:	57a2                	lw	a5,40(sp)
    6486:	c6ea                	sw	s10,76(sp)
    6488:	c802                	sw	zero,16(sp)
    648a:	f7cd                	bnez	a5,6434 <_strtod_l+0xb8>
    648c:	85a2                	mv	a1,s0
    648e:	bf5d                	j	6444 <_strtod_l+0xc8>
    6490:	4705                	li	a4,1
    6492:	c83a                	sw	a4,16(sp)
    6494:	b7d5                	j	6478 <_strtod_l+0xfc>
    6496:	4646                	lw	a2,80(sp)
    6498:	ca11                	beqz	a2,64ac <_strtod_l+0x130>
    649a:	03500593          	li	a1,53
    649e:	08a8                	addi	a0,sp,88
    64a0:	182030ef          	jal	ra,9622 <__copybits>
    64a4:	45c6                	lw	a1,80(sp)
    64a6:	854a                	mv	a0,s2
    64a8:	0f7020ef          	jal	ra,8d9e <_Bfree>
    64ac:	19fd                	addi	s3,s3,-1
    64ae:	4791                	li	a5,4
    64b0:	0137ee63          	bltu	a5,s3,64cc <_strtod_l+0x150>
    64b4:	00007717          	auipc	a4,0x7
    64b8:	e5470713          	addi	a4,a4,-428 # d308 <__clz_tab+0x164>
    64bc:	098a                	slli	s3,s3,0x2
    64be:	99ba                	add	s3,s3,a4
    64c0:	0009a783          	lw	a5,0(s3)
    64c4:	97ba                	add	a5,a5,a4
    64c6:	8782                	jr	a5
    64c8:	44e6                	lw	s1,88(sp)
    64ca:	4476                	lw	s0,92(sp)
    64cc:	008afa93          	andi	s5,s5,8
    64d0:	f60a80e3          	beqz	s5,6430 <_strtod_l+0xb4>
    64d4:	800007b7          	lui	a5,0x80000
    64d8:	8c5d                	or	s0,s0,a5
    64da:	bf99                	j	6430 <_strtod_l+0xb4>
    64dc:	45f6                	lw	a1,92(sp)
    64de:	fff00437          	lui	s0,0xfff00
    64e2:	147d                	addi	s0,s0,-1
    64e4:	0085f7b3          	and	a5,a1,s0
    64e8:	4456                	lw	s0,84(sp)
    64ea:	44e6                	lw	s1,88(sp)
    64ec:	43340413          	addi	s0,s0,1075 # fff00433 <_eusrstack+0xdfef8433>
    64f0:	01441593          	slli	a1,s0,0x14
    64f4:	00b7e433          	or	s0,a5,a1
    64f8:	bfd1                	j	64cc <_strtod_l+0x150>
    64fa:	7ff00437          	lui	s0,0x7ff00
    64fe:	b7f9                	j	64cc <_strtod_l+0x150>
    6500:	800005b7          	lui	a1,0x80000
    6504:	fff5c413          	not	s0,a1
    6508:	54fd                	li	s1,-1
    650a:	b7c9                	j	64cc <_strtod_l+0x150>
    650c:	47b6                	lw	a5,76(sp)
    650e:	00178693          	addi	a3,a5,1 # 80000001 <_eusrstack+0x5fff8001>
    6512:	c6b6                	sw	a3,76(sp)
    6514:	0017c783          	lbu	a5,1(a5)
    6518:	fee78ae3          	beq	a5,a4,650c <_strtod_l+0x190>
    651c:	db91                	beqz	a5,6430 <_strtod_l+0xb4>
    651e:	4a85                	li	s5,1
    6520:	4cb6                	lw	s9,76(sp)
    6522:	4a01                	li	s4,0
    6524:	4b81                	li	s7,0
    6526:	4c01                	li	s8,0
    6528:	46a5                	li	a3,9
    652a:	45a1                	li	a1,8
    652c:	47a9                	li	a5,10
    652e:	4536                	lw	a0,76(sp)
    6530:	00054b03          	lbu	s6,0(a0)
    6534:	fd0b0713          	addi	a4,s6,-48
    6538:	0ff77613          	andi	a2,a4,255
    653c:	04c6fd63          	bgeu	a3,a2,6596 <_strtod_l+0x21a>
    6540:	000da583          	lw	a1,0(s11)
    6544:	864e                	mv	a2,s3
    6546:	dbdff0ef          	jal	ra,6302 <strncmp>
    654a:	c13d                	beqz	a0,65b0 <_strtod_l+0x234>
    654c:	87da                	mv	a5,s6
    654e:	8de2                	mv	s11,s8
    6550:	4681                	li	a3,0
    6552:	4b01                	li	s6,0
    6554:	4501                	li	a0,0
    6556:	06500713          	li	a4,101
    655a:	00e78763          	beq	a5,a4,6568 <_strtod_l+0x1ec>
    655e:	04500713          	li	a4,69
    6562:	4981                	li	s3,0
    6564:	16e79963          	bne	a5,a4,66d6 <_strtod_l+0x35a>
    6568:	000d9663          	bnez	s11,6574 <_strtod_l+0x1f8>
    656c:	0156e7b3          	or	a5,a3,s5
    6570:	db91                	beqz	a5,6484 <_strtod_l+0x108>
    6572:	4d81                	li	s11,0
    6574:	4d36                	lw	s10,76(sp)
    6576:	02b00713          	li	a4,43
    657a:	001d0793          	addi	a5,s10,1
    657e:	c6be                	sw	a5,76(sp)
    6580:	001d4783          	lbu	a5,1(s10)
    6584:	0ee78263          	beq	a5,a4,6668 <_strtod_l+0x2ec>
    6588:	02d00713          	li	a4,45
    658c:	4801                	li	a6,0
    658e:	0ee79363          	bne	a5,a4,6674 <_strtod_l+0x2f8>
    6592:	4805                	li	a6,1
    6594:	a8d9                	j	666a <_strtod_l+0x2ee>
    6596:	0185c963          	blt	a1,s8,65a8 <_strtod_l+0x22c>
    659a:	02fb8bb3          	mul	s7,s7,a5
    659e:	9bba                	add	s7,s7,a4
    65a0:	0505                	addi	a0,a0,1
    65a2:	0c05                	addi	s8,s8,1
    65a4:	c6aa                	sw	a0,76(sp)
    65a6:	b761                	j	652e <_strtod_l+0x1b2>
    65a8:	02fa0a33          	mul	s4,s4,a5
    65ac:	9a3a                	add	s4,s4,a4
    65ae:	bfcd                	j	65a0 <_strtod_l+0x224>
    65b0:	4536                	lw	a0,76(sp)
    65b2:	4681                	li	a3,0
    65b4:	954e                	add	a0,a0,s3
    65b6:	c6aa                	sw	a0,76(sp)
    65b8:	00054783          	lbu	a5,0(a0)
    65bc:	060c0d63          	beqz	s8,6636 <_strtod_l+0x2ba>
    65c0:	4b01                	li	s6,0
    65c2:	8de2                	mv	s11,s8
    65c4:	fd078713          	addi	a4,a5,-48
    65c8:	4625                	li	a2,9
    65ca:	02e67663          	bgeu	a2,a4,65f6 <_strtod_l+0x27a>
    65ce:	4505                	li	a0,1
    65d0:	b759                	j	6556 <_strtod_l+0x1da>
    65d2:	47b6                	lw	a5,76(sp)
    65d4:	0685                	addi	a3,a3,1
    65d6:	00178613          	addi	a2,a5,1
    65da:	c6b2                	sw	a2,76(sp)
    65dc:	0017c783          	lbu	a5,1(a5)
    65e0:	fee789e3          	beq	a5,a4,65d2 <_strtod_l+0x256>
    65e4:	fcf78713          	addi	a4,a5,-49
    65e8:	4621                	li	a2,8
    65ea:	1ee66ae3          	bltu	a2,a4,6fde <_strtod_l+0xc62>
    65ee:	4cb6                	lw	s9,76(sp)
    65f0:	8b36                	mv	s6,a3
    65f2:	4d81                	li	s11,0
    65f4:	4681                	li	a3,0
    65f6:	fd078793          	addi	a5,a5,-48
    65fa:	00168713          	addi	a4,a3,1
    65fe:	c785                	beqz	a5,6626 <_strtod_l+0x2aa>
    6600:	9b3a                	add	s6,s6,a4
    6602:	01b68533          	add	a0,a3,s11
    6606:	876e                	mv	a4,s11
    6608:	4821                	li	a6,8
    660a:	48c1                	li	a7,16
    660c:	4629                	li	a2,10
    660e:	02a71763          	bne	a4,a0,663c <_strtod_l+0x2c0>
    6612:	0d85                	addi	s11,s11,1
    6614:	9db6                	add	s11,s11,a3
    6616:	46a1                	li	a3,8
    6618:	02e6cf63          	blt	a3,a4,6656 <_strtod_l+0x2da>
    661c:	4729                	li	a4,10
    661e:	02eb8bb3          	mul	s7,s7,a4
    6622:	4701                	li	a4,0
    6624:	9bbe                	add	s7,s7,a5
    6626:	47b6                	lw	a5,76(sp)
    6628:	00178693          	addi	a3,a5,1
    662c:	c6b6                	sw	a3,76(sp)
    662e:	0017c783          	lbu	a5,1(a5)
    6632:	86ba                	mv	a3,a4
    6634:	bf41                	j	65c4 <_strtod_l+0x248>
    6636:	03000713          	li	a4,48
    663a:	b75d                	j	65e0 <_strtod_l+0x264>
    663c:	00170593          	addi	a1,a4,1
    6640:	00e84663          	blt	a6,a4,664c <_strtod_l+0x2d0>
    6644:	02cb8bb3          	mul	s7,s7,a2
    6648:	872e                	mv	a4,a1
    664a:	b7d1                	j	660e <_strtod_l+0x292>
    664c:	feb8cee3          	blt	a7,a1,6648 <_strtod_l+0x2cc>
    6650:	02ca0a33          	mul	s4,s4,a2
    6654:	bfd5                	j	6648 <_strtod_l+0x2cc>
    6656:	46c1                	li	a3,16
    6658:	4701                	li	a4,0
    665a:	fdb6c6e3          	blt	a3,s11,6626 <_strtod_l+0x2aa>
    665e:	46a9                	li	a3,10
    6660:	02da0a33          	mul	s4,s4,a3
    6664:	9a3e                	add	s4,s4,a5
    6666:	b7c1                	j	6626 <_strtod_l+0x2aa>
    6668:	4801                	li	a6,0
    666a:	002d0793          	addi	a5,s10,2
    666e:	c6be                	sw	a5,76(sp)
    6670:	002d4783          	lbu	a5,2(s10)
    6674:	fd078713          	addi	a4,a5,-48
    6678:	4625                	li	a2,9
    667a:	0ce66763          	bltu	a2,a4,6748 <_strtod_l+0x3cc>
    667e:	03000713          	li	a4,48
    6682:	0ae78663          	beq	a5,a4,672e <_strtod_l+0x3b2>
    6686:	fcf78713          	addi	a4,a5,-49
    668a:	4621                	li	a2,8
    668c:	4981                	li	s3,0
    668e:	04e66463          	bltu	a2,a4,66d6 <_strtod_l+0x35a>
    6692:	48b6                	lw	a7,76(sp)
    6694:	fd078713          	addi	a4,a5,-48
    6698:	4325                	li	t1,9
    669a:	4e29                	li	t3,10
    669c:	47b6                	lw	a5,76(sp)
    669e:	00178613          	addi	a2,a5,1
    66a2:	c6b2                	sw	a2,76(sp)
    66a4:	0017c783          	lbu	a5,1(a5)
    66a8:	fd078593          	addi	a1,a5,-48
    66ac:	0ff5f593          	andi	a1,a1,255
    66b0:	08b37663          	bgeu	t1,a1,673c <_strtod_l+0x3c0>
    66b4:	6995                	lui	s3,0x5
    66b6:	41160633          	sub	a2,a2,a7
    66ba:	e1f98993          	addi	s3,s3,-481 # 4e1f <__udivdi3+0x187>
    66be:	48a1                	li	a7,8
    66c0:	85ce                	mv	a1,s3
    66c2:	00c8c663          	blt	a7,a2,66ce <_strtod_l+0x352>
    66c6:	89ba                	mv	s3,a4
    66c8:	00e5d363          	bge	a1,a4,66ce <_strtod_l+0x352>
    66cc:	89ae                	mv	s3,a1
    66ce:	00080463          	beqz	a6,66d6 <_strtod_l+0x35a>
    66d2:	413009b3          	neg	s3,s3
    66d6:	0c0d9863          	bnez	s11,67a6 <_strtod_l+0x42a>
    66da:	00dae6b3          	or	a3,s5,a3
    66de:	d40699e3          	bnez	a3,6430 <_strtod_l+0xb4>
    66e2:	da0511e3          	bnez	a0,6484 <_strtod_l+0x108>
    66e6:	04e00713          	li	a4,78
    66ea:	06e78a63          	beq	a5,a4,675e <_strtod_l+0x3e2>
    66ee:	06f74063          	blt	a4,a5,674e <_strtod_l+0x3d2>
    66f2:	04900713          	li	a4,73
    66f6:	d8e797e3          	bne	a5,a4,6484 <_strtod_l+0x108>
    66fa:	00007597          	auipc	a1,0x7
    66fe:	c5e58593          	addi	a1,a1,-930 # d358 <__clz_tab+0x1b4>
    6702:	00e8                	addi	a0,sp,76
    6704:	346020ef          	jal	ra,8a4a <__match>
    6708:	d6050ee3          	beqz	a0,6484 <_strtod_l+0x108>
    670c:	47b6                	lw	a5,76(sp)
    670e:	00007597          	auipc	a1,0x7
    6712:	c4e58593          	addi	a1,a1,-946 # d35c <__clz_tab+0x1b8>
    6716:	00e8                	addi	a0,sp,76
    6718:	17fd                	addi	a5,a5,-1
    671a:	c6be                	sw	a5,76(sp)
    671c:	32e020ef          	jal	ra,8a4a <__match>
    6720:	e501                	bnez	a0,6728 <_strtod_l+0x3ac>
    6722:	47b6                	lw	a5,76(sp)
    6724:	0785                	addi	a5,a5,1
    6726:	c6be                	sw	a5,76(sp)
    6728:	7ff00437          	lui	s0,0x7ff00
    672c:	b311                	j	6430 <_strtod_l+0xb4>
    672e:	47b6                	lw	a5,76(sp)
    6730:	00178613          	addi	a2,a5,1
    6734:	c6b2                	sw	a2,76(sp)
    6736:	0017c783          	lbu	a5,1(a5)
    673a:	b7a1                	j	6682 <_strtod_l+0x306>
    673c:	03c70733          	mul	a4,a4,t3
    6740:	97ba                	add	a5,a5,a4
    6742:	fd078713          	addi	a4,a5,-48
    6746:	bf99                	j	669c <_strtod_l+0x320>
    6748:	c6ea                	sw	s10,76(sp)
    674a:	4981                	li	s3,0
    674c:	b769                	j	66d6 <_strtod_l+0x35a>
    674e:	06900713          	li	a4,105
    6752:	fae784e3          	beq	a5,a4,66fa <_strtod_l+0x37e>
    6756:	06e00713          	li	a4,110
    675a:	d2e795e3          	bne	a5,a4,6484 <_strtod_l+0x108>
    675e:	00007597          	auipc	a1,0x7
    6762:	c0658593          	addi	a1,a1,-1018 # d364 <__clz_tab+0x1c0>
    6766:	00e8                	addi	a0,sp,76
    6768:	2e2020ef          	jal	ra,8a4a <__match>
    676c:	d0050ce3          	beqz	a0,6484 <_strtod_l+0x108>
    6770:	47b6                	lw	a5,76(sp)
    6772:	0007c703          	lbu	a4,0(a5)
    6776:	02800793          	li	a5,40
    677a:	02f71363          	bne	a4,a5,67a0 <_strtod_l+0x424>
    677e:	08b0                	addi	a2,sp,88
    6780:	00007597          	auipc	a1,0x7
    6784:	bfc58593          	addi	a1,a1,-1028 # d37c <fpinan.3431>
    6788:	00e8                	addi	a0,sp,76
    678a:	2f0020ef          	jal	ra,8a7a <__hexnan>
    678e:	4795                	li	a5,5
    6790:	00f51863          	bne	a0,a5,67a0 <_strtod_l+0x424>
    6794:	45f6                	lw	a1,92(sp)
    6796:	7ff00437          	lui	s0,0x7ff00
    679a:	44e6                	lw	s1,88(sp)
    679c:	8c4d                	or	s0,s0,a1
    679e:	b949                	j	6430 <_strtod_l+0xb4>
    67a0:	fff80437          	lui	s0,0xfff80
    67a4:	b171                	j	6430 <_strtod_l+0xb4>
    67a6:	41698ab3          	sub	s5,s3,s6
    67aa:	000c1363          	bnez	s8,67b0 <_strtod_l+0x434>
    67ae:	8c6e                	mv	s8,s11
    67b0:	47c1                	li	a5,16
    67b2:	8d6e                	mv	s10,s11
    67b4:	01b7d363          	bge	a5,s11,67ba <_strtod_l+0x43e>
    67b8:	4d41                	li	s10,16
    67ba:	855e                	mv	a0,s7
    67bc:	418050ef          	jal	ra,bbd4 <__floatunsidf>
    67c0:	47a5                	li	a5,9
    67c2:	84aa                	mv	s1,a0
    67c4:	842e                	mv	s0,a1
    67c6:	03b7dc63          	bge	a5,s11,67fe <_strtod_l+0x482>
    67ca:	ff7d0793          	addi	a5,s10,-9
    67ce:	00379713          	slli	a4,a5,0x3
    67d2:	00007797          	auipc	a5,0x7
    67d6:	dbe78793          	addi	a5,a5,-578 # d590 <__mprec_tens>
    67da:	97ba                	add	a5,a5,a4
    67dc:	4390                	lw	a2,0(a5)
    67de:	43d4                	lw	a3,4(a5)
    67e0:	68e040ef          	jal	ra,ae6e <__muldf3>
    67e4:	842a                	mv	s0,a0
    67e6:	8552                	mv	a0,s4
    67e8:	84ae                	mv	s1,a1
    67ea:	3ea050ef          	jal	ra,bbd4 <__floatunsidf>
    67ee:	862a                	mv	a2,a0
    67f0:	86ae                	mv	a3,a1
    67f2:	8522                	mv	a0,s0
    67f4:	85a6                	mv	a1,s1
    67f6:	7c6030ef          	jal	ra,9fbc <__adddf3>
    67fa:	84aa                	mv	s1,a0
    67fc:	842e                	mv	s0,a1
    67fe:	47bd                	li	a5,15
    6800:	09b7cd63          	blt	a5,s11,689a <_strtod_l+0x51e>
    6804:	c20a86e3          	beqz	s5,6430 <_strtod_l+0xb4>
    6808:	07505463          	blez	s5,6870 <_strtod_l+0x4f4>
    680c:	4759                	li	a4,22
    680e:	03574363          	blt	a4,s5,6834 <_strtod_l+0x4b8>
    6812:	0a8e                	slli	s5,s5,0x3
    6814:	00007797          	auipc	a5,0x7
    6818:	d7c78793          	addi	a5,a5,-644 # d590 <__mprec_tens>
    681c:	9abe                	add	s5,s5,a5
    681e:	000aa503          	lw	a0,0(s5)
    6822:	004aa583          	lw	a1,4(s5)
    6826:	8626                	mv	a2,s1
    6828:	86a2                	mv	a3,s0
    682a:	644040ef          	jal	ra,ae6e <__muldf3>
    682e:	84aa                	mv	s1,a0
    6830:	842e                	mv	s0,a1
    6832:	befd                	j	6430 <_strtod_l+0xb4>
    6834:	02500713          	li	a4,37
    6838:	41b70733          	sub	a4,a4,s11
    683c:	05574f63          	blt	a4,s5,689a <_strtod_l+0x51e>
    6840:	41b78db3          	sub	s11,a5,s11
    6844:	00007917          	auipc	s2,0x7
    6848:	d4c90913          	addi	s2,s2,-692 # d590 <__mprec_tens>
    684c:	003d9793          	slli	a5,s11,0x3
    6850:	97ca                	add	a5,a5,s2
    6852:	4388                	lw	a0,0(a5)
    6854:	43cc                	lw	a1,4(a5)
    6856:	41ba8db3          	sub	s11,s5,s11
    685a:	8626                	mv	a2,s1
    685c:	86a2                	mv	a3,s0
    685e:	0d8e                	slli	s11,s11,0x3
    6860:	60e040ef          	jal	ra,ae6e <__muldf3>
    6864:	9dca                	add	s11,s11,s2
    6866:	000da603          	lw	a2,0(s11)
    686a:	004da683          	lw	a3,4(s11)
    686e:	bf75                	j	682a <_strtod_l+0x4ae>
    6870:	57a9                	li	a5,-22
    6872:	02fac463          	blt	s5,a5,689a <_strtod_l+0x51e>
    6876:	413b09b3          	sub	s3,s6,s3
    687a:	00399b13          	slli	s6,s3,0x3
    687e:	00007997          	auipc	s3,0x7
    6882:	d1298993          	addi	s3,s3,-750 # d590 <__mprec_tens>
    6886:	99da                	add	s3,s3,s6
    6888:	0009a603          	lw	a2,0(s3)
    688c:	0049a683          	lw	a3,4(s3)
    6890:	8526                	mv	a0,s1
    6892:	85a2                	mv	a1,s0
    6894:	659030ef          	jal	ra,a6ec <__divdf3>
    6898:	bf59                	j	682e <_strtod_l+0x4b2>
    689a:	41ad8d33          	sub	s10,s11,s10
    689e:	9d56                	add	s10,s10,s5
    68a0:	11a05763          	blez	s10,69ae <_strtod_l+0x632>
    68a4:	00fd7793          	andi	a5,s10,15
    68a8:	cf99                	beqz	a5,68c6 <_strtod_l+0x54a>
    68aa:	00007717          	auipc	a4,0x7
    68ae:	ce670713          	addi	a4,a4,-794 # d590 <__mprec_tens>
    68b2:	078e                	slli	a5,a5,0x3
    68b4:	97ba                	add	a5,a5,a4
    68b6:	4388                	lw	a0,0(a5)
    68b8:	43cc                	lw	a1,4(a5)
    68ba:	8626                	mv	a2,s1
    68bc:	86a2                	mv	a3,s0
    68be:	5b0040ef          	jal	ra,ae6e <__muldf3>
    68c2:	84aa                	mv	s1,a0
    68c4:	842e                	mv	s0,a1
    68c6:	ff0d7d13          	andi	s10,s10,-16
    68ca:	0a0d0863          	beqz	s10,697a <_strtod_l+0x5fe>
    68ce:	13400793          	li	a5,308
    68d2:	05a7d563          	bge	a5,s10,691c <_strtod_l+0x5a0>
    68d6:	4b01                	li	s6,0
    68d8:	4981                	li	s3,0
    68da:	c602                	sw	zero,12(sp)
    68dc:	4b81                	li	s7,0
    68de:	02200793          	li	a5,34
    68e2:	00f92023          	sw	a5,0(s2)
    68e6:	7ff00437          	lui	s0,0x7ff00
    68ea:	4481                	li	s1,0
    68ec:	47b2                	lw	a5,12(sp)
    68ee:	b40781e3          	beqz	a5,6430 <_strtod_l+0xb4>
    68f2:	45c6                	lw	a1,80(sp)
    68f4:	854a                	mv	a0,s2
    68f6:	4a8020ef          	jal	ra,8d9e <_Bfree>
    68fa:	85de                	mv	a1,s7
    68fc:	854a                	mv	a0,s2
    68fe:	4a0020ef          	jal	ra,8d9e <_Bfree>
    6902:	85ce                	mv	a1,s3
    6904:	854a                	mv	a0,s2
    6906:	498020ef          	jal	ra,8d9e <_Bfree>
    690a:	45b2                	lw	a1,12(sp)
    690c:	854a                	mv	a0,s2
    690e:	490020ef          	jal	ra,8d9e <_Bfree>
    6912:	85da                	mv	a1,s6
    6914:	854a                	mv	a0,s2
    6916:	488020ef          	jal	ra,8d9e <_Bfree>
    691a:	be19                	j	6430 <_strtod_l+0xb4>
    691c:	404d5d13          	srai	s10,s10,0x4
    6920:	8526                	mv	a0,s1
    6922:	85a2                	mv	a1,s0
    6924:	4781                	li	a5,0
    6926:	4a01                	li	s4,0
    6928:	4805                	li	a6,1
    692a:	00007897          	auipc	a7,0x7
    692e:	c3e88893          	addi	a7,a7,-962 # d568 <__mprec_bigtens>
    6932:	05a84663          	blt	a6,s10,697e <_strtod_l+0x602>
    6936:	c399                	beqz	a5,693c <_strtod_l+0x5c0>
    6938:	84aa                	mv	s1,a0
    693a:	842e                	mv	s0,a1
    693c:	00007717          	auipc	a4,0x7
    6940:	c2c70713          	addi	a4,a4,-980 # d568 <__mprec_bigtens>
    6944:	003a1793          	slli	a5,s4,0x3
    6948:	97ba                	add	a5,a5,a4
    694a:	4388                	lw	a0,0(a5)
    694c:	43cc                	lw	a1,4(a5)
    694e:	fcb00737          	lui	a4,0xfcb00
    6952:	9722                	add	a4,a4,s0
    6954:	8626                	mv	a2,s1
    6956:	86ba                	mv	a3,a4
    6958:	516040ef          	jal	ra,ae6e <__muldf3>
    695c:	7ff00437          	lui	s0,0x7ff00
    6960:	00b477b3          	and	a5,s0,a1
    6964:	7ca00737          	lui	a4,0x7ca00
    6968:	84aa                	mv	s1,a0
    696a:	f6f766e3          	bltu	a4,a5,68d6 <_strtod_l+0x55a>
    696e:	7c900737          	lui	a4,0x7c900
    6972:	02f77a63          	bgeu	a4,a5,69a6 <_strtod_l+0x62a>
    6976:	147d                	addi	s0,s0,-1
    6978:	54fd                	li	s1,-1
    697a:	4a01                	li	s4,0
    697c:	a8dd                	j	6a72 <_strtod_l+0x6f6>
    697e:	001d7713          	andi	a4,s10,1
    6982:	cf11                	beqz	a4,699e <_strtod_l+0x622>
    6984:	003a1713          	slli	a4,s4,0x3
    6988:	9746                	add	a4,a4,a7
    698a:	4310                	lw	a2,0(a4)
    698c:	4354                	lw	a3,4(a4)
    698e:	4e0040ef          	jal	ra,ae6e <__muldf3>
    6992:	4785                	li	a5,1
    6994:	4805                	li	a6,1
    6996:	00007897          	auipc	a7,0x7
    699a:	bd288893          	addi	a7,a7,-1070 # d568 <__mprec_bigtens>
    699e:	0a05                	addi	s4,s4,1
    69a0:	401d5d13          	srai	s10,s10,0x1
    69a4:	b779                	j	6932 <_strtod_l+0x5b6>
    69a6:	03500437          	lui	s0,0x3500
    69aa:	942e                	add	s0,s0,a1
    69ac:	b7f9                	j	697a <_strtod_l+0x5fe>
    69ae:	fc0d06e3          	beqz	s10,697a <_strtod_l+0x5fe>
    69b2:	41a00d33          	neg	s10,s10
    69b6:	00fd7793          	andi	a5,s10,15
    69ba:	cf99                	beqz	a5,69d8 <_strtod_l+0x65c>
    69bc:	00007717          	auipc	a4,0x7
    69c0:	bd470713          	addi	a4,a4,-1068 # d590 <__mprec_tens>
    69c4:	078e                	slli	a5,a5,0x3
    69c6:	97ba                	add	a5,a5,a4
    69c8:	4390                	lw	a2,0(a5)
    69ca:	43d4                	lw	a3,4(a5)
    69cc:	8526                	mv	a0,s1
    69ce:	85a2                	mv	a1,s0
    69d0:	51d030ef          	jal	ra,a6ec <__divdf3>
    69d4:	84aa                	mv	s1,a0
    69d6:	842e                	mv	s0,a1
    69d8:	404d5d13          	srai	s10,s10,0x4
    69dc:	f80d0fe3          	beqz	s10,697a <_strtod_l+0x5fe>
    69e0:	47fd                	li	a5,31
    69e2:	01a7dd63          	bge	a5,s10,69fc <_strtod_l+0x680>
    69e6:	4b01                	li	s6,0
    69e8:	4981                	li	s3,0
    69ea:	c602                	sw	zero,12(sp)
    69ec:	4b81                	li	s7,0
    69ee:	02200793          	li	a5,34
    69f2:	4481                	li	s1,0
    69f4:	4401                	li	s0,0
    69f6:	00f92023          	sw	a5,0(s2)
    69fa:	bdcd                	j	68ec <_strtod_l+0x570>
    69fc:	010d7a13          	andi	s4,s10,16
    6a00:	000a0463          	beqz	s4,6a08 <_strtod_l+0x68c>
    6a04:	06a00a13          	li	s4,106
    6a08:	8526                	mv	a0,s1
    6a0a:	85a2                	mv	a1,s0
    6a0c:	00007797          	auipc	a5,0x7
    6a10:	98478793          	addi	a5,a5,-1660 # d390 <tinytens>
    6a14:	4701                	li	a4,0
    6a16:	001d7693          	andi	a3,s10,1
    6a1a:	ca81                	beqz	a3,6a2a <_strtod_l+0x6ae>
    6a1c:	4390                	lw	a2,0(a5)
    6a1e:	43d4                	lw	a3,4(a5)
    6a20:	c63e                	sw	a5,12(sp)
    6a22:	44c040ef          	jal	ra,ae6e <__muldf3>
    6a26:	47b2                	lw	a5,12(sp)
    6a28:	4705                	li	a4,1
    6a2a:	401d5d13          	srai	s10,s10,0x1
    6a2e:	07a1                	addi	a5,a5,8
    6a30:	fe0d13e3          	bnez	s10,6a16 <_strtod_l+0x69a>
    6a34:	c319                	beqz	a4,6a3a <_strtod_l+0x6be>
    6a36:	84aa                	mv	s1,a0
    6a38:	842e                	mv	s0,a1
    6a3a:	020a0563          	beqz	s4,6a64 <_strtod_l+0x6e8>
    6a3e:	01445793          	srli	a5,s0,0x14
    6a42:	7ff7f713          	andi	a4,a5,2047
    6a46:	06b00793          	li	a5,107
    6a4a:	8f99                	sub	a5,a5,a4
    6a4c:	00f05c63          	blez	a5,6a64 <_strtod_l+0x6e8>
    6a50:	477d                	li	a4,31
    6a52:	22f75463          	bge	a4,a5,6c7a <_strtod_l+0x8fe>
    6a56:	03400713          	li	a4,52
    6a5a:	4481                	li	s1,0
    6a5c:	20f75963          	bge	a4,a5,6c6e <_strtod_l+0x8f2>
    6a60:	03700437          	lui	s0,0x3700
    6a64:	4601                	li	a2,0
    6a66:	4681                	li	a3,0
    6a68:	8526                	mv	a0,s1
    6a6a:	85a2                	mv	a1,s0
    6a6c:	234040ef          	jal	ra,aca0 <__eqdf2>
    6a70:	d93d                	beqz	a0,69e6 <_strtod_l+0x66a>
    6a72:	875e                	mv	a4,s7
    6a74:	86ee                	mv	a3,s11
    6a76:	8662                	mv	a2,s8
    6a78:	85e6                	mv	a1,s9
    6a7a:	854a                	mv	a0,s2
    6a7c:	3fe020ef          	jal	ra,8e7a <__s2b>
    6a80:	c62a                	sw	a0,12(sp)
    6a82:	e4050ae3          	beqz	a0,68d6 <_strtod_l+0x55a>
    6a86:	41fad793          	srai	a5,s5,0x1f
    6a8a:	413b09b3          	sub	s3,s6,s3
    6a8e:	00f9f7b3          	and	a5,s3,a5
    6a92:	d03e                	sw	a5,32(sp)
    6a94:	ce56                	sw	s5,28(sp)
    6a96:	000ad363          	bgez	s5,6a9c <_strtod_l+0x720>
    6a9a:	ce02                	sw	zero,28(sp)
    6a9c:	47b2                	lw	a5,12(sp)
    6a9e:	4b01                	li	s6,0
    6aa0:	4981                	li	s3,0
    6aa2:	07b1                	addi	a5,a5,12
    6aa4:	d83e                	sw	a5,48(sp)
    6aa6:	001007b7          	lui	a5,0x100
    6aaa:	17fd                	addi	a5,a5,-1
    6aac:	d63e                	sw	a5,44(sp)
    6aae:	47b2                	lw	a5,12(sp)
    6ab0:	854a                	mv	a0,s2
    6ab2:	43cc                	lw	a1,4(a5)
    6ab4:	25e020ef          	jal	ra,8d12 <_Balloc>
    6ab8:	8baa                	mv	s7,a0
    6aba:	e20502e3          	beqz	a0,68de <_strtod_l+0x562>
    6abe:	47b2                	lw	a5,12(sp)
    6ac0:	55c2                	lw	a1,48(sp)
    6ac2:	0531                	addi	a0,a0,12
    6ac4:	4b90                	lw	a2,16(a5)
    6ac6:	0609                	addi	a2,a2,2
    6ac8:	060a                	slli	a2,a2,0x2
    6aca:	dd6fe0ef          	jal	ra,50a0 <memcpy>
    6ace:	08b8                	addi	a4,sp,88
    6ad0:	08d4                	addi	a3,sp,84
    6ad2:	8622                	mv	a2,s0
    6ad4:	85a6                	mv	a1,s1
    6ad6:	854a                	mv	a0,s2
    6ad8:	ca26                	sw	s1,20(sp)
    6ada:	cc22                	sw	s0,24(sp)
    6adc:	1ff020ef          	jal	ra,94da <__d2b>
    6ae0:	c8aa                	sw	a0,80(sp)
    6ae2:	de050ee3          	beqz	a0,68de <_strtod_l+0x562>
    6ae6:	4585                	li	a1,1
    6ae8:	854a                	mv	a0,s2
    6aea:	4e6020ef          	jal	ra,8fd0 <__i2b>
    6aee:	89aa                	mv	s3,a0
    6af0:	de0507e3          	beqz	a0,68de <_strtod_l+0x562>
    6af4:	47d6                	lw	a5,84(sp)
    6af6:	1807c763          	bltz	a5,6c84 <_strtod_l+0x908>
    6afa:	5702                	lw	a4,32(sp)
    6afc:	4c72                	lw	s8,28(sp)
    6afe:	00e78d33          	add	s10,a5,a4
    6b02:	4766                	lw	a4,88(sp)
    6b04:	414787b3          	sub	a5,a5,s4
    6b08:	03600693          	li	a3,54
    6b0c:	97ba                	add	a5,a5,a4
    6b0e:	17fd                	addi	a5,a5,-1
    6b10:	c0200d93          	li	s11,-1022
    6b14:	8e99                	sub	a3,a3,a4
    6b16:	19b7d663          	bge	a5,s11,6ca2 <_strtod_l+0x926>
    6b1a:	40fd8733          	sub	a4,s11,a5
    6b1e:	467d                	li	a2,31
    6b20:	8e99                	sub	a3,a3,a4
    6b22:	16e64663          	blt	a2,a4,6c8e <_strtod_l+0x912>
    6b26:	4d85                	li	s11,1
    6b28:	00ed97b3          	sll	a5,s11,a4
    6b2c:	d23e                	sw	a5,36(sp)
    6b2e:	4c81                	li	s9,0
    6b30:	9c36                	add	s8,s8,a3
    6b32:	00dd0db3          	add	s11,s10,a3
    6b36:	9c52                	add	s8,s8,s4
    6b38:	87ea                	mv	a5,s10
    6b3a:	01add363          	bge	s11,s10,6b40 <_strtod_l+0x7c4>
    6b3e:	87ee                	mv	a5,s11
    6b40:	00fc5363          	bge	s8,a5,6b46 <_strtod_l+0x7ca>
    6b44:	87e2                	mv	a5,s8
    6b46:	00f05863          	blez	a5,6b56 <_strtod_l+0x7da>
    6b4a:	40fd8db3          	sub	s11,s11,a5
    6b4e:	40fc0c33          	sub	s8,s8,a5
    6b52:	40fd0d33          	sub	s10,s10,a5
    6b56:	5782                	lw	a5,32(sp)
    6b58:	02f05863          	blez	a5,6b88 <_strtod_l+0x80c>
    6b5c:	85ce                	mv	a1,s3
    6b5e:	863e                	mv	a2,a5
    6b60:	854a                	mv	a0,s2
    6b62:	5ce020ef          	jal	ra,9130 <__pow5mult>
    6b66:	89aa                	mv	s3,a0
    6b68:	d6050be3          	beqz	a0,68de <_strtod_l+0x562>
    6b6c:	4646                	lw	a2,80(sp)
    6b6e:	85aa                	mv	a1,a0
    6b70:	854a                	mv	a0,s2
    6b72:	47a020ef          	jal	ra,8fec <__multiply>
    6b76:	da2a                	sw	a0,52(sp)
    6b78:	d60503e3          	beqz	a0,68de <_strtod_l+0x562>
    6b7c:	45c6                	lw	a1,80(sp)
    6b7e:	854a                	mv	a0,s2
    6b80:	21e020ef          	jal	ra,8d9e <_Bfree>
    6b84:	57d2                	lw	a5,52(sp)
    6b86:	c8be                	sw	a5,80(sp)
    6b88:	11b04f63          	bgtz	s11,6ca6 <_strtod_l+0x92a>
    6b8c:	01505a63          	blez	s5,6ba0 <_strtod_l+0x824>
    6b90:	4672                	lw	a2,28(sp)
    6b92:	85de                	mv	a1,s7
    6b94:	854a                	mv	a0,s2
    6b96:	59a020ef          	jal	ra,9130 <__pow5mult>
    6b9a:	8baa                	mv	s7,a0
    6b9c:	d40501e3          	beqz	a0,68de <_strtod_l+0x562>
    6ba0:	01805a63          	blez	s8,6bb4 <_strtod_l+0x838>
    6ba4:	85de                	mv	a1,s7
    6ba6:	8662                	mv	a2,s8
    6ba8:	854a                	mv	a0,s2
    6baa:	644020ef          	jal	ra,91ee <__lshift>
    6bae:	8baa                	mv	s7,a0
    6bb0:	d20507e3          	beqz	a0,68de <_strtod_l+0x562>
    6bb4:	01a05a63          	blez	s10,6bc8 <_strtod_l+0x84c>
    6bb8:	85ce                	mv	a1,s3
    6bba:	866a                	mv	a2,s10
    6bbc:	854a                	mv	a0,s2
    6bbe:	630020ef          	jal	ra,91ee <__lshift>
    6bc2:	89aa                	mv	s3,a0
    6bc4:	d0050de3          	beqz	a0,68de <_strtod_l+0x562>
    6bc8:	45c6                	lw	a1,80(sp)
    6bca:	865e                	mv	a2,s7
    6bcc:	854a                	mv	a0,s2
    6bce:	720020ef          	jal	ra,92ee <__mdiff>
    6bd2:	8b2a                	mv	s6,a0
    6bd4:	d00505e3          	beqz	a0,68de <_strtod_l+0x562>
    6bd8:	00c52c03          	lw	s8,12(a0)
    6bdc:	85ce                	mv	a1,s3
    6bde:	00052623          	sw	zero,12(a0)
    6be2:	6da020ef          	jal	ra,92bc <__mcmp>
    6be6:	0c055963          	bgez	a0,6cb8 <_strtod_l+0x93c>
    6bea:	009c6c33          	or	s8,s8,s1
    6bee:	120c1163          	bnez	s8,6d10 <_strtod_l+0x994>
    6bf2:	00c41793          	slli	a5,s0,0xc
    6bf6:	10079d63          	bnez	a5,6d10 <_strtod_l+0x994>
    6bfa:	7ff007b7          	lui	a5,0x7ff00
    6bfe:	8fe1                	and	a5,a5,s0
    6c00:	06b00737          	lui	a4,0x6b00
    6c04:	10f77663          	bgeu	a4,a5,6d10 <_strtod_l+0x994>
    6c08:	014b2783          	lw	a5,20(s6)
    6c0c:	e791                	bnez	a5,6c18 <_strtod_l+0x89c>
    6c0e:	010b2703          	lw	a4,16(s6)
    6c12:	4785                	li	a5,1
    6c14:	0ee7de63          	bge	a5,a4,6d10 <_strtod_l+0x994>
    6c18:	85da                	mv	a1,s6
    6c1a:	4605                	li	a2,1
    6c1c:	854a                	mv	a0,s2
    6c1e:	5d0020ef          	jal	ra,91ee <__lshift>
    6c22:	85ce                	mv	a1,s3
    6c24:	8b2a                	mv	s6,a0
    6c26:	696020ef          	jal	ra,92bc <__mcmp>
    6c2a:	0ea05363          	blez	a0,6d10 <_strtod_l+0x994>
    6c2e:	100a0c63          	beqz	s4,6d46 <_strtod_l+0x9ca>
    6c32:	7ff007b7          	lui	a5,0x7ff00
    6c36:	8fe1                	and	a5,a5,s0
    6c38:	06b00737          	lui	a4,0x6b00
    6c3c:	10f74563          	blt	a4,a5,6d46 <_strtod_l+0x9ca>
    6c40:	03700737          	lui	a4,0x3700
    6c44:	daf755e3          	bge	a4,a5,69ee <_strtod_l+0x672>
    6c48:	4701                	li	a4,0
    6c4a:	395007b7          	lui	a5,0x39500
    6c4e:	8526                	mv	a0,s1
    6c50:	85a2                	mv	a1,s0
    6c52:	863a                	mv	a2,a4
    6c54:	86be                	mv	a3,a5
    6c56:	218040ef          	jal	ra,ae6e <__muldf3>
    6c5a:	842e                	mv	s0,a1
    6c5c:	8dc9                	or	a1,a1,a0
    6c5e:	84aa                	mv	s1,a0
    6c60:	c80599e3          	bnez	a1,68f2 <_strtod_l+0x576>
    6c64:	02200793          	li	a5,34
    6c68:	00f92023          	sw	a5,0(s2)
    6c6c:	b159                	j	68f2 <_strtod_l+0x576>
    6c6e:	1781                	addi	a5,a5,-32
    6c70:	577d                	li	a4,-1
    6c72:	00f717b3          	sll	a5,a4,a5
    6c76:	8c7d                	and	s0,s0,a5
    6c78:	b3f5                	j	6a64 <_strtod_l+0x6e8>
    6c7a:	577d                	li	a4,-1
    6c7c:	00f717b3          	sll	a5,a4,a5
    6c80:	8cfd                	and	s1,s1,a5
    6c82:	b3cd                	j	6a64 <_strtod_l+0x6e8>
    6c84:	4772                	lw	a4,28(sp)
    6c86:	5d02                	lw	s10,32(sp)
    6c88:	40f70c33          	sub	s8,a4,a5
    6c8c:	bd9d                	j	6b02 <_strtod_l+0x786>
    6c8e:	be200c93          	li	s9,-1054
    6c92:	40fc87b3          	sub	a5,s9,a5
    6c96:	4c85                	li	s9,1
    6c98:	00fc9cb3          	sll	s9,s9,a5
    6c9c:	4785                	li	a5,1
    6c9e:	d23e                	sw	a5,36(sp)
    6ca0:	bd41                	j	6b30 <_strtod_l+0x7b4>
    6ca2:	4c81                	li	s9,0
    6ca4:	bfe5                	j	6c9c <_strtod_l+0x920>
    6ca6:	45c6                	lw	a1,80(sp)
    6ca8:	866e                	mv	a2,s11
    6caa:	854a                	mv	a0,s2
    6cac:	542020ef          	jal	ra,91ee <__lshift>
    6cb0:	c8aa                	sw	a0,80(sp)
    6cb2:	ec051de3          	bnez	a0,6b8c <_strtod_l+0x810>
    6cb6:	b125                	j	68de <_strtod_l+0x562>
    6cb8:	e969                	bnez	a0,6d8a <_strtod_l+0xa0e>
    6cba:	00100737          	lui	a4,0x100
    6cbe:	177d                	addi	a4,a4,-1
    6cc0:	00e477b3          	and	a5,s0,a4
    6cc4:	040c0963          	beqz	s8,6d16 <_strtod_l+0x99a>
    6cc8:	04e79963          	bne	a5,a4,6d1a <_strtod_l+0x99e>
    6ccc:	577d                	li	a4,-1
    6cce:	020a0063          	beqz	s4,6cee <_strtod_l+0x972>
    6cd2:	7ff007b7          	lui	a5,0x7ff00
    6cd6:	8fe1                	and	a5,a5,s0
    6cd8:	06a006b7          	lui	a3,0x6a00
    6cdc:	00f6e963          	bltu	a3,a5,6cee <_strtod_l+0x972>
    6ce0:	83d1                	srli	a5,a5,0x14
    6ce2:	06b00693          	li	a3,107
    6ce6:	40f687b3          	sub	a5,a3,a5
    6cea:	00f71733          	sll	a4,a4,a5
    6cee:	02e49663          	bne	s1,a4,6d1a <_strtod_l+0x99e>
    6cf2:	7ff007b7          	lui	a5,0x7ff00
    6cf6:	17fd                	addi	a5,a5,-1
    6cf8:	00f41563          	bne	s0,a5,6d02 <_strtod_l+0x986>
    6cfc:	57fd                	li	a5,-1
    6cfe:	bef480e3          	beq	s1,a5,68de <_strtod_l+0x562>
    6d02:	7ff005b7          	lui	a1,0x7ff00
    6d06:	8de1                	and	a1,a1,s0
    6d08:	00100437          	lui	s0,0x100
    6d0c:	942e                	add	s0,s0,a1
    6d0e:	4481                	li	s1,0
    6d10:	f20a1ce3          	bnez	s4,6c48 <_strtod_l+0x8cc>
    6d14:	bef9                	j	68f2 <_strtod_l+0x576>
    6d16:	8fc5                	or	a5,a5,s1
    6d18:	db99                	beqz	a5,6c2e <_strtod_l+0x8b2>
    6d1a:	040c8263          	beqz	s9,6d5e <_strtod_l+0x9e2>
    6d1e:	008cfcb3          	and	s9,s9,s0
    6d22:	fe0c87e3          	beqz	s9,6d10 <_strtod_l+0x994>
    6d26:	8652                	mv	a2,s4
    6d28:	8526                	mv	a0,s1
    6d2a:	85a2                	mv	a1,s0
    6d2c:	020c0f63          	beqz	s8,6d6a <_strtod_l+0x9ee>
    6d30:	dfeff0ef          	jal	ra,632e <sulp>
    6d34:	862a                	mv	a2,a0
    6d36:	86ae                	mv	a3,a1
    6d38:	4552                	lw	a0,20(sp)
    6d3a:	45e2                	lw	a1,24(sp)
    6d3c:	280030ef          	jal	ra,9fbc <__adddf3>
    6d40:	84aa                	mv	s1,a0
    6d42:	842e                	mv	s0,a1
    6d44:	b7f1                	j	6d10 <_strtod_l+0x994>
    6d46:	7ff005b7          	lui	a1,0x7ff00
    6d4a:	8de1                	and	a1,a1,s0
    6d4c:	fff00437          	lui	s0,0xfff00
    6d50:	95a2                	add	a1,a1,s0
    6d52:	00100437          	lui	s0,0x100
    6d56:	147d                	addi	s0,s0,-1
    6d58:	8c4d                	or	s0,s0,a1
    6d5a:	54fd                	li	s1,-1
    6d5c:	bf55                	j	6d10 <_strtod_l+0x994>
    6d5e:	5792                	lw	a5,36(sp)
    6d60:	0097fdb3          	and	s11,a5,s1
    6d64:	fa0d86e3          	beqz	s11,6d10 <_strtod_l+0x994>
    6d68:	bf7d                	j	6d26 <_strtod_l+0x9aa>
    6d6a:	dc4ff0ef          	jal	ra,632e <sulp>
    6d6e:	862a                	mv	a2,a0
    6d70:	86ae                	mv	a3,a1
    6d72:	4552                	lw	a0,20(sp)
    6d74:	45e2                	lw	a1,24(sp)
    6d76:	5b0040ef          	jal	ra,b326 <__subdf3>
    6d7a:	4601                	li	a2,0
    6d7c:	4681                	li	a3,0
    6d7e:	84aa                	mv	s1,a0
    6d80:	842e                	mv	s0,a1
    6d82:	71f030ef          	jal	ra,aca0 <__eqdf2>
    6d86:	f549                	bnez	a0,6d10 <_strtod_l+0x994>
    6d88:	b19d                	j	69ee <_strtod_l+0x672>
    6d8a:	85ce                	mv	a1,s3
    6d8c:	855a                	mv	a0,s6
    6d8e:	021020ef          	jal	ra,95ae <__ratio>
    6d92:	00006797          	auipc	a5,0x6
    6d96:	59e78793          	addi	a5,a5,1438 # d330 <__clz_tab+0x18c>
    6d9a:	4390                	lw	a2,0(a5)
    6d9c:	43d4                	lw	a3,4(a5)
    6d9e:	8d2a                	mv	s10,a0
    6da0:	8dae                	mv	s11,a1
    6da2:	016040ef          	jal	ra,adb8 <__ledf2>
    6da6:	10a04263          	bgtz	a0,6eaa <_strtod_l+0xb2e>
    6daa:	0a0c0163          	beqz	s8,6e4c <_strtod_l+0xad0>
    6dae:	4d81                	li	s11,0
    6db0:	3ff00d37          	lui	s10,0x3ff00
    6db4:	4701                	li	a4,0
    6db6:	3ff007b7          	lui	a5,0x3ff00
    6dba:	7ff006b7          	lui	a3,0x7ff00
    6dbe:	00d47cb3          	and	s9,s0,a3
    6dc2:	7fe006b7          	lui	a3,0x7fe00
    6dc6:	16dc9f63          	bne	s9,a3,6f44 <_strtod_l+0xbc8>
    6dca:	d26a                	sw	s10,36(sp)
    6dcc:	fcb00d37          	lui	s10,0xfcb00
    6dd0:	9d22                	add	s10,s10,s0
    6dd2:	8526                	mv	a0,s1
    6dd4:	85ea                	mv	a1,s10
    6dd6:	de3e                	sw	a5,60(sp)
    6dd8:	dc3a                	sw	a4,56(sp)
    6dda:	da6e                	sw	s11,52(sp)
    6ddc:	604020ef          	jal	ra,93e0 <__ulp>
    6de0:	58d2                	lw	a7,52(sp)
    6de2:	5812                	lw	a6,36(sp)
    6de4:	862a                	mv	a2,a0
    6de6:	86ae                	mv	a3,a1
    6de8:	8546                	mv	a0,a7
    6dea:	85c2                	mv	a1,a6
    6dec:	082040ef          	jal	ra,ae6e <__muldf3>
    6df0:	8626                	mv	a2,s1
    6df2:	86ea                	mv	a3,s10
    6df4:	1c8030ef          	jal	ra,9fbc <__adddf3>
    6df8:	84aa                	mv	s1,a0
    6dfa:	7ff00537          	lui	a0,0x7ff00
    6dfe:	00b57633          	and	a2,a0,a1
    6e02:	7ca006b7          	lui	a3,0x7ca00
    6e06:	5762                	lw	a4,56(sp)
    6e08:	57f2                	lw	a5,60(sp)
    6e0a:	0cd66563          	bltu	a2,a3,6ed4 <_strtod_l+0xb58>
    6e0e:	4762                	lw	a4,24(sp)
    6e10:	fff50793          	addi	a5,a0,-1 # 7fefffff <_eusrstack+0x5fef7fff>
    6e14:	00e79663          	bne	a5,a4,6e20 <_strtod_l+0xaa4>
    6e18:	4752                	lw	a4,20(sp)
    6e1a:	57fd                	li	a5,-1
    6e1c:	ace781e3          	beq	a5,a4,68de <_strtod_l+0x562>
    6e20:	7ff007b7          	lui	a5,0x7ff00
    6e24:	fff78413          	addi	s0,a5,-1 # 7fefffff <_eusrstack+0x5fef7fff>
    6e28:	54fd                	li	s1,-1
    6e2a:	45c6                	lw	a1,80(sp)
    6e2c:	854a                	mv	a0,s2
    6e2e:	771010ef          	jal	ra,8d9e <_Bfree>
    6e32:	85de                	mv	a1,s7
    6e34:	854a                	mv	a0,s2
    6e36:	769010ef          	jal	ra,8d9e <_Bfree>
    6e3a:	85ce                	mv	a1,s3
    6e3c:	854a                	mv	a0,s2
    6e3e:	761010ef          	jal	ra,8d9e <_Bfree>
    6e42:	85da                	mv	a1,s6
    6e44:	854a                	mv	a0,s2
    6e46:	759010ef          	jal	ra,8d9e <_Bfree>
    6e4a:	b195                	j	6aae <_strtod_l+0x732>
    6e4c:	e0b1                	bnez	s1,6e90 <_strtod_l+0xb14>
    6e4e:	57b2                	lw	a5,44(sp)
    6e50:	8fe1                	and	a5,a5,s0
    6e52:	e7a1                	bnez	a5,6e9a <_strtod_l+0xb1e>
    6e54:	00006797          	auipc	a5,0x6
    6e58:	4d478793          	addi	a5,a5,1236 # d328 <__clz_tab+0x184>
    6e5c:	4390                	lw	a2,0(a5)
    6e5e:	43d4                	lw	a3,4(a5)
    6e60:	856a                	mv	a0,s10
    6e62:	85ee                	mv	a1,s11
    6e64:	755030ef          	jal	ra,adb8 <__ledf2>
    6e68:	02054d63          	bltz	a0,6ea2 <_strtod_l+0xb26>
    6e6c:	00006797          	auipc	a5,0x6
    6e70:	4b478793          	addi	a5,a5,1204 # d320 <__clz_tab+0x17c>
    6e74:	4390                	lw	a2,0(a5)
    6e76:	43d4                	lw	a3,4(a5)
    6e78:	856a                	mv	a0,s10
    6e7a:	85ee                	mv	a1,s11
    6e7c:	7f3030ef          	jal	ra,ae6e <__muldf3>
    6e80:	872a                	mv	a4,a0
    6e82:	87ae                	mv	a5,a1
    6e84:	80000d37          	lui	s10,0x80000
    6e88:	8dba                	mv	s11,a4
    6e8a:	00fd4d33          	xor	s10,s10,a5
    6e8e:	b735                	j	6dba <_strtod_l+0xa3e>
    6e90:	4785                	li	a5,1
    6e92:	00f49463          	bne	s1,a5,6e9a <_strtod_l+0xb1e>
    6e96:	b4040ce3          	beqz	s0,69ee <_strtod_l+0x672>
    6e9a:	4d81                	li	s11,0
    6e9c:	bff00d37          	lui	s10,0xbff00
    6ea0:	bf11                	j	6db4 <_strtod_l+0xa38>
    6ea2:	4701                	li	a4,0
    6ea4:	3fe007b7          	lui	a5,0x3fe00
    6ea8:	bff1                	j	6e84 <_strtod_l+0xb08>
    6eaa:	00006797          	auipc	a5,0x6
    6eae:	47678793          	addi	a5,a5,1142 # d320 <__clz_tab+0x17c>
    6eb2:	4390                	lw	a2,0(a5)
    6eb4:	43d4                	lw	a3,4(a5)
    6eb6:	856a                	mv	a0,s10
    6eb8:	85ee                	mv	a1,s11
    6eba:	7b5030ef          	jal	ra,ae6e <__muldf3>
    6ebe:	872a                	mv	a4,a0
    6ec0:	87ae                	mv	a5,a1
    6ec2:	8d2e                	mv	s10,a1
    6ec4:	000c1663          	bnez	s8,6ed0 <_strtod_l+0xb54>
    6ec8:	80000d37          	lui	s10,0x80000
    6ecc:	00bd4d33          	xor	s10,s10,a1
    6ed0:	8daa                	mv	s11,a0
    6ed2:	b5e5                	j	6dba <_strtod_l+0xa3e>
    6ed4:	03500437          	lui	s0,0x3500
    6ed8:	942e                	add	s0,s0,a1
    6eda:	f40a18e3          	bnez	s4,6e2a <_strtod_l+0xaae>
    6ede:	7ff006b7          	lui	a3,0x7ff00
    6ee2:	8ee1                	and	a3,a3,s0
    6ee4:	f4dc93e3          	bne	s9,a3,6e2a <_strtod_l+0xaae>
    6ee8:	85be                	mv	a1,a5
    6eea:	853a                	mv	a0,a4
    6eec:	8d3a                	mv	s10,a4
    6eee:	8cbe                	mv	s9,a5
    6ef0:	3b1040ef          	jal	ra,baa0 <__fixdfsi>
    6ef4:	471040ef          	jal	ra,bb64 <__floatsidf>
    6ef8:	862a                	mv	a2,a0
    6efa:	86ae                	mv	a3,a1
    6efc:	856a                	mv	a0,s10
    6efe:	85e6                	mv	a1,s9
    6f00:	426040ef          	jal	ra,b326 <__subdf3>
    6f04:	57b2                	lw	a5,44(sp)
    6f06:	8d2a                	mv	s10,a0
    6f08:	8dae                	mv	s11,a1
    6f0a:	8fe1                	and	a5,a5,s0
    6f0c:	8fc5                	or	a5,a5,s1
    6f0e:	0187ec33          	or	s8,a5,s8
    6f12:	0a0c0b63          	beqz	s8,6fc8 <_strtod_l+0xc4c>
    6f16:	00006797          	auipc	a5,0x6
    6f1a:	42a78793          	addi	a5,a5,1066 # d340 <__clz_tab+0x19c>
    6f1e:	4390                	lw	a2,0(a5)
    6f20:	43d4                	lw	a3,4(a5)
    6f22:	697030ef          	jal	ra,adb8 <__ledf2>
    6f26:	9c0546e3          	bltz	a0,68f2 <_strtod_l+0x576>
    6f2a:	00006797          	auipc	a5,0x6
    6f2e:	41e78793          	addi	a5,a5,1054 # d348 <__clz_tab+0x1a4>
    6f32:	4390                	lw	a2,0(a5)
    6f34:	43d4                	lw	a3,4(a5)
    6f36:	856a                	mv	a0,s10
    6f38:	85ee                	mv	a1,s11
    6f3a:	5d1030ef          	jal	ra,ad0a <__gedf2>
    6f3e:	eea056e3          	blez	a0,6e2a <_strtod_l+0xaae>
    6f42:	ba45                	j	68f2 <_strtod_l+0x576>
    6f44:	040a0d63          	beqz	s4,6f9e <_strtod_l+0xc22>
    6f48:	06a006b7          	lui	a3,0x6a00
    6f4c:	0596e963          	bltu	a3,s9,6f9e <_strtod_l+0xc22>
    6f50:	00006697          	auipc	a3,0x6
    6f54:	3e868693          	addi	a3,a3,1000 # d338 <__clz_tab+0x194>
    6f58:	4290                	lw	a2,0(a3)
    6f5a:	42d4                	lw	a3,4(a3)
    6f5c:	853a                	mv	a0,a4
    6f5e:	85be                	mv	a1,a5
    6f60:	da3a                	sw	a4,52(sp)
    6f62:	d23e                	sw	a5,36(sp)
    6f64:	655030ef          	jal	ra,adb8 <__ledf2>
    6f68:	5792                	lw	a5,36(sp)
    6f6a:	5752                	lw	a4,52(sp)
    6f6c:	02a04463          	bgtz	a0,6f94 <_strtod_l+0xc18>
    6f70:	853a                	mv	a0,a4
    6f72:	85be                	mv	a1,a5
    6f74:	395040ef          	jal	ra,bb08 <__fixunsdfsi>
    6f78:	e111                	bnez	a0,6f7c <_strtod_l+0xc00>
    6f7a:	4505                	li	a0,1
    6f7c:	459040ef          	jal	ra,bbd4 <__floatunsidf>
    6f80:	872a                	mv	a4,a0
    6f82:	87ae                	mv	a5,a1
    6f84:	8d2e                	mv	s10,a1
    6f86:	000c1663          	bnez	s8,6f92 <_strtod_l+0xc16>
    6f8a:	80000d37          	lui	s10,0x80000
    6f8e:	00bd4d33          	xor	s10,s10,a1
    6f92:	8daa                	mv	s11,a0
    6f94:	06b005b7          	lui	a1,0x6b00
    6f98:	9d2e                	add	s10,s10,a1
    6f9a:	419d0d33          	sub	s10,s10,s9
    6f9e:	4552                	lw	a0,20(sp)
    6fa0:	45e2                	lw	a1,24(sp)
    6fa2:	da3e                	sw	a5,52(sp)
    6fa4:	d23a                	sw	a4,36(sp)
    6fa6:	43a020ef          	jal	ra,93e0 <__ulp>
    6faa:	862a                	mv	a2,a0
    6fac:	86ae                	mv	a3,a1
    6fae:	856e                	mv	a0,s11
    6fb0:	85ea                	mv	a1,s10
    6fb2:	6bd030ef          	jal	ra,ae6e <__muldf3>
    6fb6:	4652                	lw	a2,20(sp)
    6fb8:	46e2                	lw	a3,24(sp)
    6fba:	002030ef          	jal	ra,9fbc <__adddf3>
    6fbe:	84aa                	mv	s1,a0
    6fc0:	842e                	mv	s0,a1
    6fc2:	57d2                	lw	a5,52(sp)
    6fc4:	5712                	lw	a4,36(sp)
    6fc6:	bf11                	j	6eda <_strtod_l+0xb5e>
    6fc8:	00006797          	auipc	a5,0x6
    6fcc:	38878793          	addi	a5,a5,904 # d350 <__clz_tab+0x1ac>
    6fd0:	4390                	lw	a2,0(a5)
    6fd2:	43d4                	lw	a3,4(a5)
    6fd4:	5e5030ef          	jal	ra,adb8 <__ledf2>
    6fd8:	e40559e3          	bgez	a0,6e2a <_strtod_l+0xaae>
    6fdc:	ba19                	j	68f2 <_strtod_l+0x576>
    6fde:	06500713          	li	a4,101
    6fe2:	00e78763          	beq	a5,a4,6ff0 <_strtod_l+0xc74>
    6fe6:	04500713          	li	a4,69
    6fea:	4505                	li	a0,1
    6fec:	eee79763          	bne	a5,a4,66da <_strtod_l+0x35e>
    6ff0:	4b01                	li	s6,0
    6ff2:	4505                	li	a0,1
    6ff4:	d78ff06f          	j	656c <_strtod_l+0x1f0>

00006ff8 <_strtod_r>:
    6ff8:	80818793          	addi	a5,gp,-2040 # 200010f0 <_impure_ptr>
    6ffc:	439c                	lw	a5,0(a5)
    6ffe:	5394                	lw	a3,32(a5)
    7000:	e689                	bnez	a3,700a <_strtod_r+0x12>
    7002:	1fffa697          	auipc	a3,0x1fffa
    7006:	f1a68693          	addi	a3,a3,-230 # 20000f1c <__global_locale>
    700a:	b72ff06f          	j	637c <_strtod_l>

0000700e <_strtol_l.isra.0>:
    700e:	7179                	addi	sp,sp,-48
    7010:	d04a                	sw	s2,32(sp)
    7012:	ce4e                	sw	s3,28(sp)
    7014:	d606                	sw	ra,44(sp)
    7016:	d422                	sw	s0,40(sp)
    7018:	d226                	sw	s1,36(sp)
    701a:	89aa                	mv	s3,a0
    701c:	892e                	mv	s2,a1
    701e:	00190493          	addi	s1,s2,1
    7022:	fff4c403          	lbu	s0,-1(s1)
    7026:	853a                	mv	a0,a4
    7028:	c636                	sw	a3,12(sp)
    702a:	c432                	sw	a2,8(sp)
    702c:	c22e                	sw	a1,4(sp)
    702e:	c03a                	sw	a4,0(sp)
    7030:	800fe0ef          	jal	ra,5030 <__locale_ctype_ptr_l>
    7034:	9522                	add	a0,a0,s0
    7036:	00154783          	lbu	a5,1(a0)
    703a:	4702                	lw	a4,0(sp)
    703c:	4592                	lw	a1,4(sp)
    703e:	8ba1                	andi	a5,a5,8
    7040:	4622                	lw	a2,8(sp)
    7042:	46b2                	lw	a3,12(sp)
    7044:	e7c9                	bnez	a5,70ce <_strtol_l.isra.0+0xc0>
    7046:	02d00793          	li	a5,45
    704a:	08f41463          	bne	s0,a5,70d2 <_strtol_l.isra.0+0xc4>
    704e:	0004c783          	lbu	a5,0(s1)
    7052:	4305                	li	t1,1
    7054:	00290493          	addi	s1,s2,2
    7058:	c6fd                	beqz	a3,7146 <_strtol_l.isra.0+0x138>
    705a:	4741                	li	a4,16
    705c:	02e69263          	bne	a3,a4,7080 <_strtol_l.isra.0+0x72>
    7060:	03000713          	li	a4,48
    7064:	00e79e63          	bne	a5,a4,7080 <_strtol_l.isra.0+0x72>
    7068:	0004c783          	lbu	a5,0(s1)
    706c:	05800713          	li	a4,88
    7070:	0df7f793          	andi	a5,a5,223
    7074:	0ce79463          	bne	a5,a4,713c <_strtol_l.isra.0+0x12e>
    7078:	0014c783          	lbu	a5,1(s1)
    707c:	46c1                	li	a3,16
    707e:	0489                	addi	s1,s1,2
    7080:	800008b7          	lui	a7,0x80000
    7084:	00031463          	bnez	t1,708c <_strtol_l.isra.0+0x7e>
    7088:	fff8c893          	not	a7,a7
    708c:	02d8ff33          	remu	t5,a7,a3
    7090:	4801                	li	a6,0
    7092:	4501                	li	a0,0
    7094:	4fa5                	li	t6,9
    7096:	4ee5                	li	t4,25
    7098:	52fd                	li	t0,-1
    709a:	02d8de33          	divu	t3,a7,a3
    709e:	fd078713          	addi	a4,a5,-48
    70a2:	04efe463          	bltu	t6,a4,70ea <_strtol_l.isra.0+0xdc>
    70a6:	87ba                	mv	a5,a4
    70a8:	04d7df63          	bge	a5,a3,7106 <_strtol_l.isra.0+0xf8>
    70ac:	00580d63          	beq	a6,t0,70c6 <_strtol_l.isra.0+0xb8>
    70b0:	587d                	li	a6,-1
    70b2:	00ae6a63          	bltu	t3,a0,70c6 <_strtol_l.isra.0+0xb8>
    70b6:	00ae1463          	bne	t3,a0,70be <_strtol_l.isra.0+0xb0>
    70ba:	00ff4663          	blt	t5,a5,70c6 <_strtol_l.isra.0+0xb8>
    70be:	4805                	li	a6,1
    70c0:	02a68533          	mul	a0,a3,a0
    70c4:	953e                	add	a0,a0,a5
    70c6:	0485                	addi	s1,s1,1
    70c8:	fff4c783          	lbu	a5,-1(s1)
    70cc:	bfc9                	j	709e <_strtol_l.isra.0+0x90>
    70ce:	8926                	mv	s2,s1
    70d0:	b7b9                	j	701e <_strtol_l.isra.0+0x10>
    70d2:	02b00793          	li	a5,43
    70d6:	00f40563          	beq	s0,a5,70e0 <_strtol_l.isra.0+0xd2>
    70da:	87a2                	mv	a5,s0
    70dc:	4301                	li	t1,0
    70de:	bfad                	j	7058 <_strtol_l.isra.0+0x4a>
    70e0:	0004c783          	lbu	a5,0(s1)
    70e4:	00290493          	addi	s1,s2,2
    70e8:	bfd5                	j	70dc <_strtol_l.isra.0+0xce>
    70ea:	fbf78713          	addi	a4,a5,-65
    70ee:	00eee563          	bltu	t4,a4,70f8 <_strtol_l.isra.0+0xea>
    70f2:	fc978793          	addi	a5,a5,-55
    70f6:	bf4d                	j	70a8 <_strtol_l.isra.0+0x9a>
    70f8:	f9f78713          	addi	a4,a5,-97
    70fc:	00eee563          	bltu	t4,a4,7106 <_strtol_l.isra.0+0xf8>
    7100:	fa978793          	addi	a5,a5,-87
    7104:	b755                	j	70a8 <_strtol_l.isra.0+0x9a>
    7106:	57fd                	li	a5,-1
    7108:	00f81f63          	bne	a6,a5,7126 <_strtol_l.isra.0+0x118>
    710c:	02200793          	li	a5,34
    7110:	00f9a023          	sw	a5,0(s3)
    7114:	8546                	mv	a0,a7
    7116:	ee19                	bnez	a2,7134 <_strtol_l.isra.0+0x126>
    7118:	50b2                	lw	ra,44(sp)
    711a:	5422                	lw	s0,40(sp)
    711c:	5492                	lw	s1,36(sp)
    711e:	5902                	lw	s2,32(sp)
    7120:	49f2                	lw	s3,28(sp)
    7122:	6145                	addi	sp,sp,48
    7124:	8082                	ret
    7126:	00030463          	beqz	t1,712e <_strtol_l.isra.0+0x120>
    712a:	40a00533          	neg	a0,a0
    712e:	d66d                	beqz	a2,7118 <_strtol_l.isra.0+0x10a>
    7130:	00080463          	beqz	a6,7138 <_strtol_l.isra.0+0x12a>
    7134:	fff48593          	addi	a1,s1,-1
    7138:	c20c                	sw	a1,0(a2)
    713a:	bff9                	j	7118 <_strtol_l.isra.0+0x10a>
    713c:	03000793          	li	a5,48
    7140:	f2a1                	bnez	a3,7080 <_strtol_l.isra.0+0x72>
    7142:	46a1                	li	a3,8
    7144:	bf35                	j	7080 <_strtol_l.isra.0+0x72>
    7146:	03000713          	li	a4,48
    714a:	f0e78fe3          	beq	a5,a4,7068 <_strtol_l.isra.0+0x5a>
    714e:	46a9                	li	a3,10
    7150:	bf05                	j	7080 <_strtol_l.isra.0+0x72>

00007152 <_strtol_r>:
    7152:	80818793          	addi	a5,gp,-2040 # 200010f0 <_impure_ptr>
    7156:	439c                	lw	a5,0(a5)
    7158:	5398                	lw	a4,32(a5)
    715a:	e709                	bnez	a4,7164 <_strtol_r+0x12>
    715c:	1fffa717          	auipc	a4,0x1fffa
    7160:	dc070713          	addi	a4,a4,-576 # 20000f1c <__global_locale>
    7164:	eabff06f          	j	700e <_strtol_l.isra.0>

00007168 <__swbuf_r>:
    7168:	1101                	addi	sp,sp,-32
    716a:	cc22                	sw	s0,24(sp)
    716c:	ca26                	sw	s1,20(sp)
    716e:	c84a                	sw	s2,16(sp)
    7170:	ce06                	sw	ra,28(sp)
    7172:	c64e                	sw	s3,12(sp)
    7174:	84aa                	mv	s1,a0
    7176:	892e                	mv	s2,a1
    7178:	8432                	mv	s0,a2
    717a:	c509                	beqz	a0,7184 <__swbuf_r+0x1c>
    717c:	4d1c                	lw	a5,24(a0)
    717e:	e399                	bnez	a5,7184 <__swbuf_r+0x1c>
    7180:	19a010ef          	jal	ra,831a <__sinit>
    7184:	00006797          	auipc	a5,0x6
    7188:	3a478793          	addi	a5,a5,932 # d528 <__sf_fake_stdin>
    718c:	06f41b63          	bne	s0,a5,7202 <__swbuf_r+0x9a>
    7190:	40c0                	lw	s0,4(s1)
    7192:	4c1c                	lw	a5,24(s0)
    7194:	c41c                	sw	a5,8(s0)
    7196:	00c45783          	lhu	a5,12(s0) # 350000c <_data_lma+0x34f28fc>
    719a:	8ba1                	andi	a5,a5,8
    719c:	c3d9                	beqz	a5,7222 <__swbuf_r+0xba>
    719e:	481c                	lw	a5,16(s0)
    71a0:	c3c9                	beqz	a5,7222 <__swbuf_r+0xba>
    71a2:	481c                	lw	a5,16(s0)
    71a4:	4008                	lw	a0,0(s0)
    71a6:	0ff97993          	andi	s3,s2,255
    71aa:	0ff97913          	andi	s2,s2,255
    71ae:	8d1d                	sub	a0,a0,a5
    71b0:	485c                	lw	a5,20(s0)
    71b2:	00f54763          	blt	a0,a5,71c0 <__swbuf_r+0x58>
    71b6:	85a2                	mv	a1,s0
    71b8:	8526                	mv	a0,s1
    71ba:	03e010ef          	jal	ra,81f8 <_fflush_r>
    71be:	e535                	bnez	a0,722a <__swbuf_r+0xc2>
    71c0:	441c                	lw	a5,8(s0)
    71c2:	0505                	addi	a0,a0,1
    71c4:	17fd                	addi	a5,a5,-1
    71c6:	c41c                	sw	a5,8(s0)
    71c8:	401c                	lw	a5,0(s0)
    71ca:	00178713          	addi	a4,a5,1
    71ce:	c018                	sw	a4,0(s0)
    71d0:	01378023          	sb	s3,0(a5)
    71d4:	485c                	lw	a5,20(s0)
    71d6:	00a78963          	beq	a5,a0,71e8 <__swbuf_r+0x80>
    71da:	00c45783          	lhu	a5,12(s0)
    71de:	8b85                	andi	a5,a5,1
    71e0:	cb89                	beqz	a5,71f2 <__swbuf_r+0x8a>
    71e2:	47a9                	li	a5,10
    71e4:	00f91763          	bne	s2,a5,71f2 <__swbuf_r+0x8a>
    71e8:	85a2                	mv	a1,s0
    71ea:	8526                	mv	a0,s1
    71ec:	00c010ef          	jal	ra,81f8 <_fflush_r>
    71f0:	ed0d                	bnez	a0,722a <__swbuf_r+0xc2>
    71f2:	40f2                	lw	ra,28(sp)
    71f4:	4462                	lw	s0,24(sp)
    71f6:	854a                	mv	a0,s2
    71f8:	44d2                	lw	s1,20(sp)
    71fa:	4942                	lw	s2,16(sp)
    71fc:	49b2                	lw	s3,12(sp)
    71fe:	6105                	addi	sp,sp,32
    7200:	8082                	ret
    7202:	00006797          	auipc	a5,0x6
    7206:	34678793          	addi	a5,a5,838 # d548 <__sf_fake_stdout>
    720a:	00f41463          	bne	s0,a5,7212 <__swbuf_r+0xaa>
    720e:	4480                	lw	s0,8(s1)
    7210:	b749                	j	7192 <__swbuf_r+0x2a>
    7212:	00006797          	auipc	a5,0x6
    7216:	2f678793          	addi	a5,a5,758 # d508 <__sf_fake_stderr>
    721a:	f6f41ce3          	bne	s0,a5,7192 <__swbuf_r+0x2a>
    721e:	44c0                	lw	s0,12(s1)
    7220:	bf8d                	j	7192 <__swbuf_r+0x2a>
    7222:	85a2                	mv	a1,s0
    7224:	8526                	mv	a0,s1
    7226:	2025                	jal	724e <__swsetup_r>
    7228:	dd2d                	beqz	a0,71a2 <__swbuf_r+0x3a>
    722a:	597d                	li	s2,-1
    722c:	b7d9                	j	71f2 <__swbuf_r+0x8a>

0000722e <__ascii_wctomb>:
    722e:	cd91                	beqz	a1,724a <__ascii_wctomb+0x1c>
    7230:	0ff00793          	li	a5,255
    7234:	00c7f763          	bgeu	a5,a2,7242 <__ascii_wctomb+0x14>
    7238:	08a00793          	li	a5,138
    723c:	c11c                	sw	a5,0(a0)
    723e:	557d                	li	a0,-1
    7240:	8082                	ret
    7242:	00c58023          	sb	a2,0(a1) # 6b00000 <_data_lma+0x6af28f0>
    7246:	4505                	li	a0,1
    7248:	8082                	ret
    724a:	4501                	li	a0,0
    724c:	8082                	ret

0000724e <__swsetup_r>:
    724e:	1141                	addi	sp,sp,-16
    7250:	80818793          	addi	a5,gp,-2040 # 200010f0 <_impure_ptr>
    7254:	c226                	sw	s1,4(sp)
    7256:	4384                	lw	s1,0(a5)
    7258:	c422                	sw	s0,8(sp)
    725a:	c04a                	sw	s2,0(sp)
    725c:	c606                	sw	ra,12(sp)
    725e:	892a                	mv	s2,a0
    7260:	842e                	mv	s0,a1
    7262:	c491                	beqz	s1,726e <__swsetup_r+0x20>
    7264:	4c9c                	lw	a5,24(s1)
    7266:	e781                	bnez	a5,726e <__swsetup_r+0x20>
    7268:	8526                	mv	a0,s1
    726a:	0b0010ef          	jal	ra,831a <__sinit>
    726e:	00006797          	auipc	a5,0x6
    7272:	2ba78793          	addi	a5,a5,698 # d528 <__sf_fake_stdin>
    7276:	02f41c63          	bne	s0,a5,72ae <__swsetup_r+0x60>
    727a:	40c0                	lw	s0,4(s1)
    727c:	00c41703          	lh	a4,12(s0)
    7280:	01071793          	slli	a5,a4,0x10
    7284:	83c1                	srli	a5,a5,0x10
    7286:	0087f693          	andi	a3,a5,8
    728a:	eebd                	bnez	a3,7308 <__swsetup_r+0xba>
    728c:	0107f693          	andi	a3,a5,16
    7290:	ee9d                	bnez	a3,72ce <__swsetup_r+0x80>
    7292:	47a5                	li	a5,9
    7294:	00f92023          	sw	a5,0(s2)
    7298:	04076713          	ori	a4,a4,64
    729c:	00e41623          	sh	a4,12(s0)
    72a0:	557d                	li	a0,-1
    72a2:	40b2                	lw	ra,12(sp)
    72a4:	4422                	lw	s0,8(sp)
    72a6:	4492                	lw	s1,4(sp)
    72a8:	4902                	lw	s2,0(sp)
    72aa:	0141                	addi	sp,sp,16
    72ac:	8082                	ret
    72ae:	00006797          	auipc	a5,0x6
    72b2:	29a78793          	addi	a5,a5,666 # d548 <__sf_fake_stdout>
    72b6:	00f41463          	bne	s0,a5,72be <__swsetup_r+0x70>
    72ba:	4480                	lw	s0,8(s1)
    72bc:	b7c1                	j	727c <__swsetup_r+0x2e>
    72be:	00006797          	auipc	a5,0x6
    72c2:	24a78793          	addi	a5,a5,586 # d508 <__sf_fake_stderr>
    72c6:	faf41be3          	bne	s0,a5,727c <__swsetup_r+0x2e>
    72ca:	44c0                	lw	s0,12(s1)
    72cc:	bf45                	j	727c <__swsetup_r+0x2e>
    72ce:	8b91                	andi	a5,a5,4
    72d0:	c795                	beqz	a5,72fc <__swsetup_r+0xae>
    72d2:	584c                	lw	a1,52(s0)
    72d4:	c991                	beqz	a1,72e8 <__swsetup_r+0x9a>
    72d6:	04440793          	addi	a5,s0,68
    72da:	00f58563          	beq	a1,a5,72e4 <__swsetup_r+0x96>
    72de:	854a                	mv	a0,s2
    72e0:	e77fd0ef          	jal	ra,5156 <_free_r>
    72e4:	02042a23          	sw	zero,52(s0)
    72e8:	00c45783          	lhu	a5,12(s0)
    72ec:	00042223          	sw	zero,4(s0)
    72f0:	fdb7f793          	andi	a5,a5,-37
    72f4:	00f41623          	sh	a5,12(s0)
    72f8:	481c                	lw	a5,16(s0)
    72fa:	c01c                	sw	a5,0(s0)
    72fc:	00c45783          	lhu	a5,12(s0)
    7300:	0087e793          	ori	a5,a5,8
    7304:	00f41623          	sh	a5,12(s0)
    7308:	481c                	lw	a5,16(s0)
    730a:	ef89                	bnez	a5,7324 <__swsetup_r+0xd6>
    730c:	00c45783          	lhu	a5,12(s0)
    7310:	20000713          	li	a4,512
    7314:	2807f793          	andi	a5,a5,640
    7318:	00e78663          	beq	a5,a4,7324 <__swsetup_r+0xd6>
    731c:	85a2                	mv	a1,s0
    731e:	854a                	mv	a0,s2
    7320:	133010ef          	jal	ra,8c52 <__smakebuf_r>
    7324:	00c45783          	lhu	a5,12(s0)
    7328:	0017f713          	andi	a4,a5,1
    732c:	c705                	beqz	a4,7354 <__swsetup_r+0x106>
    732e:	485c                	lw	a5,20(s0)
    7330:	00042423          	sw	zero,8(s0)
    7334:	40f007b3          	neg	a5,a5
    7338:	cc1c                	sw	a5,24(s0)
    733a:	481c                	lw	a5,16(s0)
    733c:	4501                	li	a0,0
    733e:	f3b5                	bnez	a5,72a2 <__swsetup_r+0x54>
    7340:	00c41783          	lh	a5,12(s0)
    7344:	0807f713          	andi	a4,a5,128
    7348:	df29                	beqz	a4,72a2 <__swsetup_r+0x54>
    734a:	0407e793          	ori	a5,a5,64
    734e:	00f41623          	sh	a5,12(s0)
    7352:	b7b9                	j	72a0 <__swsetup_r+0x52>
    7354:	8b89                	andi	a5,a5,2
    7356:	4701                	li	a4,0
    7358:	e391                	bnez	a5,735c <__swsetup_r+0x10e>
    735a:	4858                	lw	a4,20(s0)
    735c:	c418                	sw	a4,8(s0)
    735e:	bff1                	j	733a <__swsetup_r+0xec>

00007360 <quorem>:
    7360:	1101                	addi	sp,sp,-32
    7362:	cc22                	sw	s0,24(sp)
    7364:	491c                	lw	a5,16(a0)
    7366:	4980                	lw	s0,16(a1)
    7368:	ce06                	sw	ra,28(sp)
    736a:	ca26                	sw	s1,20(sp)
    736c:	c84a                	sw	s2,16(sp)
    736e:	c64e                	sw	s3,12(sp)
    7370:	c452                	sw	s4,8(sp)
    7372:	c256                	sw	s5,4(sp)
    7374:	1287c163          	blt	a5,s0,7496 <quorem+0x136>
    7378:	147d                	addi	s0,s0,-1
    737a:	00241813          	slli	a6,s0,0x2
    737e:	01458993          	addi	s3,a1,20
    7382:	01098a33          	add	s4,s3,a6
    7386:	01450913          	addi	s2,a0,20
    738a:	984a                	add	a6,a6,s2
    738c:	000a2783          	lw	a5,0(s4)
    7390:	00082703          	lw	a4,0(a6)
    7394:	0785                	addi	a5,a5,1
    7396:	02f754b3          	divu	s1,a4,a5
    739a:	06f76663          	bltu	a4,a5,7406 <quorem+0xa6>
    739e:	68c1                	lui	a7,0x10
    73a0:	834e                	mv	t1,s3
    73a2:	8e4a                	mv	t3,s2
    73a4:	4e81                	li	t4,0
    73a6:	4f01                	li	t5,0
    73a8:	18fd                	addi	a7,a7,-1
    73aa:	0311                	addi	t1,t1,4
    73ac:	ffc32603          	lw	a2,-4(t1)
    73b0:	0e11                	addi	t3,t3,4
    73b2:	01167733          	and	a4,a2,a7
    73b6:	8241                	srli	a2,a2,0x10
    73b8:	02970733          	mul	a4,a4,s1
    73bc:	02960633          	mul	a2,a2,s1
    73c0:	9776                	add	a4,a4,t4
    73c2:	01075693          	srli	a3,a4,0x10
    73c6:	011777b3          	and	a5,a4,a7
    73ca:	40ff07b3          	sub	a5,t5,a5
    73ce:	9636                	add	a2,a2,a3
    73d0:	ffce2683          	lw	a3,-4(t3)
    73d4:	01065e93          	srli	t4,a2,0x10
    73d8:	01167633          	and	a2,a2,a7
    73dc:	0116f733          	and	a4,a3,a7
    73e0:	97ba                	add	a5,a5,a4
    73e2:	82c1                	srli	a3,a3,0x10
    73e4:	4107d713          	srai	a4,a5,0x10
    73e8:	8e91                	sub	a3,a3,a2
    73ea:	96ba                	add	a3,a3,a4
    73ec:	4106df13          	srai	t5,a3,0x10
    73f0:	0117f7b3          	and	a5,a5,a7
    73f4:	06c2                	slli	a3,a3,0x10
    73f6:	8fd5                	or	a5,a5,a3
    73f8:	fefe2e23          	sw	a5,-4(t3)
    73fc:	fa6a77e3          	bgeu	s4,t1,73aa <quorem+0x4a>
    7400:	00082783          	lw	a5,0(a6)
    7404:	cbbd                	beqz	a5,747a <quorem+0x11a>
    7406:	8aaa                	mv	s5,a0
    7408:	6b5010ef          	jal	ra,92bc <__mcmp>
    740c:	04054963          	bltz	a0,745e <quorem+0xfe>
    7410:	6641                	lui	a2,0x10
    7412:	0485                	addi	s1,s1,1
    7414:	85ca                	mv	a1,s2
    7416:	4501                	li	a0,0
    7418:	167d                	addi	a2,a2,-1
    741a:	0991                	addi	s3,s3,4
    741c:	ffc9a803          	lw	a6,-4(s3)
    7420:	4198                	lw	a4,0(a1)
    7422:	0591                	addi	a1,a1,4
    7424:	00c876b3          	and	a3,a6,a2
    7428:	8d15                	sub	a0,a0,a3
    742a:	00c776b3          	and	a3,a4,a2
    742e:	96aa                	add	a3,a3,a0
    7430:	01075793          	srli	a5,a4,0x10
    7434:	01085813          	srli	a6,a6,0x10
    7438:	4106d713          	srai	a4,a3,0x10
    743c:	410787b3          	sub	a5,a5,a6
    7440:	97ba                	add	a5,a5,a4
    7442:	4107d513          	srai	a0,a5,0x10
    7446:	8ef1                	and	a3,a3,a2
    7448:	07c2                	slli	a5,a5,0x10
    744a:	8fd5                	or	a5,a5,a3
    744c:	fef5ae23          	sw	a5,-4(a1)
    7450:	fd3a75e3          	bgeu	s4,s3,741a <quorem+0xba>
    7454:	00241793          	slli	a5,s0,0x2
    7458:	97ca                	add	a5,a5,s2
    745a:	4398                	lw	a4,0(a5)
    745c:	c71d                	beqz	a4,748a <quorem+0x12a>
    745e:	8526                	mv	a0,s1
    7460:	40f2                	lw	ra,28(sp)
    7462:	4462                	lw	s0,24(sp)
    7464:	44d2                	lw	s1,20(sp)
    7466:	4942                	lw	s2,16(sp)
    7468:	49b2                	lw	s3,12(sp)
    746a:	4a22                	lw	s4,8(sp)
    746c:	4a92                	lw	s5,4(sp)
    746e:	6105                	addi	sp,sp,32
    7470:	8082                	ret
    7472:	00082783          	lw	a5,0(a6)
    7476:	e789                	bnez	a5,7480 <quorem+0x120>
    7478:	147d                	addi	s0,s0,-1
    747a:	1871                	addi	a6,a6,-4
    747c:	ff096be3          	bltu	s2,a6,7472 <quorem+0x112>
    7480:	c900                	sw	s0,16(a0)
    7482:	b751                	j	7406 <quorem+0xa6>
    7484:	4398                	lw	a4,0(a5)
    7486:	e709                	bnez	a4,7490 <quorem+0x130>
    7488:	147d                	addi	s0,s0,-1
    748a:	17f1                	addi	a5,a5,-4
    748c:	fef96ce3          	bltu	s2,a5,7484 <quorem+0x124>
    7490:	008aa823          	sw	s0,16(s5)
    7494:	b7e9                	j	745e <quorem+0xfe>
    7496:	4501                	li	a0,0
    7498:	b7e1                	j	7460 <quorem+0x100>

0000749a <_dtoa_r>:
    749a:	7175                	addi	sp,sp,-144
    749c:	d83e                	sw	a5,48(sp)
    749e:	515c                	lw	a5,36(a0)
    74a0:	c522                	sw	s0,136(sp)
    74a2:	c326                	sw	s1,132(sp)
    74a4:	c14a                	sw	s2,128(sp)
    74a6:	dece                	sw	s3,124(sp)
    74a8:	dcd2                	sw	s4,120(sp)
    74aa:	d4e2                	sw	s8,104(sp)
    74ac:	c706                	sw	ra,140(sp)
    74ae:	dad6                	sw	s5,116(sp)
    74b0:	d8da                	sw	s6,112(sp)
    74b2:	d6de                	sw	s7,108(sp)
    74b4:	d2e6                	sw	s9,100(sp)
    74b6:	d0ea                	sw	s10,96(sp)
    74b8:	ceee                	sw	s11,92(sp)
    74ba:	c236                	sw	a3,4(sp)
    74bc:	c63a                	sw	a4,12(sp)
    74be:	ca46                	sw	a7,20(sp)
    74c0:	84aa                	mv	s1,a0
    74c2:	842e                	mv	s0,a1
    74c4:	8932                	mv	s2,a2
    74c6:	89c2                	mv	s3,a6
    74c8:	8a2e                	mv	s4,a1
    74ca:	8c32                	mv	s8,a2
    74cc:	ef89                	bnez	a5,74e6 <_dtoa_r+0x4c>
    74ce:	4541                	li	a0,16
    74d0:	b67fd0ef          	jal	ra,5036 <malloc>
    74d4:	d0c8                	sw	a0,36(s1)
    74d6:	00052223          	sw	zero,4(a0)
    74da:	00052423          	sw	zero,8(a0)
    74de:	00052023          	sw	zero,0(a0)
    74e2:	00052623          	sw	zero,12(a0)
    74e6:	50dc                	lw	a5,36(s1)
    74e8:	438c                	lw	a1,0(a5)
    74ea:	cd89                	beqz	a1,7504 <_dtoa_r+0x6a>
    74ec:	43d8                	lw	a4,4(a5)
    74ee:	4785                	li	a5,1
    74f0:	8526                	mv	a0,s1
    74f2:	00e797b3          	sll	a5,a5,a4
    74f6:	c59c                	sw	a5,8(a1)
    74f8:	c1d8                	sw	a4,4(a1)
    74fa:	0a5010ef          	jal	ra,8d9e <_Bfree>
    74fe:	50dc                	lw	a5,36(s1)
    7500:	0007a023          	sw	zero,0(a5)
    7504:	04095363          	bgez	s2,754a <_dtoa_r+0xb0>
    7508:	4785                	li	a5,1
    750a:	00191c13          	slli	s8,s2,0x1
    750e:	00f9a023          	sw	a5,0(s3)
    7512:	001c5c13          	srli	s8,s8,0x1
    7516:	7ff007b7          	lui	a5,0x7ff00
    751a:	00fc7733          	and	a4,s8,a5
    751e:	06f71463          	bne	a4,a5,7586 <_dtoa_r+0xec>
    7522:	5742                	lw	a4,48(sp)
    7524:	6789                	lui	a5,0x2
    7526:	0c32                	slli	s8,s8,0xc
    7528:	70f78793          	addi	a5,a5,1807 # 270f <modbusParseRequest1516+0x147>
    752c:	00cc5c13          	srli	s8,s8,0xc
    7530:	c31c                	sw	a5,0(a4)
    7532:	008c6c33          	or	s8,s8,s0
    7536:	320c05e3          	beqz	s8,8060 <_dtoa_r+0xbc6>
    753a:	47d2                	lw	a5,20(sp)
    753c:	eb91                	bnez	a5,7550 <_dtoa_r+0xb6>
    753e:	00006797          	auipc	a5,0x6
    7542:	fc678793          	addi	a5,a5,-58 # d504 <_ctype_+0x14c>
    7546:	c03e                	sw	a5,0(sp)
    7548:	a839                	j	7566 <_dtoa_r+0xcc>
    754a:	0009a023          	sw	zero,0(s3)
    754e:	b7e1                	j	7516 <_dtoa_r+0x7c>
    7550:	00006797          	auipc	a5,0x6
    7554:	fb478793          	addi	a5,a5,-76 # d504 <_ctype_+0x14c>
    7558:	c03e                	sw	a5,0(sp)
    755a:	00006797          	auipc	a5,0x6
    755e:	fad78793          	addi	a5,a5,-83 # d507 <_ctype_+0x14f>
    7562:	4752                	lw	a4,20(sp)
    7564:	c31c                	sw	a5,0(a4)
    7566:	40ba                	lw	ra,140(sp)
    7568:	442a                	lw	s0,136(sp)
    756a:	4502                	lw	a0,0(sp)
    756c:	449a                	lw	s1,132(sp)
    756e:	490a                	lw	s2,128(sp)
    7570:	59f6                	lw	s3,124(sp)
    7572:	5a66                	lw	s4,120(sp)
    7574:	5ad6                	lw	s5,116(sp)
    7576:	5b46                	lw	s6,112(sp)
    7578:	5bb6                	lw	s7,108(sp)
    757a:	5c26                	lw	s8,104(sp)
    757c:	5c96                	lw	s9,100(sp)
    757e:	5d06                	lw	s10,96(sp)
    7580:	4df6                	lw	s11,92(sp)
    7582:	6149                	addi	sp,sp,144
    7584:	8082                	ret
    7586:	4601                	li	a2,0
    7588:	4681                	li	a3,0
    758a:	8522                	mv	a0,s0
    758c:	85e2                	mv	a1,s8
    758e:	ce22                	sw	s0,28(sp)
    7590:	d462                	sw	s8,40(sp)
    7592:	70e030ef          	jal	ra,aca0 <__eqdf2>
    7596:	e105                	bnez	a0,75b6 <_dtoa_r+0x11c>
    7598:	5742                	lw	a4,48(sp)
    759a:	4785                	li	a5,1
    759c:	c31c                	sw	a5,0(a4)
    759e:	00006797          	auipc	a5,0x6
    75a2:	d3278793          	addi	a5,a5,-718 # d2d0 <__clz_tab+0x12c>
    75a6:	c03e                	sw	a5,0(sp)
    75a8:	47d2                	lw	a5,20(sp)
    75aa:	dfd5                	beqz	a5,7566 <_dtoa_r+0xcc>
    75ac:	00006797          	auipc	a5,0x6
    75b0:	d2578793          	addi	a5,a5,-731 # d2d1 <__clz_tab+0x12d>
    75b4:	b77d                	j	7562 <_dtoa_r+0xc8>
    75b6:	00b8                	addi	a4,sp,72
    75b8:	00f4                	addi	a3,sp,76
    75ba:	8662                	mv	a2,s8
    75bc:	85a2                	mv	a1,s0
    75be:	8526                	mv	a0,s1
    75c0:	014c5913          	srli	s2,s8,0x14
    75c4:	717010ef          	jal	ra,94da <__d2b>
    75c8:	7ff97913          	andi	s2,s2,2047
    75cc:	89aa                	mv	s3,a0
    75ce:	4aa6                	lw	s5,72(sp)
    75d0:	10090d63          	beqz	s2,76ea <_dtoa_r+0x250>
    75d4:	57a2                	lw	a5,40(sp)
    75d6:	4572                	lw	a0,28(sp)
    75d8:	c0190913          	addi	s2,s2,-1023
    75dc:	00c79593          	slli	a1,a5,0xc
    75e0:	81b1                	srli	a1,a1,0xc
    75e2:	3ff007b7          	lui	a5,0x3ff00
    75e6:	8ddd                	or	a1,a1,a5
    75e8:	dc02                	sw	zero,56(sp)
    75ea:	00006797          	auipc	a5,0x6
    75ee:	ed678793          	addi	a5,a5,-298 # d4c0 <_ctype_+0x108>
    75f2:	4390                	lw	a2,0(a5)
    75f4:	43d4                	lw	a3,4(a5)
    75f6:	531030ef          	jal	ra,b326 <__subdf3>
    75fa:	00006797          	auipc	a5,0x6
    75fe:	ece78793          	addi	a5,a5,-306 # d4c8 <_ctype_+0x110>
    7602:	4390                	lw	a2,0(a5)
    7604:	43d4                	lw	a3,4(a5)
    7606:	069030ef          	jal	ra,ae6e <__muldf3>
    760a:	00006797          	auipc	a5,0x6
    760e:	ec678793          	addi	a5,a5,-314 # d4d0 <_ctype_+0x118>
    7612:	4390                	lw	a2,0(a5)
    7614:	43d4                	lw	a3,4(a5)
    7616:	1a7020ef          	jal	ra,9fbc <__adddf3>
    761a:	8b2a                	mv	s6,a0
    761c:	854a                	mv	a0,s2
    761e:	8bae                	mv	s7,a1
    7620:	544040ef          	jal	ra,bb64 <__floatsidf>
    7624:	00006797          	auipc	a5,0x6
    7628:	eb478793          	addi	a5,a5,-332 # d4d8 <_ctype_+0x120>
    762c:	4390                	lw	a2,0(a5)
    762e:	43d4                	lw	a3,4(a5)
    7630:	03f030ef          	jal	ra,ae6e <__muldf3>
    7634:	862a                	mv	a2,a0
    7636:	86ae                	mv	a3,a1
    7638:	855a                	mv	a0,s6
    763a:	85de                	mv	a1,s7
    763c:	181020ef          	jal	ra,9fbc <__adddf3>
    7640:	8b2a                	mv	s6,a0
    7642:	8bae                	mv	s7,a1
    7644:	45c040ef          	jal	ra,baa0 <__fixdfsi>
    7648:	842a                	mv	s0,a0
    764a:	4601                	li	a2,0
    764c:	4681                	li	a3,0
    764e:	855a                	mv	a0,s6
    7650:	85de                	mv	a1,s7
    7652:	766030ef          	jal	ra,adb8 <__ledf2>
    7656:	00055b63          	bgez	a0,766c <_dtoa_r+0x1d2>
    765a:	8522                	mv	a0,s0
    765c:	508040ef          	jal	ra,bb64 <__floatsidf>
    7660:	865a                	mv	a2,s6
    7662:	86de                	mv	a3,s7
    7664:	63c030ef          	jal	ra,aca0 <__eqdf2>
    7668:	c111                	beqz	a0,766c <_dtoa_r+0x1d2>
    766a:	147d                	addi	s0,s0,-1
    766c:	4705                	li	a4,1
    766e:	47d9                	li	a5,22
    7670:	d63a                	sw	a4,44(sp)
    7672:	0287e363          	bltu	a5,s0,7698 <_dtoa_r+0x1fe>
    7676:	00341713          	slli	a4,s0,0x3
    767a:	00006797          	auipc	a5,0x6
    767e:	f1678793          	addi	a5,a5,-234 # d590 <__mprec_tens>
    7682:	97ba                	add	a5,a5,a4
    7684:	4390                	lw	a2,0(a5)
    7686:	43d4                	lw	a3,4(a5)
    7688:	4572                	lw	a0,28(sp)
    768a:	55a2                	lw	a1,40(sp)
    768c:	72c030ef          	jal	ra,adb8 <__ledf2>
    7690:	00055363          	bgez	a0,7696 <_dtoa_r+0x1fc>
    7694:	147d                	addi	s0,s0,-1
    7696:	d602                	sw	zero,44(sp)
    7698:	412a8933          	sub	s2,s5,s2
    769c:	fff90b93          	addi	s7,s2,-1
    76a0:	4b01                	li	s6,0
    76a2:	000bd663          	bgez	s7,76ae <_dtoa_r+0x214>
    76a6:	4b05                	li	s6,1
    76a8:	412b0b33          	sub	s6,s6,s2
    76ac:	4b81                	li	s7,0
    76ae:	06044e63          	bltz	s0,772a <_dtoa_r+0x290>
    76b2:	9ba2                	add	s7,s7,s0
    76b4:	cc22                	sw	s0,24(sp)
    76b6:	4a81                	li	s5,0
    76b8:	4712                	lw	a4,4(sp)
    76ba:	47a5                	li	a5,9
    76bc:	14e7e563          	bltu	a5,a4,7806 <_dtoa_r+0x36c>
    76c0:	4795                	li	a5,5
    76c2:	4c85                	li	s9,1
    76c4:	00e7d663          	bge	a5,a4,76d0 <_dtoa_r+0x236>
    76c8:	ffc70793          	addi	a5,a4,-4
    76cc:	c23e                	sw	a5,4(sp)
    76ce:	4c81                	li	s9,0
    76d0:	4712                	lw	a4,4(sp)
    76d2:	478d                	li	a5,3
    76d4:	10f70e63          	beq	a4,a5,77f0 <_dtoa_r+0x356>
    76d8:	04e7cf63          	blt	a5,a4,7736 <_dtoa_r+0x29c>
    76dc:	4789                	li	a5,2
    76de:	c802                	sw	zero,16(sp)
    76e0:	06f70d63          	beq	a4,a5,775a <_dtoa_r+0x2c0>
    76e4:	4785                	li	a5,1
    76e6:	c83e                	sw	a5,16(sp)
    76e8:	a08d                	j	774a <_dtoa_r+0x2b0>
    76ea:	4936                	lw	s2,76(sp)
    76ec:	02000793          	li	a5,32
    76f0:	9956                	add	s2,s2,s5
    76f2:	43290713          	addi	a4,s2,1074
    76f6:	02e7d563          	bge	a5,a4,7720 <_dtoa_r+0x286>
    76fa:	04000513          	li	a0,64
    76fe:	8d19                	sub	a0,a0,a4
    7700:	41290793          	addi	a5,s2,1042
    7704:	00ac1533          	sll	a0,s8,a0
    7708:	00f45433          	srl	s0,s0,a5
    770c:	8d41                	or	a0,a0,s0
    770e:	4c6040ef          	jal	ra,bbd4 <__floatunsidf>
    7712:	fe1007b7          	lui	a5,0xfe100
    7716:	95be                	add	a1,a1,a5
    7718:	4785                	li	a5,1
    771a:	197d                	addi	s2,s2,-1
    771c:	dc3e                	sw	a5,56(sp)
    771e:	b5f1                	j	75ea <_dtoa_r+0x150>
    7720:	40e78533          	sub	a0,a5,a4
    7724:	00a41533          	sll	a0,s0,a0
    7728:	b7dd                	j	770e <_dtoa_r+0x274>
    772a:	408b0b33          	sub	s6,s6,s0
    772e:	40800ab3          	neg	s5,s0
    7732:	cc02                	sw	zero,24(sp)
    7734:	b751                	j	76b8 <_dtoa_r+0x21e>
    7736:	4712                	lw	a4,4(sp)
    7738:	4791                	li	a5,4
    773a:	00f70e63          	beq	a4,a5,7756 <_dtoa_r+0x2bc>
    773e:	4705                	li	a4,1
    7740:	c83a                	sw	a4,16(sp)
    7742:	4712                	lw	a4,4(sp)
    7744:	4795                	li	a5,5
    7746:	0af70663          	beq	a4,a5,77f2 <_dtoa_r+0x358>
    774a:	57fd                	li	a5,-1
    774c:	c43e                	sw	a5,8(sp)
    774e:	5dfd                	li	s11,-1
    7750:	47c9                	li	a5,18
    7752:	c602                	sw	zero,12(sp)
    7754:	a819                	j	776a <_dtoa_r+0x2d0>
    7756:	4785                	li	a5,1
    7758:	c83e                	sw	a5,16(sp)
    775a:	47b2                	lw	a5,12(sp)
    775c:	0af04863          	bgtz	a5,780c <_dtoa_r+0x372>
    7760:	4785                	li	a5,1
    7762:	4705                	li	a4,1
    7764:	c43e                	sw	a5,8(sp)
    7766:	4d85                	li	s11,1
    7768:	c63a                	sw	a4,12(sp)
    776a:	0244a903          	lw	s2,36(s1)
    776e:	4711                	li	a4,4
    7770:	00092223          	sw	zero,4(s2)
    7774:	01470693          	addi	a3,a4,20
    7778:	00492583          	lw	a1,4(s2)
    777c:	08d7fc63          	bgeu	a5,a3,7814 <_dtoa_r+0x37a>
    7780:	8526                	mv	a0,s1
    7782:	590010ef          	jal	ra,8d12 <_Balloc>
    7786:	50dc                	lw	a5,36(s1)
    7788:	00a92023          	sw	a0,0(s2)
    778c:	439c                	lw	a5,0(a5)
    778e:	c03e                	sw	a5,0(sp)
    7790:	47b9                	li	a5,14
    7792:	1db7e663          	bltu	a5,s11,795e <_dtoa_r+0x4c4>
    7796:	1c0c8463          	beqz	s9,795e <_dtoa_r+0x4c4>
    779a:	0a805e63          	blez	s0,7856 <_dtoa_r+0x3bc>
    779e:	00f47793          	andi	a5,s0,15
    77a2:	00379713          	slli	a4,a5,0x3
    77a6:	40445c93          	srai	s9,s0,0x4
    77aa:	00006797          	auipc	a5,0x6
    77ae:	de678793          	addi	a5,a5,-538 # d590 <__mprec_tens>
    77b2:	97ba                	add	a5,a5,a4
    77b4:	010cf693          	andi	a3,s9,16
    77b8:	4398                	lw	a4,0(a5)
    77ba:	4909                	li	s2,2
    77bc:	43dc                	lw	a5,4(a5)
    77be:	c685                	beqz	a3,77e6 <_dtoa_r+0x34c>
    77c0:	00006697          	auipc	a3,0x6
    77c4:	da868693          	addi	a3,a3,-600 # d568 <__mprec_bigtens>
    77c8:	5290                	lw	a2,32(a3)
    77ca:	4572                	lw	a0,28(sp)
    77cc:	52d4                	lw	a3,36(a3)
    77ce:	55a2                	lw	a1,40(sp)
    77d0:	d03a                	sw	a4,32(sp)
    77d2:	d23e                	sw	a5,36(sp)
    77d4:	719020ef          	jal	ra,a6ec <__divdf3>
    77d8:	5702                	lw	a4,32(sp)
    77da:	5792                	lw	a5,36(sp)
    77dc:	00fcfc93          	andi	s9,s9,15
    77e0:	8a2a                	mv	s4,a0
    77e2:	8c2e                	mv	s8,a1
    77e4:	490d                	li	s2,3
    77e6:	00006d17          	auipc	s10,0x6
    77ea:	d82d0d13          	addi	s10,s10,-638 # d568 <__mprec_bigtens>
    77ee:	a889                	j	7840 <_dtoa_r+0x3a6>
    77f0:	c802                	sw	zero,16(sp)
    77f2:	47b2                	lw	a5,12(sp)
    77f4:	97a2                	add	a5,a5,s0
    77f6:	c43e                	sw	a5,8(sp)
    77f8:	00178d93          	addi	s11,a5,1
    77fc:	87ee                	mv	a5,s11
    77fe:	f7b046e3          	bgtz	s11,776a <_dtoa_r+0x2d0>
    7802:	4785                	li	a5,1
    7804:	b79d                	j	776a <_dtoa_r+0x2d0>
    7806:	4c85                	li	s9,1
    7808:	c202                	sw	zero,4(sp)
    780a:	bde9                	j	76e4 <_dtoa_r+0x24a>
    780c:	47b2                	lw	a5,12(sp)
    780e:	c43e                	sw	a5,8(sp)
    7810:	8dbe                	mv	s11,a5
    7812:	bfa1                	j	776a <_dtoa_r+0x2d0>
    7814:	0585                	addi	a1,a1,1
    7816:	00b92223          	sw	a1,4(s2)
    781a:	0706                	slli	a4,a4,0x1
    781c:	bfa1                	j	7774 <_dtoa_r+0x2da>
    781e:	001cf693          	andi	a3,s9,1
    7822:	ce81                	beqz	a3,783a <_dtoa_r+0x3a0>
    7824:	000d2603          	lw	a2,0(s10)
    7828:	004d2683          	lw	a3,4(s10)
    782c:	853a                	mv	a0,a4
    782e:	85be                	mv	a1,a5
    7830:	63e030ef          	jal	ra,ae6e <__muldf3>
    7834:	0905                	addi	s2,s2,1
    7836:	872a                	mv	a4,a0
    7838:	87ae                	mv	a5,a1
    783a:	401cdc93          	srai	s9,s9,0x1
    783e:	0d21                	addi	s10,s10,8
    7840:	fc0c9fe3          	bnez	s9,781e <_dtoa_r+0x384>
    7844:	863a                	mv	a2,a4
    7846:	86be                	mv	a3,a5
    7848:	8552                	mv	a0,s4
    784a:	85e2                	mv	a1,s8
    784c:	6a1020ef          	jal	ra,a6ec <__divdf3>
    7850:	8a2a                	mv	s4,a0
    7852:	8c2e                	mv	s8,a1
    7854:	a081                	j	7894 <_dtoa_r+0x3fa>
    7856:	4909                	li	s2,2
    7858:	cc15                	beqz	s0,7894 <_dtoa_r+0x3fa>
    785a:	40800cb3          	neg	s9,s0
    785e:	00fcf793          	andi	a5,s9,15
    7862:	00379713          	slli	a4,a5,0x3
    7866:	00006797          	auipc	a5,0x6
    786a:	d2a78793          	addi	a5,a5,-726 # d590 <__mprec_tens>
    786e:	97ba                	add	a5,a5,a4
    7870:	4390                	lw	a2,0(a5)
    7872:	43d4                	lw	a3,4(a5)
    7874:	4572                	lw	a0,28(sp)
    7876:	55a2                	lw	a1,40(sp)
    7878:	404cdc93          	srai	s9,s9,0x4
    787c:	00006d17          	auipc	s10,0x6
    7880:	cecd0d13          	addi	s10,s10,-788 # d568 <__mprec_bigtens>
    7884:	5ea030ef          	jal	ra,ae6e <__muldf3>
    7888:	8a2a                	mv	s4,a0
    788a:	8c2e                	mv	s8,a1
    788c:	4781                	li	a5,0
    788e:	120c9c63          	bnez	s9,79c6 <_dtoa_r+0x52c>
    7892:	ffdd                	bnez	a5,7850 <_dtoa_r+0x3b6>
    7894:	57b2                	lw	a5,44(sp)
    7896:	14078763          	beqz	a5,79e4 <_dtoa_r+0x54a>
    789a:	00006717          	auipc	a4,0x6
    789e:	a8e70713          	addi	a4,a4,-1394 # d328 <__clz_tab+0x184>
    78a2:	4310                	lw	a2,0(a4)
    78a4:	4354                	lw	a3,4(a4)
    78a6:	8552                	mv	a0,s4
    78a8:	85e2                	mv	a1,s8
    78aa:	d052                	sw	s4,32(sp)
    78ac:	50c030ef          	jal	ra,adb8 <__ledf2>
    78b0:	12055a63          	bgez	a0,79e4 <_dtoa_r+0x54a>
    78b4:	120d8b63          	beqz	s11,79ea <_dtoa_r+0x550>
    78b8:	47a2                	lw	a5,8(sp)
    78ba:	0af05063          	blez	a5,795a <_dtoa_r+0x4c0>
    78be:	00006717          	auipc	a4,0x6
    78c2:	c2270713          	addi	a4,a4,-990 # d4e0 <_ctype_+0x128>
    78c6:	5782                	lw	a5,32(sp)
    78c8:	4310                	lw	a2,0(a4)
    78ca:	4354                	lw	a3,4(a4)
    78cc:	853e                	mv	a0,a5
    78ce:	85e2                	mv	a1,s8
    78d0:	59e030ef          	jal	ra,ae6e <__muldf3>
    78d4:	47a2                	lw	a5,8(sp)
    78d6:	fff40d13          	addi	s10,s0,-1
    78da:	8a2a                	mv	s4,a0
    78dc:	8c2e                	mv	s8,a1
    78de:	0905                	addi	s2,s2,1
    78e0:	8762                	mv	a4,s8
    78e2:	854a                	mv	a0,s2
    78e4:	de3e                	sw	a5,60(sp)
    78e6:	da52                	sw	s4,52(sp)
    78e8:	8cba                	mv	s9,a4
    78ea:	d03a                	sw	a4,32(sp)
    78ec:	278040ef          	jal	ra,bb64 <__floatsidf>
    78f0:	5852                	lw	a6,52(sp)
    78f2:	5702                	lw	a4,32(sp)
    78f4:	fcc00937          	lui	s2,0xfcc00
    78f8:	8642                	mv	a2,a6
    78fa:	86ba                	mv	a3,a4
    78fc:	572030ef          	jal	ra,ae6e <__muldf3>
    7900:	00006697          	auipc	a3,0x6
    7904:	be868693          	addi	a3,a3,-1048 # d4e8 <_ctype_+0x130>
    7908:	4290                	lw	a2,0(a3)
    790a:	42d4                	lw	a3,4(a3)
    790c:	8c52                	mv	s8,s4
    790e:	6ae020ef          	jal	ra,9fbc <__adddf3>
    7912:	57f2                	lw	a5,60(sp)
    7914:	8a2a                	mv	s4,a0
    7916:	992e                	add	s2,s2,a1
    7918:	efe1                	bnez	a5,79f0 <_dtoa_r+0x556>
    791a:	00006797          	auipc	a5,0x6
    791e:	bd678793          	addi	a5,a5,-1066 # d4f0 <_ctype_+0x138>
    7922:	5852                	lw	a6,52(sp)
    7924:	5702                	lw	a4,32(sp)
    7926:	4390                	lw	a2,0(a5)
    7928:	43d4                	lw	a3,4(a5)
    792a:	8542                	mv	a0,a6
    792c:	85ba                	mv	a1,a4
    792e:	1f9030ef          	jal	ra,b326 <__subdf3>
    7932:	8652                	mv	a2,s4
    7934:	86ca                	mv	a3,s2
    7936:	8c2a                	mv	s8,a0
    7938:	8cae                	mv	s9,a1
    793a:	3d0030ef          	jal	ra,ad0a <__gedf2>
    793e:	54a04a63          	bgtz	a0,7e92 <_dtoa_r+0x9f8>
    7942:	800007b7          	lui	a5,0x80000
    7946:	0127c7b3          	xor	a5,a5,s2
    794a:	8652                	mv	a2,s4
    794c:	86be                	mv	a3,a5
    794e:	8562                	mv	a0,s8
    7950:	85e6                	mv	a1,s9
    7952:	466030ef          	jal	ra,adb8 <__ledf2>
    7956:	52054b63          	bltz	a0,7e8c <_dtoa_r+0x9f2>
    795a:	4a72                	lw	s4,28(sp)
    795c:	5c22                	lw	s8,40(sp)
    795e:	47b6                	lw	a5,76(sp)
    7960:	3007c763          	bltz	a5,7c6e <_dtoa_r+0x7d4>
    7964:	4739                	li	a4,14
    7966:	30874463          	blt	a4,s0,7c6e <_dtoa_r+0x7d4>
    796a:	00341713          	slli	a4,s0,0x3
    796e:	00006797          	auipc	a5,0x6
    7972:	c2278793          	addi	a5,a5,-990 # d590 <__mprec_tens>
    7976:	97ba                	add	a5,a5,a4
    7978:	0007ab03          	lw	s6,0(a5)
    797c:	0047ab83          	lw	s7,4(a5)
    7980:	47b2                	lw	a5,12(sp)
    7982:	2007d263          	bgez	a5,7b86 <_dtoa_r+0x6ec>
    7986:	21b04063          	bgtz	s11,7b86 <_dtoa_r+0x6ec>
    798a:	500d9163          	bnez	s11,7e8c <_dtoa_r+0x9f2>
    798e:	00006797          	auipc	a5,0x6
    7992:	b6278793          	addi	a5,a5,-1182 # d4f0 <_ctype_+0x138>
    7996:	4390                	lw	a2,0(a5)
    7998:	43d4                	lw	a3,4(a5)
    799a:	855a                	mv	a0,s6
    799c:	85de                	mv	a1,s7
    799e:	4d0030ef          	jal	ra,ae6e <__muldf3>
    79a2:	8652                	mv	a2,s4
    79a4:	86e2                	mv	a3,s8
    79a6:	364030ef          	jal	ra,ad0a <__gedf2>
    79aa:	4a81                	li	s5,0
    79ac:	4901                	li	s2,0
    79ae:	4a055763          	bgez	a0,7e5c <_dtoa_r+0x9c2>
    79b2:	4782                	lw	a5,0(sp)
    79b4:	4702                	lw	a4,0(sp)
    79b6:	0405                	addi	s0,s0,1
    79b8:	00178a13          	addi	s4,a5,1
    79bc:	03100793          	li	a5,49
    79c0:	00f70023          	sb	a5,0(a4)
    79c4:	a145                	j	7e64 <_dtoa_r+0x9ca>
    79c6:	001cf713          	andi	a4,s9,1
    79ca:	cb09                	beqz	a4,79dc <_dtoa_r+0x542>
    79cc:	000d2603          	lw	a2,0(s10)
    79d0:	004d2683          	lw	a3,4(s10)
    79d4:	0905                	addi	s2,s2,1
    79d6:	498030ef          	jal	ra,ae6e <__muldf3>
    79da:	4785                	li	a5,1
    79dc:	401cdc93          	srai	s9,s9,0x1
    79e0:	0d21                	addi	s10,s10,8
    79e2:	b575                	j	788e <_dtoa_r+0x3f4>
    79e4:	8d22                	mv	s10,s0
    79e6:	87ee                	mv	a5,s11
    79e8:	bde5                	j	78e0 <_dtoa_r+0x446>
    79ea:	8d22                	mv	s10,s0
    79ec:	4781                	li	a5,0
    79ee:	bdcd                	j	78e0 <_dtoa_r+0x446>
    79f0:	fff78693          	addi	a3,a5,-1
    79f4:	00369613          	slli	a2,a3,0x3
    79f8:	00006697          	auipc	a3,0x6
    79fc:	b9868693          	addi	a3,a3,-1128 # d590 <__mprec_tens>
    7a00:	96b2                	add	a3,a3,a2
    7a02:	4288                	lw	a0,0(a3)
    7a04:	42cc                	lw	a1,4(a3)
    7a06:	4682                	lw	a3,0(sp)
    7a08:	97b6                	add	a5,a5,a3
    7a0a:	da3e                	sw	a5,52(sp)
    7a0c:	47c2                	lw	a5,16(sp)
    7a0e:	c3e9                	beqz	a5,7ad0 <_dtoa_r+0x636>
    7a10:	00006797          	auipc	a5,0x6
    7a14:	91078793          	addi	a5,a5,-1776 # d320 <__clz_tab+0x17c>
    7a18:	862a                	mv	a2,a0
    7a1a:	86ae                	mv	a3,a1
    7a1c:	4388                	lw	a0,0(a5)
    7a1e:	43cc                	lw	a1,4(a5)
    7a20:	de4a                	sw	s2,60(sp)
    7a22:	d052                	sw	s4,32(sp)
    7a24:	4c9020ef          	jal	ra,a6ec <__divdf3>
    7a28:	5802                	lw	a6,32(sp)
    7a2a:	5772                	lw	a4,60(sp)
    7a2c:	00006917          	auipc	s2,0x6
    7a30:	ab490913          	addi	s2,s2,-1356 # d4e0 <_ctype_+0x128>
    7a34:	8642                	mv	a2,a6
    7a36:	86ba                	mv	a3,a4
    7a38:	0ef030ef          	jal	ra,b326 <__subdf3>
    7a3c:	4a02                	lw	s4,0(sp)
    7a3e:	d02a                	sw	a0,32(sp)
    7a40:	d22e                	sw	a1,36(sp)
    7a42:	85e6                	mv	a1,s9
    7a44:	8562                	mv	a0,s8
    7a46:	05a040ef          	jal	ra,baa0 <__fixdfsi>
    7a4a:	de2a                	sw	a0,60(sp)
    7a4c:	118040ef          	jal	ra,bb64 <__floatsidf>
    7a50:	862a                	mv	a2,a0
    7a52:	86ae                	mv	a3,a1
    7a54:	8562                	mv	a0,s8
    7a56:	85e6                	mv	a1,s9
    7a58:	0cf030ef          	jal	ra,b326 <__subdf3>
    7a5c:	57f2                	lw	a5,60(sp)
    7a5e:	8c2a                	mv	s8,a0
    7a60:	8cae                	mv	s9,a1
    7a62:	862a                	mv	a2,a0
    7a64:	86ae                	mv	a3,a1
    7a66:	5502                	lw	a0,32(sp)
    7a68:	5592                	lw	a1,36(sp)
    7a6a:	0a05                	addi	s4,s4,1
    7a6c:	03078793          	addi	a5,a5,48
    7a70:	fefa0fa3          	sb	a5,-1(s4)
    7a74:	296030ef          	jal	ra,ad0a <__gedf2>
    7a78:	0ea04863          	bgtz	a0,7b68 <_dtoa_r+0x6ce>
    7a7c:	00006797          	auipc	a5,0x6
    7a80:	8ac78793          	addi	a5,a5,-1876 # d328 <__clz_tab+0x184>
    7a84:	4388                	lw	a0,0(a5)
    7a86:	43cc                	lw	a1,4(a5)
    7a88:	8662                	mv	a2,s8
    7a8a:	86e6                	mv	a3,s9
    7a8c:	09b030ef          	jal	ra,b326 <__subdf3>
    7a90:	862a                	mv	a2,a0
    7a92:	86ae                	mv	a3,a1
    7a94:	5502                	lw	a0,32(sp)
    7a96:	5592                	lw	a1,36(sp)
    7a98:	272030ef          	jal	ra,ad0a <__gedf2>
    7a9c:	18a04263          	bgtz	a0,7c20 <_dtoa_r+0x786>
    7aa0:	57d2                	lw	a5,52(sp)
    7aa2:	eafa0ce3          	beq	s4,a5,795a <_dtoa_r+0x4c0>
    7aa6:	00092603          	lw	a2,0(s2)
    7aaa:	00492683          	lw	a3,4(s2)
    7aae:	5502                	lw	a0,32(sp)
    7ab0:	5592                	lw	a1,36(sp)
    7ab2:	3bc030ef          	jal	ra,ae6e <__muldf3>
    7ab6:	00092603          	lw	a2,0(s2)
    7aba:	00492683          	lw	a3,4(s2)
    7abe:	d02a                	sw	a0,32(sp)
    7ac0:	d22e                	sw	a1,36(sp)
    7ac2:	8562                	mv	a0,s8
    7ac4:	85e6                	mv	a1,s9
    7ac6:	3a8030ef          	jal	ra,ae6e <__muldf3>
    7aca:	8c2a                	mv	s8,a0
    7acc:	8cae                	mv	s9,a1
    7ace:	bf95                	j	7a42 <_dtoa_r+0x5a8>
    7ad0:	8652                	mv	a2,s4
    7ad2:	86ca                	mv	a3,s2
    7ad4:	39a030ef          	jal	ra,ae6e <__muldf3>
    7ad8:	5a52                	lw	s4,52(sp)
    7ada:	4902                	lw	s2,0(sp)
    7adc:	d02a                	sw	a0,32(sp)
    7ade:	d22e                	sw	a1,36(sp)
    7ae0:	85e6                	mv	a1,s9
    7ae2:	8562                	mv	a0,s8
    7ae4:	7bd030ef          	jal	ra,baa0 <__fixdfsi>
    7ae8:	de2a                	sw	a0,60(sp)
    7aea:	07a040ef          	jal	ra,bb64 <__floatsidf>
    7aee:	862a                	mv	a2,a0
    7af0:	86ae                	mv	a3,a1
    7af2:	8562                	mv	a0,s8
    7af4:	85e6                	mv	a1,s9
    7af6:	031030ef          	jal	ra,b326 <__subdf3>
    7afa:	5772                	lw	a4,60(sp)
    7afc:	57d2                	lw	a5,52(sp)
    7afe:	0905                	addi	s2,s2,1
    7b00:	03070713          	addi	a4,a4,48
    7b04:	fee90fa3          	sb	a4,-1(s2)
    7b08:	8c2a                	mv	s8,a0
    7b0a:	8cae                	mv	s9,a1
    7b0c:	06f91263          	bne	s2,a5,7b70 <_dtoa_r+0x6d6>
    7b10:	00006917          	auipc	s2,0x6
    7b14:	81090913          	addi	s2,s2,-2032 # d320 <__clz_tab+0x17c>
    7b18:	00092603          	lw	a2,0(s2)
    7b1c:	00492683          	lw	a3,4(s2)
    7b20:	5502                	lw	a0,32(sp)
    7b22:	5592                	lw	a1,36(sp)
    7b24:	498020ef          	jal	ra,9fbc <__adddf3>
    7b28:	862a                	mv	a2,a0
    7b2a:	86ae                	mv	a3,a1
    7b2c:	8562                	mv	a0,s8
    7b2e:	85e6                	mv	a1,s9
    7b30:	1da030ef          	jal	ra,ad0a <__gedf2>
    7b34:	0ea04663          	bgtz	a0,7c20 <_dtoa_r+0x786>
    7b38:	5602                	lw	a2,32(sp)
    7b3a:	5692                	lw	a3,36(sp)
    7b3c:	00092503          	lw	a0,0(s2)
    7b40:	00492583          	lw	a1,4(s2)
    7b44:	7e2030ef          	jal	ra,b326 <__subdf3>
    7b48:	862a                	mv	a2,a0
    7b4a:	86ae                	mv	a3,a1
    7b4c:	8562                	mv	a0,s8
    7b4e:	85e6                	mv	a1,s9
    7b50:	268030ef          	jal	ra,adb8 <__ledf2>
    7b54:	03000793          	li	a5,48
    7b58:	e00551e3          	bgez	a0,795a <_dtoa_r+0x4c0>
    7b5c:	fffa4703          	lbu	a4,-1(s4)
    7b60:	fffa0693          	addi	a3,s4,-1
    7b64:	00f70463          	beq	a4,a5,7b6c <_dtoa_r+0x6d2>
    7b68:	846a                	mv	s0,s10
    7b6a:	a859                	j	7c00 <_dtoa_r+0x766>
    7b6c:	8a36                	mv	s4,a3
    7b6e:	b7fd                	j	7b5c <_dtoa_r+0x6c2>
    7b70:	00006797          	auipc	a5,0x6
    7b74:	97078793          	addi	a5,a5,-1680 # d4e0 <_ctype_+0x128>
    7b78:	4390                	lw	a2,0(a5)
    7b7a:	43d4                	lw	a3,4(a5)
    7b7c:	2f2030ef          	jal	ra,ae6e <__muldf3>
    7b80:	8c2a                	mv	s8,a0
    7b82:	8cae                	mv	s9,a1
    7b84:	bfb1                	j	7ae0 <_dtoa_r+0x646>
    7b86:	87e2                	mv	a5,s8
    7b88:	8cbe                	mv	s9,a5
    7b8a:	4782                	lw	a5,0(sp)
    7b8c:	8c52                	mv	s8,s4
    7b8e:	00006a97          	auipc	s5,0x6
    7b92:	952a8a93          	addi	s5,s5,-1710 # d4e0 <_ctype_+0x128>
    7b96:	00178913          	addi	s2,a5,1
    7b9a:	9dbe                	add	s11,s11,a5
    7b9c:	865a                	mv	a2,s6
    7b9e:	86de                	mv	a3,s7
    7ba0:	8562                	mv	a0,s8
    7ba2:	85e6                	mv	a1,s9
    7ba4:	349020ef          	jal	ra,a6ec <__divdf3>
    7ba8:	6f9030ef          	jal	ra,baa0 <__fixdfsi>
    7bac:	8d2a                	mv	s10,a0
    7bae:	7b7030ef          	jal	ra,bb64 <__floatsidf>
    7bb2:	865a                	mv	a2,s6
    7bb4:	86de                	mv	a3,s7
    7bb6:	2b8030ef          	jal	ra,ae6e <__muldf3>
    7bba:	862a                	mv	a2,a0
    7bbc:	86ae                	mv	a3,a1
    7bbe:	8562                	mv	a0,s8
    7bc0:	85e6                	mv	a1,s9
    7bc2:	764030ef          	jal	ra,b326 <__subdf3>
    7bc6:	030d0793          	addi	a5,s10,48
    7bca:	fef90fa3          	sb	a5,-1(s2)
    7bce:	862a                	mv	a2,a0
    7bd0:	86ae                	mv	a3,a1
    7bd2:	8a4a                	mv	s4,s2
    7bd4:	072d9e63          	bne	s11,s2,7c50 <_dtoa_r+0x7b6>
    7bd8:	3e4020ef          	jal	ra,9fbc <__adddf3>
    7bdc:	865a                	mv	a2,s6
    7bde:	86de                	mv	a3,s7
    7be0:	8c2a                	mv	s8,a0
    7be2:	8cae                	mv	s9,a1
    7be4:	126030ef          	jal	ra,ad0a <__gedf2>
    7be8:	02a04b63          	bgtz	a0,7c1e <_dtoa_r+0x784>
    7bec:	865a                	mv	a2,s6
    7bee:	86de                	mv	a3,s7
    7bf0:	8562                	mv	a0,s8
    7bf2:	85e6                	mv	a1,s9
    7bf4:	0ac030ef          	jal	ra,aca0 <__eqdf2>
    7bf8:	e501                	bnez	a0,7c00 <_dtoa_r+0x766>
    7bfa:	001d7793          	andi	a5,s10,1
    7bfe:	e385                	bnez	a5,7c1e <_dtoa_r+0x784>
    7c00:	85ce                	mv	a1,s3
    7c02:	8526                	mv	a0,s1
    7c04:	19a010ef          	jal	ra,8d9e <_Bfree>
    7c08:	57c2                	lw	a5,48(sp)
    7c0a:	000a0023          	sb	zero,0(s4)
    7c0e:	0405                	addi	s0,s0,1
    7c10:	c380                	sw	s0,0(a5)
    7c12:	47d2                	lw	a5,20(sp)
    7c14:	940789e3          	beqz	a5,7566 <_dtoa_r+0xcc>
    7c18:	0147a023          	sw	s4,0(a5)
    7c1c:	b2a9                	j	7566 <_dtoa_r+0xcc>
    7c1e:	8d22                	mv	s10,s0
    7c20:	03900713          	li	a4,57
    7c24:	fffa4683          	lbu	a3,-1(s4)
    7c28:	fffa0793          	addi	a5,s4,-1
    7c2c:	00e69a63          	bne	a3,a4,7c40 <_dtoa_r+0x7a6>
    7c30:	4682                	lw	a3,0(sp)
    7c32:	00f69d63          	bne	a3,a5,7c4c <_dtoa_r+0x7b2>
    7c36:	03000713          	li	a4,48
    7c3a:	0d05                	addi	s10,s10,1
    7c3c:	00e68023          	sb	a4,0(a3)
    7c40:	0007c703          	lbu	a4,0(a5)
    7c44:	0705                	addi	a4,a4,1
    7c46:	00e78023          	sb	a4,0(a5)
    7c4a:	bf39                	j	7b68 <_dtoa_r+0x6ce>
    7c4c:	8a3e                	mv	s4,a5
    7c4e:	bfd9                	j	7c24 <_dtoa_r+0x78a>
    7c50:	000aa603          	lw	a2,0(s5)
    7c54:	004aa683          	lw	a3,4(s5)
    7c58:	0905                	addi	s2,s2,1
    7c5a:	214030ef          	jal	ra,ae6e <__muldf3>
    7c5e:	4601                	li	a2,0
    7c60:	4681                	li	a3,0
    7c62:	8c2a                	mv	s8,a0
    7c64:	8cae                	mv	s9,a1
    7c66:	03a030ef          	jal	ra,aca0 <__eqdf2>
    7c6a:	f90d                	bnez	a0,7b9c <_dtoa_r+0x702>
    7c6c:	bf51                	j	7c00 <_dtoa_r+0x766>
    7c6e:	4742                	lw	a4,16(sp)
    7c70:	10070063          	beqz	a4,7d70 <_dtoa_r+0x8d6>
    7c74:	4692                	lw	a3,4(sp)
    7c76:	4705                	li	a4,1
    7c78:	0cd74563          	blt	a4,a3,7d42 <_dtoa_r+0x8a8>
    7c7c:	5762                	lw	a4,56(sp)
    7c7e:	43378793          	addi	a5,a5,1075
    7c82:	e709                	bnez	a4,7c8c <_dtoa_r+0x7f2>
    7c84:	4726                	lw	a4,72(sp)
    7c86:	03600793          	li	a5,54
    7c8a:	8f99                	sub	a5,a5,a4
    7c8c:	8d56                	mv	s10,s5
    7c8e:	8cda                	mv	s9,s6
    7c90:	4585                	li	a1,1
    7c92:	8526                	mv	a0,s1
    7c94:	9b3e                	add	s6,s6,a5
    7c96:	9bbe                	add	s7,s7,a5
    7c98:	338010ef          	jal	ra,8fd0 <__i2b>
    7c9c:	892a                	mv	s2,a0
    7c9e:	01905e63          	blez	s9,7cba <_dtoa_r+0x820>
    7ca2:	01705c63          	blez	s7,7cba <_dtoa_r+0x820>
    7ca6:	87e6                	mv	a5,s9
    7ca8:	019bd363          	bge	s7,s9,7cae <_dtoa_r+0x814>
    7cac:	87de                	mv	a5,s7
    7cae:	40fb0b33          	sub	s6,s6,a5
    7cb2:	40fc8cb3          	sub	s9,s9,a5
    7cb6:	40fb8bb3          	sub	s7,s7,a5
    7cba:	040a8063          	beqz	s5,7cfa <_dtoa_r+0x860>
    7cbe:	47c2                	lw	a5,16(sp)
    7cc0:	cfc5                	beqz	a5,7d78 <_dtoa_r+0x8de>
    7cc2:	03a05463          	blez	s10,7cea <_dtoa_r+0x850>
    7cc6:	85ca                	mv	a1,s2
    7cc8:	866a                	mv	a2,s10
    7cca:	8526                	mv	a0,s1
    7ccc:	464010ef          	jal	ra,9130 <__pow5mult>
    7cd0:	864e                	mv	a2,s3
    7cd2:	85aa                	mv	a1,a0
    7cd4:	892a                	mv	s2,a0
    7cd6:	8526                	mv	a0,s1
    7cd8:	314010ef          	jal	ra,8fec <__multiply>
    7cdc:	ce2a                	sw	a0,28(sp)
    7cde:	85ce                	mv	a1,s3
    7ce0:	8526                	mv	a0,s1
    7ce2:	0bc010ef          	jal	ra,8d9e <_Bfree>
    7ce6:	47f2                	lw	a5,28(sp)
    7ce8:	89be                	mv	s3,a5
    7cea:	41aa8633          	sub	a2,s5,s10
    7cee:	c611                	beqz	a2,7cfa <_dtoa_r+0x860>
    7cf0:	85ce                	mv	a1,s3
    7cf2:	8526                	mv	a0,s1
    7cf4:	43c010ef          	jal	ra,9130 <__pow5mult>
    7cf8:	89aa                	mv	s3,a0
    7cfa:	4585                	li	a1,1
    7cfc:	8526                	mv	a0,s1
    7cfe:	2d2010ef          	jal	ra,8fd0 <__i2b>
    7d02:	47e2                	lw	a5,24(sp)
    7d04:	8aaa                	mv	s5,a0
    7d06:	06f05b63          	blez	a5,7d7c <_dtoa_r+0x8e2>
    7d0a:	863e                	mv	a2,a5
    7d0c:	85aa                	mv	a1,a0
    7d0e:	8526                	mv	a0,s1
    7d10:	420010ef          	jal	ra,9130 <__pow5mult>
    7d14:	4712                	lw	a4,4(sp)
    7d16:	4785                	li	a5,1
    7d18:	8aaa                	mv	s5,a0
    7d1a:	4d01                	li	s10,0
    7d1c:	06e7c863          	blt	a5,a4,7d8c <_dtoa_r+0x8f2>
    7d20:	4d01                	li	s10,0
    7d22:	060a1263          	bnez	s4,7d86 <_dtoa_r+0x8ec>
    7d26:	00cc1793          	slli	a5,s8,0xc
    7d2a:	8d52                	mv	s10,s4
    7d2c:	efa9                	bnez	a5,7d86 <_dtoa_r+0x8ec>
    7d2e:	7ff005b7          	lui	a1,0x7ff00
    7d32:	00bc7c33          	and	s8,s8,a1
    7d36:	040c0863          	beqz	s8,7d86 <_dtoa_r+0x8ec>
    7d3a:	0b05                	addi	s6,s6,1
    7d3c:	0b85                	addi	s7,s7,1
    7d3e:	4d05                	li	s10,1
    7d40:	a099                	j	7d86 <_dtoa_r+0x8ec>
    7d42:	fffd8d13          	addi	s10,s11,-1
    7d46:	01aaca63          	blt	s5,s10,7d5a <_dtoa_r+0x8c0>
    7d4a:	41aa8d33          	sub	s10,s5,s10
    7d4e:	000dde63          	bgez	s11,7d6a <_dtoa_r+0x8d0>
    7d52:	41bb0cb3          	sub	s9,s6,s11
    7d56:	4781                	li	a5,0
    7d58:	bf25                	j	7c90 <_dtoa_r+0x7f6>
    7d5a:	47e2                	lw	a5,24(sp)
    7d5c:	415d0ab3          	sub	s5,s10,s5
    7d60:	97d6                	add	a5,a5,s5
    7d62:	cc3e                	sw	a5,24(sp)
    7d64:	8aea                	mv	s5,s10
    7d66:	4d01                	li	s10,0
    7d68:	b7dd                	j	7d4e <_dtoa_r+0x8b4>
    7d6a:	8cda                	mv	s9,s6
    7d6c:	87ee                	mv	a5,s11
    7d6e:	b70d                	j	7c90 <_dtoa_r+0x7f6>
    7d70:	8d56                	mv	s10,s5
    7d72:	8cda                	mv	s9,s6
    7d74:	4901                	li	s2,0
    7d76:	b725                	j	7c9e <_dtoa_r+0x804>
    7d78:	8656                	mv	a2,s5
    7d7a:	bf9d                	j	7cf0 <_dtoa_r+0x856>
    7d7c:	4712                	lw	a4,4(sp)
    7d7e:	4785                	li	a5,1
    7d80:	4d01                	li	s10,0
    7d82:	f8e7dfe3          	bge	a5,a4,7d20 <_dtoa_r+0x886>
    7d86:	47e2                	lw	a5,24(sp)
    7d88:	4505                	li	a0,1
    7d8a:	cf89                	beqz	a5,7da4 <_dtoa_r+0x90a>
    7d8c:	010aa783          	lw	a5,16(s5)
    7d90:	078d                	addi	a5,a5,3
    7d92:	078a                	slli	a5,a5,0x2
    7d94:	97d6                	add	a5,a5,s5
    7d96:	43c8                	lw	a0,4(a5)
    7d98:	188010ef          	jal	ra,8f20 <__hi0bits>
    7d9c:	02000793          	li	a5,32
    7da0:	40a78533          	sub	a0,a5,a0
    7da4:	955e                	add	a0,a0,s7
    7da6:	897d                	andi	a0,a0,31
    7da8:	c151                	beqz	a0,7e2c <_dtoa_r+0x992>
    7daa:	02000793          	li	a5,32
    7dae:	8f89                	sub	a5,a5,a0
    7db0:	4711                	li	a4,4
    7db2:	06f75a63          	bge	a4,a5,7e26 <_dtoa_r+0x98c>
    7db6:	47f1                	li	a5,28
    7db8:	40a78533          	sub	a0,a5,a0
    7dbc:	9b2a                	add	s6,s6,a0
    7dbe:	9caa                	add	s9,s9,a0
    7dc0:	9baa                	add	s7,s7,a0
    7dc2:	01605863          	blez	s6,7dd2 <_dtoa_r+0x938>
    7dc6:	85ce                	mv	a1,s3
    7dc8:	865a                	mv	a2,s6
    7dca:	8526                	mv	a0,s1
    7dcc:	422010ef          	jal	ra,91ee <__lshift>
    7dd0:	89aa                	mv	s3,a0
    7dd2:	01705863          	blez	s7,7de2 <_dtoa_r+0x948>
    7dd6:	85d6                	mv	a1,s5
    7dd8:	865e                	mv	a2,s7
    7dda:	8526                	mv	a0,s1
    7ddc:	412010ef          	jal	ra,91ee <__lshift>
    7de0:	8aaa                	mv	s5,a0
    7de2:	57b2                	lw	a5,44(sp)
    7de4:	c7b1                	beqz	a5,7e30 <_dtoa_r+0x996>
    7de6:	85d6                	mv	a1,s5
    7de8:	854e                	mv	a0,s3
    7dea:	4d2010ef          	jal	ra,92bc <__mcmp>
    7dee:	04055163          	bgez	a0,7e30 <_dtoa_r+0x996>
    7df2:	85ce                	mv	a1,s3
    7df4:	4681                	li	a3,0
    7df6:	4629                	li	a2,10
    7df8:	8526                	mv	a0,s1
    7dfa:	7e9000ef          	jal	ra,8de2 <__multadd>
    7dfe:	47c2                	lw	a5,16(sp)
    7e00:	147d                	addi	s0,s0,-1
    7e02:	89aa                	mv	s3,a0
    7e04:	26078c63          	beqz	a5,807c <_dtoa_r+0xbe2>
    7e08:	85ca                	mv	a1,s2
    7e0a:	4681                	li	a3,0
    7e0c:	4629                	li	a2,10
    7e0e:	8526                	mv	a0,s1
    7e10:	7d3000ef          	jal	ra,8de2 <__multadd>
    7e14:	47a2                	lw	a5,8(sp)
    7e16:	892a                	mv	s2,a0
    7e18:	08f04563          	bgtz	a5,7ea2 <_dtoa_r+0xa08>
    7e1c:	4712                	lw	a4,4(sp)
    7e1e:	4789                	li	a5,2
    7e20:	08e7d163          	bge	a5,a4,7ea2 <_dtoa_r+0xa08>
    7e24:	a829                	j	7e3e <_dtoa_r+0x9a4>
    7e26:	f8e78ee3          	beq	a5,a4,7dc2 <_dtoa_r+0x928>
    7e2a:	853e                	mv	a0,a5
    7e2c:	0571                	addi	a0,a0,28
    7e2e:	b779                	j	7dbc <_dtoa_r+0x922>
    7e30:	07b04563          	bgtz	s11,7e9a <_dtoa_r+0xa00>
    7e34:	4712                	lw	a4,4(sp)
    7e36:	4789                	li	a5,2
    7e38:	06e7d163          	bge	a5,a4,7e9a <_dtoa_r+0xa00>
    7e3c:	c46e                	sw	s11,8(sp)
    7e3e:	47a2                	lw	a5,8(sp)
    7e40:	ef91                	bnez	a5,7e5c <_dtoa_r+0x9c2>
    7e42:	85d6                	mv	a1,s5
    7e44:	4681                	li	a3,0
    7e46:	4615                	li	a2,5
    7e48:	8526                	mv	a0,s1
    7e4a:	799000ef          	jal	ra,8de2 <__multadd>
    7e4e:	8aaa                	mv	s5,a0
    7e50:	85aa                	mv	a1,a0
    7e52:	854e                	mv	a0,s3
    7e54:	468010ef          	jal	ra,92bc <__mcmp>
    7e58:	b4a04de3          	bgtz	a0,79b2 <_dtoa_r+0x518>
    7e5c:	47b2                	lw	a5,12(sp)
    7e5e:	4a02                	lw	s4,0(sp)
    7e60:	fff7c413          	not	s0,a5
    7e64:	4b01                	li	s6,0
    7e66:	85d6                	mv	a1,s5
    7e68:	8526                	mv	a0,s1
    7e6a:	735000ef          	jal	ra,8d9e <_Bfree>
    7e6e:	d80909e3          	beqz	s2,7c00 <_dtoa_r+0x766>
    7e72:	000b0863          	beqz	s6,7e82 <_dtoa_r+0x9e8>
    7e76:	012b0663          	beq	s6,s2,7e82 <_dtoa_r+0x9e8>
    7e7a:	85da                	mv	a1,s6
    7e7c:	8526                	mv	a0,s1
    7e7e:	721000ef          	jal	ra,8d9e <_Bfree>
    7e82:	85ca                	mv	a1,s2
    7e84:	8526                	mv	a0,s1
    7e86:	719000ef          	jal	ra,8d9e <_Bfree>
    7e8a:	bb9d                	j	7c00 <_dtoa_r+0x766>
    7e8c:	4a81                	li	s5,0
    7e8e:	4901                	li	s2,0
    7e90:	b7f1                	j	7e5c <_dtoa_r+0x9c2>
    7e92:	846a                	mv	s0,s10
    7e94:	4a81                	li	s5,0
    7e96:	4901                	li	s2,0
    7e98:	be29                	j	79b2 <_dtoa_r+0x518>
    7e9a:	47c2                	lw	a5,16(sp)
    7e9c:	c46e                	sw	s11,8(sp)
    7e9e:	1e078663          	beqz	a5,808a <_dtoa_r+0xbf0>
    7ea2:	01905863          	blez	s9,7eb2 <_dtoa_r+0xa18>
    7ea6:	85ca                	mv	a1,s2
    7ea8:	8666                	mv	a2,s9
    7eaa:	8526                	mv	a0,s1
    7eac:	342010ef          	jal	ra,91ee <__lshift>
    7eb0:	892a                	mv	s2,a0
    7eb2:	854a                	mv	a0,s2
    7eb4:	020d0663          	beqz	s10,7ee0 <_dtoa_r+0xa46>
    7eb8:	00492583          	lw	a1,4(s2)
    7ebc:	8526                	mv	a0,s1
    7ebe:	655000ef          	jal	ra,8d12 <_Balloc>
    7ec2:	01092603          	lw	a2,16(s2)
    7ec6:	8b2a                	mv	s6,a0
    7ec8:	00c90593          	addi	a1,s2,12
    7ecc:	0609                	addi	a2,a2,2
    7ece:	060a                	slli	a2,a2,0x2
    7ed0:	0531                	addi	a0,a0,12
    7ed2:	9cefd0ef          	jal	ra,50a0 <memcpy>
    7ed6:	4605                	li	a2,1
    7ed8:	85da                	mv	a1,s6
    7eda:	8526                	mv	a0,s1
    7edc:	312010ef          	jal	ra,91ee <__lshift>
    7ee0:	4782                	lw	a5,0(sp)
    7ee2:	4722                	lw	a4,8(sp)
    7ee4:	8b4a                	mv	s6,s2
    7ee6:	00178c13          	addi	s8,a5,1
    7eea:	97ba                	add	a5,a5,a4
    7eec:	c63e                	sw	a5,12(sp)
    7eee:	001a7793          	andi	a5,s4,1
    7ef2:	892a                	mv	s2,a0
    7ef4:	c43e                	sw	a5,8(sp)
    7ef6:	85d6                	mv	a1,s5
    7ef8:	854e                	mv	a0,s3
    7efa:	c66ff0ef          	jal	ra,7360 <quorem>
    7efe:	85da                	mv	a1,s6
    7f00:	8d2a                	mv	s10,a0
    7f02:	03050d93          	addi	s11,a0,48
    7f06:	854e                	mv	a0,s3
    7f08:	3b4010ef          	jal	ra,92bc <__mcmp>
    7f0c:	864a                	mv	a2,s2
    7f0e:	8baa                	mv	s7,a0
    7f10:	85d6                	mv	a1,s5
    7f12:	8526                	mv	a0,s1
    7f14:	3da010ef          	jal	ra,92ee <__mdiff>
    7f18:	4550                	lw	a2,12(a0)
    7f1a:	fffc0c93          	addi	s9,s8,-1
    7f1e:	8a2a                	mv	s4,a0
    7f20:	4705                	li	a4,1
    7f22:	e611                	bnez	a2,7f2e <_dtoa_r+0xa94>
    7f24:	85aa                	mv	a1,a0
    7f26:	854e                	mv	a0,s3
    7f28:	394010ef          	jal	ra,92bc <__mcmp>
    7f2c:	872a                	mv	a4,a0
    7f2e:	85d2                	mv	a1,s4
    7f30:	8526                	mv	a0,s1
    7f32:	c83a                	sw	a4,16(sp)
    7f34:	66b000ef          	jal	ra,8d9e <_Bfree>
    7f38:	4792                	lw	a5,4(sp)
    7f3a:	4742                	lw	a4,16(sp)
    7f3c:	8a62                	mv	s4,s8
    7f3e:	00e7e6b3          	or	a3,a5,a4
    7f42:	47a2                	lw	a5,8(sp)
    7f44:	8edd                	or	a3,a3,a5
    7f46:	ee81                	bnez	a3,7f5e <_dtoa_r+0xac4>
    7f48:	03900713          	li	a4,57
    7f4c:	04ed8863          	beq	s11,a4,7f9c <_dtoa_r+0xb02>
    7f50:	01705463          	blez	s7,7f58 <_dtoa_r+0xabe>
    7f54:	031d0d93          	addi	s11,s10,49
    7f58:	01bc8023          	sb	s11,0(s9)
    7f5c:	b729                	j	7e66 <_dtoa_r+0x9cc>
    7f5e:	000bca63          	bltz	s7,7f72 <_dtoa_r+0xad8>
    7f62:	4792                	lw	a5,4(sp)
    7f64:	0177ebb3          	or	s7,a5,s7
    7f68:	47a2                	lw	a5,8(sp)
    7f6a:	00fbebb3          	or	s7,s7,a5
    7f6e:	040b9563          	bnez	s7,7fb8 <_dtoa_r+0xb1e>
    7f72:	fee053e3          	blez	a4,7f58 <_dtoa_r+0xabe>
    7f76:	85ce                	mv	a1,s3
    7f78:	4605                	li	a2,1
    7f7a:	8526                	mv	a0,s1
    7f7c:	272010ef          	jal	ra,91ee <__lshift>
    7f80:	85d6                	mv	a1,s5
    7f82:	89aa                	mv	s3,a0
    7f84:	338010ef          	jal	ra,92bc <__mcmp>
    7f88:	00a04663          	bgtz	a0,7f94 <_dtoa_r+0xafa>
    7f8c:	f571                	bnez	a0,7f58 <_dtoa_r+0xabe>
    7f8e:	001df713          	andi	a4,s11,1
    7f92:	d379                	beqz	a4,7f58 <_dtoa_r+0xabe>
    7f94:	03900713          	li	a4,57
    7f98:	faed9ee3          	bne	s11,a4,7f54 <_dtoa_r+0xaba>
    7f9c:	03900793          	li	a5,57
    7fa0:	00fc8023          	sb	a5,0(s9)
    7fa4:	03900693          	li	a3,57
    7fa8:	fffa4783          	lbu	a5,-1(s4)
    7fac:	fffa0713          	addi	a4,s4,-1
    7fb0:	08d78c63          	beq	a5,a3,8048 <_dtoa_r+0xbae>
    7fb4:	0785                	addi	a5,a5,1
    7fb6:	a045                	j	8056 <_dtoa_r+0xbbc>
    7fb8:	00e05b63          	blez	a4,7fce <_dtoa_r+0xb34>
    7fbc:	03900713          	li	a4,57
    7fc0:	fced8ee3          	beq	s11,a4,7f9c <_dtoa_r+0xb02>
    7fc4:	001d8793          	addi	a5,s11,1
    7fc8:	00fc8023          	sb	a5,0(s9)
    7fcc:	bd69                	j	7e66 <_dtoa_r+0x9cc>
    7fce:	47b2                	lw	a5,12(sp)
    7fd0:	ffbc0fa3          	sb	s11,-1(s8)
    7fd4:	05878163          	beq	a5,s8,8016 <_dtoa_r+0xb7c>
    7fd8:	85ce                	mv	a1,s3
    7fda:	4681                	li	a3,0
    7fdc:	4629                	li	a2,10
    7fde:	8526                	mv	a0,s1
    7fe0:	603000ef          	jal	ra,8de2 <__multadd>
    7fe4:	89aa                	mv	s3,a0
    7fe6:	4681                	li	a3,0
    7fe8:	4629                	li	a2,10
    7fea:	85da                	mv	a1,s6
    7fec:	8526                	mv	a0,s1
    7fee:	012b1863          	bne	s6,s2,7ffe <_dtoa_r+0xb64>
    7ff2:	5f1000ef          	jal	ra,8de2 <__multadd>
    7ff6:	8b2a                	mv	s6,a0
    7ff8:	892a                	mv	s2,a0
    7ffa:	0c05                	addi	s8,s8,1
    7ffc:	bded                	j	7ef6 <_dtoa_r+0xa5c>
    7ffe:	5e5000ef          	jal	ra,8de2 <__multadd>
    8002:	85ca                	mv	a1,s2
    8004:	8b2a                	mv	s6,a0
    8006:	4681                	li	a3,0
    8008:	4629                	li	a2,10
    800a:	8526                	mv	a0,s1
    800c:	5d7000ef          	jal	ra,8de2 <__multadd>
    8010:	892a                	mv	s2,a0
    8012:	b7e5                	j	7ffa <_dtoa_r+0xb60>
    8014:	4b01                	li	s6,0
    8016:	85ce                	mv	a1,s3
    8018:	4605                	li	a2,1
    801a:	8526                	mv	a0,s1
    801c:	1d2010ef          	jal	ra,91ee <__lshift>
    8020:	85d6                	mv	a1,s5
    8022:	89aa                	mv	s3,a0
    8024:	298010ef          	jal	ra,92bc <__mcmp>
    8028:	f6a04ee3          	bgtz	a0,7fa4 <_dtoa_r+0xb0a>
    802c:	e501                	bnez	a0,8034 <_dtoa_r+0xb9a>
    802e:	001df793          	andi	a5,s11,1
    8032:	fbad                	bnez	a5,7fa4 <_dtoa_r+0xb0a>
    8034:	03000793          	li	a5,48
    8038:	fffa4703          	lbu	a4,-1(s4)
    803c:	fffa0693          	addi	a3,s4,-1
    8040:	e2f713e3          	bne	a4,a5,7e66 <_dtoa_r+0x9cc>
    8044:	8a36                	mv	s4,a3
    8046:	bfcd                	j	8038 <_dtoa_r+0xb9e>
    8048:	4782                	lw	a5,0(sp)
    804a:	00e79963          	bne	a5,a4,805c <_dtoa_r+0xbc2>
    804e:	4702                	lw	a4,0(sp)
    8050:	0405                	addi	s0,s0,1
    8052:	03100793          	li	a5,49
    8056:	00f70023          	sb	a5,0(a4)
    805a:	b531                	j	7e66 <_dtoa_r+0x9cc>
    805c:	8a3a                	mv	s4,a4
    805e:	b7a9                	j	7fa8 <_dtoa_r+0xb0e>
    8060:	4752                	lw	a4,20(sp)
    8062:	00005797          	auipc	a5,0x5
    8066:	49678793          	addi	a5,a5,1174 # d4f8 <_ctype_+0x140>
    806a:	c03e                	sw	a5,0(sp)
    806c:	00005797          	auipc	a5,0x5
    8070:	49478793          	addi	a5,a5,1172 # d500 <_ctype_+0x148>
    8074:	ce071763          	bnez	a4,7562 <_dtoa_r+0xc8>
    8078:	ceeff06f          	j	7566 <_dtoa_r+0xcc>
    807c:	47a2                	lw	a5,8(sp)
    807e:	00f04663          	bgtz	a5,808a <_dtoa_r+0xbf0>
    8082:	4712                	lw	a4,4(sp)
    8084:	4789                	li	a5,2
    8086:	dae7cce3          	blt	a5,a4,7e3e <_dtoa_r+0x9a4>
    808a:	4a02                	lw	s4,0(sp)
    808c:	85d6                	mv	a1,s5
    808e:	854e                	mv	a0,s3
    8090:	ad0ff0ef          	jal	ra,7360 <quorem>
    8094:	4782                	lw	a5,0(sp)
    8096:	0a05                	addi	s4,s4,1
    8098:	03050d93          	addi	s11,a0,48
    809c:	40fa0733          	sub	a4,s4,a5
    80a0:	47a2                	lw	a5,8(sp)
    80a2:	ffba0fa3          	sb	s11,-1(s4)
    80a6:	f6f757e3          	bge	a4,a5,8014 <_dtoa_r+0xb7a>
    80aa:	85ce                	mv	a1,s3
    80ac:	4681                	li	a3,0
    80ae:	4629                	li	a2,10
    80b0:	8526                	mv	a0,s1
    80b2:	531000ef          	jal	ra,8de2 <__multadd>
    80b6:	89aa                	mv	s3,a0
    80b8:	bfd1                	j	808c <_dtoa_r+0xbf2>

000080ba <__sflush_r>:
    80ba:	00c5d783          	lhu	a5,12(a1) # 7ff0000c <_eusrstack+0x5fef800c>
    80be:	1101                	addi	sp,sp,-32
    80c0:	cc22                	sw	s0,24(sp)
    80c2:	ca26                	sw	s1,20(sp)
    80c4:	ce06                	sw	ra,28(sp)
    80c6:	c84a                	sw	s2,16(sp)
    80c8:	c64e                	sw	s3,12(sp)
    80ca:	0087f713          	andi	a4,a5,8
    80ce:	84aa                	mv	s1,a0
    80d0:	842e                	mv	s0,a1
    80d2:	ef79                	bnez	a4,81b0 <__sflush_r+0xf6>
    80d4:	41d8                	lw	a4,4(a1)
    80d6:	00e04d63          	bgtz	a4,80f0 <__sflush_r+0x36>
    80da:	41b8                	lw	a4,64(a1)
    80dc:	00e04a63          	bgtz	a4,80f0 <__sflush_r+0x36>
    80e0:	4501                	li	a0,0
    80e2:	40f2                	lw	ra,28(sp)
    80e4:	4462                	lw	s0,24(sp)
    80e6:	44d2                	lw	s1,20(sp)
    80e8:	4942                	lw	s2,16(sp)
    80ea:	49b2                	lw	s3,12(sp)
    80ec:	6105                	addi	sp,sp,32
    80ee:	8082                	ret
    80f0:	5458                	lw	a4,44(s0)
    80f2:	d77d                	beqz	a4,80e0 <__sflush_r+0x26>
    80f4:	0004a903          	lw	s2,0(s1)
    80f8:	01379693          	slli	a3,a5,0x13
    80fc:	0004a023          	sw	zero,0(s1)
    8100:	0606de63          	bgez	a3,817c <__sflush_r+0xc2>
    8104:	4870                	lw	a2,84(s0)
    8106:	00c45783          	lhu	a5,12(s0)
    810a:	8b91                	andi	a5,a5,4
    810c:	c799                	beqz	a5,811a <__sflush_r+0x60>
    810e:	405c                	lw	a5,4(s0)
    8110:	8e1d                	sub	a2,a2,a5
    8112:	585c                	lw	a5,52(s0)
    8114:	c399                	beqz	a5,811a <__sflush_r+0x60>
    8116:	403c                	lw	a5,64(s0)
    8118:	8e1d                	sub	a2,a2,a5
    811a:	545c                	lw	a5,44(s0)
    811c:	500c                	lw	a1,32(s0)
    811e:	4681                	li	a3,0
    8120:	8526                	mv	a0,s1
    8122:	9782                	jalr	a5
    8124:	57fd                	li	a5,-1
    8126:	00c45703          	lhu	a4,12(s0)
    812a:	00f51d63          	bne	a0,a5,8144 <__sflush_r+0x8a>
    812e:	4094                	lw	a3,0(s1)
    8130:	47f5                	li	a5,29
    8132:	06d7e963          	bltu	a5,a3,81a4 <__sflush_r+0xea>
    8136:	204007b7          	lui	a5,0x20400
    813a:	0785                	addi	a5,a5,1
    813c:	00d7d7b3          	srl	a5,a5,a3
    8140:	8b85                	andi	a5,a5,1
    8142:	c3ad                	beqz	a5,81a4 <__sflush_r+0xea>
    8144:	481c                	lw	a5,16(s0)
    8146:	00042223          	sw	zero,4(s0)
    814a:	c01c                	sw	a5,0(s0)
    814c:	01371793          	slli	a5,a4,0x13
    8150:	0007d863          	bgez	a5,8160 <__sflush_r+0xa6>
    8154:	57fd                	li	a5,-1
    8156:	00f51463          	bne	a0,a5,815e <__sflush_r+0xa4>
    815a:	409c                	lw	a5,0(s1)
    815c:	e391                	bnez	a5,8160 <__sflush_r+0xa6>
    815e:	c868                	sw	a0,84(s0)
    8160:	584c                	lw	a1,52(s0)
    8162:	0124a023          	sw	s2,0(s1)
    8166:	ddad                	beqz	a1,80e0 <__sflush_r+0x26>
    8168:	04440793          	addi	a5,s0,68
    816c:	00f58563          	beq	a1,a5,8176 <__sflush_r+0xbc>
    8170:	8526                	mv	a0,s1
    8172:	fe5fc0ef          	jal	ra,5156 <_free_r>
    8176:	02042a23          	sw	zero,52(s0)
    817a:	b79d                	j	80e0 <__sflush_r+0x26>
    817c:	500c                	lw	a1,32(s0)
    817e:	4601                	li	a2,0
    8180:	4685                	li	a3,1
    8182:	8526                	mv	a0,s1
    8184:	9702                	jalr	a4
    8186:	57fd                	li	a5,-1
    8188:	862a                	mv	a2,a0
    818a:	f6f51ee3          	bne	a0,a5,8106 <__sflush_r+0x4c>
    818e:	409c                	lw	a5,0(s1)
    8190:	dbbd                	beqz	a5,8106 <__sflush_r+0x4c>
    8192:	4775                	li	a4,29
    8194:	00e78563          	beq	a5,a4,819e <__sflush_r+0xe4>
    8198:	4759                	li	a4,22
    819a:	04e79463          	bne	a5,a4,81e2 <__sflush_r+0x128>
    819e:	0124a023          	sw	s2,0(s1)
    81a2:	bf3d                	j	80e0 <__sflush_r+0x26>
    81a4:	04076713          	ori	a4,a4,64
    81a8:	00e41623          	sh	a4,12(s0)
    81ac:	557d                	li	a0,-1
    81ae:	bf15                	j	80e2 <__sflush_r+0x28>
    81b0:	0105a983          	lw	s3,16(a1)
    81b4:	f20986e3          	beqz	s3,80e0 <__sflush_r+0x26>
    81b8:	0005a903          	lw	s2,0(a1)
    81bc:	8b8d                	andi	a5,a5,3
    81be:	0135a023          	sw	s3,0(a1)
    81c2:	41390933          	sub	s2,s2,s3
    81c6:	4701                	li	a4,0
    81c8:	e391                	bnez	a5,81cc <__sflush_r+0x112>
    81ca:	49d8                	lw	a4,20(a1)
    81cc:	c418                	sw	a4,8(s0)
    81ce:	f12059e3          	blez	s2,80e0 <__sflush_r+0x26>
    81d2:	541c                	lw	a5,40(s0)
    81d4:	500c                	lw	a1,32(s0)
    81d6:	86ca                	mv	a3,s2
    81d8:	864e                	mv	a2,s3
    81da:	8526                	mv	a0,s1
    81dc:	9782                	jalr	a5
    81de:	00a04963          	bgtz	a0,81f0 <__sflush_r+0x136>
    81e2:	00c45783          	lhu	a5,12(s0)
    81e6:	0407e793          	ori	a5,a5,64
    81ea:	00f41623          	sh	a5,12(s0)
    81ee:	bf7d                	j	81ac <__sflush_r+0xf2>
    81f0:	99aa                	add	s3,s3,a0
    81f2:	40a90933          	sub	s2,s2,a0
    81f6:	bfe1                	j	81ce <__sflush_r+0x114>

000081f8 <_fflush_r>:
    81f8:	499c                	lw	a5,16(a1)
    81fa:	c3a5                	beqz	a5,825a <_fflush_r+0x62>
    81fc:	1101                	addi	sp,sp,-32
    81fe:	cc22                	sw	s0,24(sp)
    8200:	ce06                	sw	ra,28(sp)
    8202:	842a                	mv	s0,a0
    8204:	c511                	beqz	a0,8210 <_fflush_r+0x18>
    8206:	4d1c                	lw	a5,24(a0)
    8208:	e781                	bnez	a5,8210 <_fflush_r+0x18>
    820a:	c62e                	sw	a1,12(sp)
    820c:	2239                	jal	831a <__sinit>
    820e:	45b2                	lw	a1,12(sp)
    8210:	00005797          	auipc	a5,0x5
    8214:	31878793          	addi	a5,a5,792 # d528 <__sf_fake_stdin>
    8218:	00f59c63          	bne	a1,a5,8230 <_fflush_r+0x38>
    821c:	404c                	lw	a1,4(s0)
    821e:	00c59783          	lh	a5,12(a1)
    8222:	c79d                	beqz	a5,8250 <_fflush_r+0x58>
    8224:	8522                	mv	a0,s0
    8226:	4462                	lw	s0,24(sp)
    8228:	40f2                	lw	ra,28(sp)
    822a:	6105                	addi	sp,sp,32
    822c:	e8fff06f          	j	80ba <__sflush_r>
    8230:	00005797          	auipc	a5,0x5
    8234:	31878793          	addi	a5,a5,792 # d548 <__sf_fake_stdout>
    8238:	00f59463          	bne	a1,a5,8240 <_fflush_r+0x48>
    823c:	440c                	lw	a1,8(s0)
    823e:	b7c5                	j	821e <_fflush_r+0x26>
    8240:	00005797          	auipc	a5,0x5
    8244:	2c878793          	addi	a5,a5,712 # d508 <__sf_fake_stderr>
    8248:	fcf59be3          	bne	a1,a5,821e <_fflush_r+0x26>
    824c:	444c                	lw	a1,12(s0)
    824e:	bfc1                	j	821e <_fflush_r+0x26>
    8250:	40f2                	lw	ra,28(sp)
    8252:	4462                	lw	s0,24(sp)
    8254:	4501                	li	a0,0
    8256:	6105                	addi	sp,sp,32
    8258:	8082                	ret
    825a:	4501                	li	a0,0
    825c:	8082                	ret

0000825e <std>:
    825e:	1141                	addi	sp,sp,-16
    8260:	c422                	sw	s0,8(sp)
    8262:	c606                	sw	ra,12(sp)
    8264:	842a                	mv	s0,a0
    8266:	00b51623          	sh	a1,12(a0)
    826a:	00c51723          	sh	a2,14(a0)
    826e:	00052023          	sw	zero,0(a0)
    8272:	00052223          	sw	zero,4(a0)
    8276:	00052423          	sw	zero,8(a0)
    827a:	06052223          	sw	zero,100(a0)
    827e:	00052823          	sw	zero,16(a0)
    8282:	00052a23          	sw	zero,20(a0)
    8286:	00052c23          	sw	zero,24(a0)
    828a:	4621                	li	a2,8
    828c:	4581                	li	a1,0
    828e:	05c50513          	addi	a0,a0,92
    8292:	929f80ef          	jal	ra,bba <memset>
    8296:	00002797          	auipc	a5,0x2
    829a:	b0478793          	addi	a5,a5,-1276 # 9d9a <__sread>
    829e:	d05c                	sw	a5,36(s0)
    82a0:	00002797          	auipc	a5,0x2
    82a4:	b2a78793          	addi	a5,a5,-1238 # 9dca <__swrite>
    82a8:	d41c                	sw	a5,40(s0)
    82aa:	00002797          	auipc	a5,0x2
    82ae:	b6e78793          	addi	a5,a5,-1170 # 9e18 <__sseek>
    82b2:	d45c                	sw	a5,44(s0)
    82b4:	00002797          	auipc	a5,0x2
    82b8:	b9a78793          	addi	a5,a5,-1126 # 9e4e <__sclose>
    82bc:	d000                	sw	s0,32(s0)
    82be:	d81c                	sw	a5,48(s0)
    82c0:	40b2                	lw	ra,12(sp)
    82c2:	4422                	lw	s0,8(sp)
    82c4:	0141                	addi	sp,sp,16
    82c6:	8082                	ret

000082c8 <_cleanup_r>:
    82c8:	00000597          	auipc	a1,0x0
    82cc:	f3058593          	addi	a1,a1,-208 # 81f8 <_fflush_r>
    82d0:	aab9                	j	842e <_fwalk_reent>

000082d2 <__sfmoreglue>:
    82d2:	1141                	addi	sp,sp,-16
    82d4:	c226                	sw	s1,4(sp)
    82d6:	06800613          	li	a2,104
    82da:	fff58493          	addi	s1,a1,-1
    82de:	02c484b3          	mul	s1,s1,a2
    82e2:	c04a                	sw	s2,0(sp)
    82e4:	892e                	mv	s2,a1
    82e6:	c422                	sw	s0,8(sp)
    82e8:	c606                	sw	ra,12(sp)
    82ea:	07448593          	addi	a1,s1,116
    82ee:	f11fc0ef          	jal	ra,51fe <_malloc_r>
    82f2:	842a                	mv	s0,a0
    82f4:	cd01                	beqz	a0,830c <__sfmoreglue+0x3a>
    82f6:	00052023          	sw	zero,0(a0)
    82fa:	01252223          	sw	s2,4(a0)
    82fe:	0531                	addi	a0,a0,12
    8300:	c408                	sw	a0,8(s0)
    8302:	06848613          	addi	a2,s1,104
    8306:	4581                	li	a1,0
    8308:	8b3f80ef          	jal	ra,bba <memset>
    830c:	8522                	mv	a0,s0
    830e:	40b2                	lw	ra,12(sp)
    8310:	4422                	lw	s0,8(sp)
    8312:	4492                	lw	s1,4(sp)
    8314:	4902                	lw	s2,0(sp)
    8316:	0141                	addi	sp,sp,16
    8318:	8082                	ret

0000831a <__sinit>:
    831a:	4d1c                	lw	a5,24(a0)
    831c:	e7b5                	bnez	a5,8388 <__sinit+0x6e>
    831e:	1141                	addi	sp,sp,-16
    8320:	c606                	sw	ra,12(sp)
    8322:	c422                	sw	s0,8(sp)
    8324:	00000797          	auipc	a5,0x0
    8328:	fa478793          	addi	a5,a5,-92 # 82c8 <_cleanup_r>
    832c:	d51c                	sw	a5,40(a0)
    832e:	00005797          	auipc	a5,0x5
    8332:	3de78793          	addi	a5,a5,990 # d70c <_global_impure_ptr>
    8336:	439c                	lw	a5,0(a5)
    8338:	04052423          	sw	zero,72(a0)
    833c:	04052623          	sw	zero,76(a0)
    8340:	04052823          	sw	zero,80(a0)
    8344:	00f51463          	bne	a0,a5,834c <__sinit+0x32>
    8348:	4785                	li	a5,1
    834a:	cd1c                	sw	a5,24(a0)
    834c:	842a                	mv	s0,a0
    834e:	2835                	jal	838a <__sfp>
    8350:	c048                	sw	a0,4(s0)
    8352:	8522                	mv	a0,s0
    8354:	281d                	jal	838a <__sfp>
    8356:	c408                	sw	a0,8(s0)
    8358:	8522                	mv	a0,s0
    835a:	2805                	jal	838a <__sfp>
    835c:	c448                	sw	a0,12(s0)
    835e:	4048                	lw	a0,4(s0)
    8360:	4601                	li	a2,0
    8362:	4591                	li	a1,4
    8364:	efbff0ef          	jal	ra,825e <std>
    8368:	4408                	lw	a0,8(s0)
    836a:	4605                	li	a2,1
    836c:	45a5                	li	a1,9
    836e:	ef1ff0ef          	jal	ra,825e <std>
    8372:	4448                	lw	a0,12(s0)
    8374:	4609                	li	a2,2
    8376:	45c9                	li	a1,18
    8378:	ee7ff0ef          	jal	ra,825e <std>
    837c:	4785                	li	a5,1
    837e:	cc1c                	sw	a5,24(s0)
    8380:	40b2                	lw	ra,12(sp)
    8382:	4422                	lw	s0,8(sp)
    8384:	0141                	addi	sp,sp,16
    8386:	8082                	ret
    8388:	8082                	ret

0000838a <__sfp>:
    838a:	1141                	addi	sp,sp,-16
    838c:	00005797          	auipc	a5,0x5
    8390:	38078793          	addi	a5,a5,896 # d70c <_global_impure_ptr>
    8394:	c226                	sw	s1,4(sp)
    8396:	4384                	lw	s1,0(a5)
    8398:	c04a                	sw	s2,0(sp)
    839a:	c606                	sw	ra,12(sp)
    839c:	4c9c                	lw	a5,24(s1)
    839e:	c422                	sw	s0,8(sp)
    83a0:	892a                	mv	s2,a0
    83a2:	e781                	bnez	a5,83aa <__sfp+0x20>
    83a4:	8526                	mv	a0,s1
    83a6:	f75ff0ef          	jal	ra,831a <__sinit>
    83aa:	04848493          	addi	s1,s1,72
    83ae:	4480                	lw	s0,8(s1)
    83b0:	40dc                	lw	a5,4(s1)
    83b2:	17fd                	addi	a5,a5,-1
    83b4:	0007d663          	bgez	a5,83c0 <__sfp+0x36>
    83b8:	409c                	lw	a5,0(s1)
    83ba:	cfb9                	beqz	a5,8418 <__sfp+0x8e>
    83bc:	4084                	lw	s1,0(s1)
    83be:	bfc5                	j	83ae <__sfp+0x24>
    83c0:	00c41703          	lh	a4,12(s0)
    83c4:	e739                	bnez	a4,8412 <__sfp+0x88>
    83c6:	77c1                	lui	a5,0xffff0
    83c8:	0785                	addi	a5,a5,1
    83ca:	06042223          	sw	zero,100(s0)
    83ce:	00042023          	sw	zero,0(s0)
    83d2:	00042223          	sw	zero,4(s0)
    83d6:	00042423          	sw	zero,8(s0)
    83da:	c45c                	sw	a5,12(s0)
    83dc:	00042823          	sw	zero,16(s0)
    83e0:	00042a23          	sw	zero,20(s0)
    83e4:	00042c23          	sw	zero,24(s0)
    83e8:	4621                	li	a2,8
    83ea:	4581                	li	a1,0
    83ec:	05c40513          	addi	a0,s0,92
    83f0:	fcaf80ef          	jal	ra,bba <memset>
    83f4:	02042a23          	sw	zero,52(s0)
    83f8:	02042c23          	sw	zero,56(s0)
    83fc:	04042423          	sw	zero,72(s0)
    8400:	04042623          	sw	zero,76(s0)
    8404:	8522                	mv	a0,s0
    8406:	40b2                	lw	ra,12(sp)
    8408:	4422                	lw	s0,8(sp)
    840a:	4492                	lw	s1,4(sp)
    840c:	4902                	lw	s2,0(sp)
    840e:	0141                	addi	sp,sp,16
    8410:	8082                	ret
    8412:	06840413          	addi	s0,s0,104
    8416:	bf71                	j	83b2 <__sfp+0x28>
    8418:	4591                	li	a1,4
    841a:	854a                	mv	a0,s2
    841c:	eb7ff0ef          	jal	ra,82d2 <__sfmoreglue>
    8420:	c088                	sw	a0,0(s1)
    8422:	fd49                	bnez	a0,83bc <__sfp+0x32>
    8424:	47b1                	li	a5,12
    8426:	00f92023          	sw	a5,0(s2)
    842a:	4401                	li	s0,0
    842c:	bfe1                	j	8404 <__sfp+0x7a>

0000842e <_fwalk_reent>:
    842e:	7179                	addi	sp,sp,-48
    8430:	d422                	sw	s0,40(sp)
    8432:	d04a                	sw	s2,32(sp)
    8434:	cc52                	sw	s4,24(sp)
    8436:	ca56                	sw	s5,20(sp)
    8438:	c85a                	sw	s6,16(sp)
    843a:	c65e                	sw	s7,12(sp)
    843c:	d606                	sw	ra,44(sp)
    843e:	d226                	sw	s1,36(sp)
    8440:	ce4e                	sw	s3,28(sp)
    8442:	8a2a                	mv	s4,a0
    8444:	8aae                	mv	s5,a1
    8446:	04850413          	addi	s0,a0,72
    844a:	4901                	li	s2,0
    844c:	4b05                	li	s6,1
    844e:	5bfd                	li	s7,-1
    8450:	ec09                	bnez	s0,846a <_fwalk_reent+0x3c>
    8452:	50b2                	lw	ra,44(sp)
    8454:	5422                	lw	s0,40(sp)
    8456:	854a                	mv	a0,s2
    8458:	5492                	lw	s1,36(sp)
    845a:	5902                	lw	s2,32(sp)
    845c:	49f2                	lw	s3,28(sp)
    845e:	4a62                	lw	s4,24(sp)
    8460:	4ad2                	lw	s5,20(sp)
    8462:	4b42                	lw	s6,16(sp)
    8464:	4bb2                	lw	s7,12(sp)
    8466:	6145                	addi	sp,sp,48
    8468:	8082                	ret
    846a:	4404                	lw	s1,8(s0)
    846c:	00442983          	lw	s3,4(s0)
    8470:	19fd                	addi	s3,s3,-1
    8472:	0009d463          	bgez	s3,847a <_fwalk_reent+0x4c>
    8476:	4000                	lw	s0,0(s0)
    8478:	bfe1                	j	8450 <_fwalk_reent+0x22>
    847a:	00c4d783          	lhu	a5,12(s1)
    847e:	00fb7b63          	bgeu	s6,a5,8494 <_fwalk_reent+0x66>
    8482:	00e49783          	lh	a5,14(s1)
    8486:	01778763          	beq	a5,s7,8494 <_fwalk_reent+0x66>
    848a:	85a6                	mv	a1,s1
    848c:	8552                	mv	a0,s4
    848e:	9a82                	jalr	s5
    8490:	00a96933          	or	s2,s2,a0
    8494:	06848493          	addi	s1,s1,104
    8498:	bfe1                	j	8470 <_fwalk_reent+0x42>

0000849a <rshift>:
    849a:	4910                	lw	a2,16(a0)
    849c:	01450693          	addi	a3,a0,20
    84a0:	4055d713          	srai	a4,a1,0x5
    84a4:	87b6                	mv	a5,a3
    84a6:	02c75663          	bge	a4,a2,84d2 <rshift+0x38>
    84aa:	060a                	slli	a2,a2,0x2
    84ac:	070a                	slli	a4,a4,0x2
    84ae:	89fd                	andi	a1,a1,31
    84b0:	9636                	add	a2,a2,a3
    84b2:	9736                	add	a4,a4,a3
    84b4:	c9b9                	beqz	a1,850a <rshift+0x70>
    84b6:	00470813          	addi	a6,a4,4
    84ba:	4318                	lw	a4,0(a4)
    84bc:	02000313          	li	t1,32
    84c0:	40b30333          	sub	t1,t1,a1
    84c4:	00b75733          	srl	a4,a4,a1
    84c8:	00c86e63          	bltu	a6,a2,84e4 <rshift+0x4a>
    84cc:	c398                	sw	a4,0(a5)
    84ce:	c311                	beqz	a4,84d2 <rshift+0x38>
    84d0:	0791                	addi	a5,a5,4
    84d2:	40d78733          	sub	a4,a5,a3
    84d6:	8709                	srai	a4,a4,0x2
    84d8:	c918                	sw	a4,16(a0)
    84da:	00d79463          	bne	a5,a3,84e2 <rshift+0x48>
    84de:	00052a23          	sw	zero,20(a0)
    84e2:	8082                	ret
    84e4:	00082883          	lw	a7,0(a6)
    84e8:	0791                	addi	a5,a5,4
    84ea:	0811                	addi	a6,a6,4
    84ec:	006898b3          	sll	a7,a7,t1
    84f0:	00e8e733          	or	a4,a7,a4
    84f4:	fee7ae23          	sw	a4,-4(a5) # fffefffc <_eusrstack+0xdffe7ffc>
    84f8:	ffc82703          	lw	a4,-4(a6)
    84fc:	b7e1                	j	84c4 <rshift+0x2a>
    84fe:	0711                	addi	a4,a4,4
    8500:	ffc72583          	lw	a1,-4(a4)
    8504:	0791                	addi	a5,a5,4
    8506:	feb7ae23          	sw	a1,-4(a5)
    850a:	fec76ae3          	bltu	a4,a2,84fe <rshift+0x64>
    850e:	b7d1                	j	84d2 <rshift+0x38>

00008510 <__hexdig_fun>:
    8510:	fd050793          	addi	a5,a0,-48
    8514:	0ff7f793          	andi	a5,a5,255
    8518:	4725                	li	a4,9
    851a:	00f76763          	bltu	a4,a5,8528 <__hexdig_fun+0x18>
    851e:	1501                	addi	a0,a0,-32
    8520:	0ff57793          	andi	a5,a0,255
    8524:	853e                	mv	a0,a5
    8526:	8082                	ret
    8528:	f9f50793          	addi	a5,a0,-97
    852c:	0ff7f793          	andi	a5,a5,255
    8530:	4695                	li	a3,5
    8532:	00f6e563          	bltu	a3,a5,853c <__hexdig_fun+0x2c>
    8536:	fb950513          	addi	a0,a0,-71
    853a:	b7dd                	j	8520 <__hexdig_fun+0x10>
    853c:	fbf50713          	addi	a4,a0,-65
    8540:	0ff77713          	andi	a4,a4,255
    8544:	4781                	li	a5,0
    8546:	fce6efe3          	bltu	a3,a4,8524 <__hexdig_fun+0x14>
    854a:	fd950513          	addi	a0,a0,-39
    854e:	bfc9                	j	8520 <__hexdig_fun+0x10>

00008550 <__gethex>:
    8550:	711d                	addi	sp,sp,-96
    8552:	c2d6                	sw	s5,68(sp)
    8554:	8aaa                	mv	s5,a0
    8556:	8542                	mv	a0,a6
    8558:	c636                	sw	a3,12(sp)
    855a:	c23a                	sw	a4,4(sp)
    855c:	ce86                	sw	ra,92(sp)
    855e:	c8ca                	sw	s2,80(sp)
    8560:	c4d2                	sw	s4,72(sp)
    8562:	c0da                	sw	s6,64(sp)
    8564:	de5e                	sw	s7,60(sp)
    8566:	8b3e                	mv	s6,a5
    8568:	d66e                	sw	s11,44(sp)
    856a:	8932                	mv	s2,a2
    856c:	8dae                	mv	s11,a1
    856e:	cca2                	sw	s0,88(sp)
    8570:	caa6                	sw	s1,84(sp)
    8572:	c6ce                	sw	s3,76(sp)
    8574:	dc62                	sw	s8,56(sp)
    8576:	da66                	sw	s9,52(sp)
    8578:	d86a                	sw	s10,48(sp)
    857a:	2585                	jal	8bda <__localeconv_l>
    857c:	00052b83          	lw	s7,0(a0)
    8580:	855e                	mv	a0,s7
    8582:	d6ffd0ef          	jal	ra,62f0 <strlen>
    8586:	00ab87b3          	add	a5,s7,a0
    858a:	000da683          	lw	a3,0(s11)
    858e:	fff7c783          	lbu	a5,-1(a5)
    8592:	5779                	li	a4,-2
    8594:	8f15                	sub	a4,a4,a3
    8596:	c83e                	sw	a5,16(sp)
    8598:	8a2a                	mv	s4,a0
    859a:	00268793          	addi	a5,a3,2
    859e:	03000693          	li	a3,48
    85a2:	00f70633          	add	a2,a4,a5
    85a6:	84be                	mv	s1,a5
    85a8:	0785                	addi	a5,a5,1
    85aa:	fff7c503          	lbu	a0,-1(a5)
    85ae:	c432                	sw	a2,8(sp)
    85b0:	fed509e3          	beq	a0,a3,85a2 <__gethex+0x52>
    85b4:	f5dff0ef          	jal	ra,8510 <__hexdig_fun>
    85b8:	10051f63          	bnez	a0,86d6 <__gethex+0x186>
    85bc:	8652                	mv	a2,s4
    85be:	85de                	mv	a1,s7
    85c0:	8526                	mv	a0,s1
    85c2:	d41fd0ef          	jal	ra,6302 <strncmp>
    85c6:	10051d63          	bnez	a0,86e0 <__gethex+0x190>
    85ca:	01448c33          	add	s8,s1,s4
    85ce:	000c4503          	lbu	a0,0(s8)
    85d2:	f3fff0ef          	jal	ra,8510 <__hexdig_fun>
    85d6:	10050663          	beqz	a0,86e2 <__gethex+0x192>
    85da:	84e2                	mv	s1,s8
    85dc:	03000793          	li	a5,48
    85e0:	0004c503          	lbu	a0,0(s1)
    85e4:	00f50b63          	beq	a0,a5,85fa <__gethex+0xaa>
    85e8:	f29ff0ef          	jal	ra,8510 <__hexdig_fun>
    85ec:	4785                	li	a5,1
    85ee:	00153993          	seqz	s3,a0
    85f2:	8ce2                	mv	s9,s8
    85f4:	c43e                	sw	a5,8(sp)
    85f6:	8c26                	mv	s8,s1
    85f8:	a021                	j	8600 <__gethex+0xb0>
    85fa:	0485                	addi	s1,s1,1
    85fc:	b7d5                	j	85e0 <__gethex+0x90>
    85fe:	0c05                	addi	s8,s8,1
    8600:	000c4503          	lbu	a0,0(s8)
    8604:	f0dff0ef          	jal	ra,8510 <__hexdig_fun>
    8608:	f97d                	bnez	a0,85fe <__gethex+0xae>
    860a:	8652                	mv	a2,s4
    860c:	85de                	mv	a1,s7
    860e:	8562                	mv	a0,s8
    8610:	cf3fd0ef          	jal	ra,6302 <strncmp>
    8614:	e911                	bnez	a0,8628 <__gethex+0xd8>
    8616:	000c9c63          	bnez	s9,862e <__gethex+0xde>
    861a:	9c52                	add	s8,s8,s4
    861c:	8ce2                	mv	s9,s8
    861e:	000c4503          	lbu	a0,0(s8)
    8622:	eefff0ef          	jal	ra,8510 <__hexdig_fun>
    8626:	e95d                	bnez	a0,86dc <__gethex+0x18c>
    8628:	4401                	li	s0,0
    862a:	000c8563          	beqz	s9,8634 <__gethex+0xe4>
    862e:	418c8433          	sub	s0,s9,s8
    8632:	040a                	slli	s0,s0,0x2
    8634:	000c4783          	lbu	a5,0(s8)
    8638:	05000713          	li	a4,80
    863c:	00e78763          	beq	a5,a4,864a <__gethex+0xfa>
    8640:	07000613          	li	a2,112
    8644:	8ce2                	mv	s9,s8
    8646:	06c79063          	bne	a5,a2,86a6 <__gethex+0x156>
    864a:	001c4783          	lbu	a5,1(s8)
    864e:	02b00713          	li	a4,43
    8652:	08e78b63          	beq	a5,a4,86e8 <__gethex+0x198>
    8656:	02d00713          	li	a4,45
    865a:	08e78b63          	beq	a5,a4,86f0 <__gethex+0x1a0>
    865e:	001c0c93          	addi	s9,s8,1
    8662:	4d01                	li	s10,0
    8664:	000cc503          	lbu	a0,0(s9)
    8668:	ea9ff0ef          	jal	ra,8510 <__hexdig_fun>
    866c:	fff50793          	addi	a5,a0,-1
    8670:	0ff7f793          	andi	a5,a5,255
    8674:	45e1                	li	a1,24
    8676:	08f5e463          	bltu	a1,a5,86fe <__gethex+0x1ae>
    867a:	ff050793          	addi	a5,a0,-16
    867e:	0c85                	addi	s9,s9,1
    8680:	000cc503          	lbu	a0,0(s9)
    8684:	ca3e                	sw	a5,20(sp)
    8686:	e8bff0ef          	jal	ra,8510 <__hexdig_fun>
    868a:	fff50593          	addi	a1,a0,-1
    868e:	0ff5f593          	andi	a1,a1,255
    8692:	4861                	li	a6,24
    8694:	47d2                	lw	a5,20(sp)
    8696:	48a9                	li	a7,10
    8698:	04b87e63          	bgeu	a6,a1,86f4 <__gethex+0x1a4>
    869c:	000d0463          	beqz	s10,86a4 <__gethex+0x154>
    86a0:	40f007b3          	neg	a5,a5
    86a4:	943e                	add	s0,s0,a5
    86a6:	019da023          	sw	s9,0(s11)
    86aa:	04098c63          	beqz	s3,8702 <__gethex+0x1b2>
    86ae:	47a2                	lw	a5,8(sp)
    86b0:	4481                	li	s1,0
    86b2:	e391                	bnez	a5,86b6 <__gethex+0x166>
    86b4:	4499                	li	s1,6
    86b6:	40f6                	lw	ra,92(sp)
    86b8:	4466                	lw	s0,88(sp)
    86ba:	8526                	mv	a0,s1
    86bc:	4946                	lw	s2,80(sp)
    86be:	44d6                	lw	s1,84(sp)
    86c0:	49b6                	lw	s3,76(sp)
    86c2:	4a26                	lw	s4,72(sp)
    86c4:	4a96                	lw	s5,68(sp)
    86c6:	4b06                	lw	s6,64(sp)
    86c8:	5bf2                	lw	s7,60(sp)
    86ca:	5c62                	lw	s8,56(sp)
    86cc:	5cd2                	lw	s9,52(sp)
    86ce:	5d42                	lw	s10,48(sp)
    86d0:	5db2                	lw	s11,44(sp)
    86d2:	6125                	addi	sp,sp,96
    86d4:	8082                	ret
    86d6:	4981                	li	s3,0
    86d8:	4c81                	li	s9,0
    86da:	bf31                	j	85f6 <__gethex+0xa6>
    86dc:	0c05                	addi	s8,s8,1
    86de:	b781                	j	861e <__gethex+0xce>
    86e0:	8c26                	mv	s8,s1
    86e2:	4401                	li	s0,0
    86e4:	4985                	li	s3,1
    86e6:	b7b9                	j	8634 <__gethex+0xe4>
    86e8:	4d01                	li	s10,0
    86ea:	002c0c93          	addi	s9,s8,2
    86ee:	bf9d                	j	8664 <__gethex+0x114>
    86f0:	4d05                	li	s10,1
    86f2:	bfe5                	j	86ea <__gethex+0x19a>
    86f4:	031787b3          	mul	a5,a5,a7
    86f8:	97aa                	add	a5,a5,a0
    86fa:	17c1                	addi	a5,a5,-16
    86fc:	b749                	j	867e <__gethex+0x12e>
    86fe:	8ce2                	mv	s9,s8
    8700:	b75d                	j	86a6 <__gethex+0x156>
    8702:	409c07b3          	sub	a5,s8,s1
    8706:	17fd                	addi	a5,a5,-1
    8708:	4581                	li	a1,0
    870a:	471d                	li	a4,7
    870c:	0af74463          	blt	a4,a5,87b4 <__gethex+0x264>
    8710:	8556                	mv	a0,s5
    8712:	2501                	jal	8d12 <_Balloc>
    8714:	4605                	li	a2,1
    8716:	01450993          	addi	s3,a0,20
    871a:	414607b3          	sub	a5,a2,s4
    871e:	8daa                	mv	s11,a0
    8720:	8d4e                	mv	s10,s3
    8722:	4881                	li	a7,0
    8724:	4c81                	li	s9,0
    8726:	ca3e                	sw	a5,20(sp)
    8728:	0984e963          	bltu	s1,s8,87ba <__gethex+0x26a>
    872c:	004d0513          	addi	a0,s10,4
    8730:	41350533          	sub	a0,a0,s3
    8734:	8509                	srai	a0,a0,0x2
    8736:	019d2023          	sw	s9,0(s10)
    873a:	00ada823          	sw	a0,16(s11)
    873e:	00551493          	slli	s1,a0,0x5
    8742:	8566                	mv	a0,s9
    8744:	7dc000ef          	jal	ra,8f20 <__hi0bits>
    8748:	00092b83          	lw	s7,0(s2)
    874c:	8c89                	sub	s1,s1,a0
    874e:	0c9bd863          	bge	s7,s1,881e <__gethex+0x2ce>
    8752:	417484b3          	sub	s1,s1,s7
    8756:	85a6                	mv	a1,s1
    8758:	856e                	mv	a0,s11
    875a:	6ff000ef          	jal	ra,9658 <__any_on>
    875e:	8a2a                	mv	s4,a0
    8760:	c905                	beqz	a0,8790 <__gethex+0x240>
    8762:	fff48613          	addi	a2,s1,-1
    8766:	40565693          	srai	a3,a2,0x5
    876a:	068a                	slli	a3,a3,0x2
    876c:	96ce                	add	a3,a3,s3
    876e:	4294                	lw	a3,0(a3)
    8770:	4705                	li	a4,1
    8772:	00c71733          	sll	a4,a4,a2
    8776:	8f75                	and	a4,a4,a3
    8778:	4a05                	li	s4,1
    877a:	cb19                	beqz	a4,8790 <__gethex+0x240>
    877c:	00ca5963          	bge	s4,a2,878e <__gethex+0x23e>
    8780:	ffe48593          	addi	a1,s1,-2
    8784:	856e                	mv	a0,s11
    8786:	6d3000ef          	jal	ra,9658 <__any_on>
    878a:	4a0d                	li	s4,3
    878c:	e111                	bnez	a0,8790 <__gethex+0x240>
    878e:	4a09                	li	s4,2
    8790:	85a6                	mv	a1,s1
    8792:	856e                	mv	a0,s11
    8794:	d07ff0ef          	jal	ra,849a <rshift>
    8798:	9426                	add	s0,s0,s1
    879a:	00892703          	lw	a4,8(s2)
    879e:	08875f63          	bge	a4,s0,883c <__gethex+0x2ec>
    87a2:	85ee                	mv	a1,s11
    87a4:	8556                	mv	a0,s5
    87a6:	2be5                	jal	8d9e <_Bfree>
    87a8:	4792                	lw	a5,4(sp)
    87aa:	0a300493          	li	s1,163
    87ae:	0007a023          	sw	zero,0(a5)
    87b2:	b711                	j	86b6 <__gethex+0x166>
    87b4:	0585                	addi	a1,a1,1
    87b6:	8785                	srai	a5,a5,0x1
    87b8:	bf91                	j	870c <__gethex+0x1bc>
    87ba:	fffc0793          	addi	a5,s8,-1
    87be:	c43e                	sw	a5,8(sp)
    87c0:	fffc4603          	lbu	a2,-1(s8)
    87c4:	47c2                	lw	a5,16(sp)
    87c6:	02f60963          	beq	a2,a5,87f8 <__gethex+0x2a8>
    87ca:	02000793          	li	a5,32
    87ce:	00f89763          	bne	a7,a5,87dc <__gethex+0x28c>
    87d2:	019d2023          	sw	s9,0(s10)
    87d6:	4881                	li	a7,0
    87d8:	0d11                	addi	s10,s10,4
    87da:	4c81                	li	s9,0
    87dc:	fffc4503          	lbu	a0,-1(s8)
    87e0:	cc46                	sw	a7,24(sp)
    87e2:	d2fff0ef          	jal	ra,8510 <__hexdig_fun>
    87e6:	48e2                	lw	a7,24(sp)
    87e8:	893d                	andi	a0,a0,15
    87ea:	4322                	lw	t1,8(sp)
    87ec:	01151533          	sll	a0,a0,a7
    87f0:	00acecb3          	or	s9,s9,a0
    87f4:	0891                	addi	a7,a7,4
    87f6:	a015                	j	881a <__gethex+0x2ca>
    87f8:	4752                	lw	a4,20(sp)
    87fa:	fffc0793          	addi	a5,s8,-1
    87fe:	00e78333          	add	t1,a5,a4
    8802:	fc9364e3          	bltu	t1,s1,87ca <__gethex+0x27a>
    8806:	851a                	mv	a0,t1
    8808:	8652                	mv	a2,s4
    880a:	85de                	mv	a1,s7
    880c:	ce46                	sw	a7,28(sp)
    880e:	cc1a                	sw	t1,24(sp)
    8810:	af3fd0ef          	jal	ra,6302 <strncmp>
    8814:	4362                	lw	t1,24(sp)
    8816:	48f2                	lw	a7,28(sp)
    8818:	f94d                	bnez	a0,87ca <__gethex+0x27a>
    881a:	8c1a                	mv	s8,t1
    881c:	b731                	j	8728 <__gethex+0x1d8>
    881e:	4a01                	li	s4,0
    8820:	f774dde3          	bge	s1,s7,879a <__gethex+0x24a>
    8824:	409b84b3          	sub	s1,s7,s1
    8828:	85ee                	mv	a1,s11
    882a:	8626                	mv	a2,s1
    882c:	8556                	mv	a0,s5
    882e:	1c1000ef          	jal	ra,91ee <__lshift>
    8832:	8daa                	mv	s11,a0
    8834:	8c05                	sub	s0,s0,s1
    8836:	01450993          	addi	s3,a0,20
    883a:	b785                	j	879a <__gethex+0x24a>
    883c:	00492703          	lw	a4,4(s2)
    8840:	0ee45563          	bge	s0,a4,892a <__gethex+0x3da>
    8844:	40870433          	sub	s0,a4,s0
    8848:	07744563          	blt	s0,s7,88b2 <__gethex+0x362>
    884c:	00c92703          	lw	a4,12(s2)
    8850:	4689                	li	a3,2
    8852:	04d70a63          	beq	a4,a3,88a6 <__gethex+0x356>
    8856:	468d                	li	a3,3
    8858:	04d70a63          	beq	a4,a3,88ac <__gethex+0x35c>
    885c:	4685                	li	a3,1
    885e:	02d71b63          	bne	a4,a3,8894 <__gethex+0x344>
    8862:	028b9963          	bne	s7,s0,8894 <__gethex+0x344>
    8866:	02eb9163          	bne	s7,a4,8888 <__gethex+0x338>
    886a:	00492703          	lw	a4,4(s2)
    886e:	47b2                	lw	a5,12(sp)
    8870:	06200493          	li	s1,98
    8874:	c398                	sw	a4,0(a5)
    8876:	4705                	li	a4,1
    8878:	4792                	lw	a5,4(sp)
    887a:	00eda823          	sw	a4,16(s11)
    887e:	00e9a023          	sw	a4,0(s3)
    8882:	01b7a023          	sw	s11,0(a5)
    8886:	bd05                	j	86b6 <__gethex+0x166>
    8888:	fffb8593          	addi	a1,s7,-1
    888c:	856e                	mv	a0,s11
    888e:	5cb000ef          	jal	ra,9658 <__any_on>
    8892:	fd61                	bnez	a0,886a <__gethex+0x31a>
    8894:	85ee                	mv	a1,s11
    8896:	8556                	mv	a0,s5
    8898:	2319                	jal	8d9e <_Bfree>
    889a:	4792                	lw	a5,4(sp)
    889c:	05000493          	li	s1,80
    88a0:	0007a023          	sw	zero,0(a5)
    88a4:	bd09                	j	86b6 <__gethex+0x166>
    88a6:	fe0b17e3          	bnez	s6,8894 <__gethex+0x344>
    88aa:	b7c1                	j	886a <__gethex+0x31a>
    88ac:	fa0b1fe3          	bnez	s6,886a <__gethex+0x31a>
    88b0:	b7d5                	j	8894 <__gethex+0x344>
    88b2:	fff40493          	addi	s1,s0,-1
    88b6:	060a1863          	bnez	s4,8926 <__gethex+0x3d6>
    88ba:	c491                	beqz	s1,88c6 <__gethex+0x376>
    88bc:	85a6                	mv	a1,s1
    88be:	856e                	mv	a0,s11
    88c0:	599000ef          	jal	ra,9658 <__any_on>
    88c4:	8a2a                	mv	s4,a0
    88c6:	4054d713          	srai	a4,s1,0x5
    88ca:	070a                	slli	a4,a4,0x2
    88cc:	974e                	add	a4,a4,s3
    88ce:	4318                	lw	a4,0(a4)
    88d0:	4585                	li	a1,1
    88d2:	009595b3          	sll	a1,a1,s1
    88d6:	8df9                	and	a1,a1,a4
    88d8:	c199                	beqz	a1,88de <__gethex+0x38e>
    88da:	002a6a13          	ori	s4,s4,2
    88de:	85a2                	mv	a1,s0
    88e0:	856e                	mv	a0,s11
    88e2:	408b8bb3          	sub	s7,s7,s0
    88e6:	bb5ff0ef          	jal	ra,849a <rshift>
    88ea:	00492403          	lw	s0,4(s2)
    88ee:	4489                	li	s1,2
    88f0:	080a0b63          	beqz	s4,8986 <__gethex+0x436>
    88f4:	00c92703          	lw	a4,12(s2)
    88f8:	4689                	li	a3,2
    88fa:	02d70a63          	beq	a4,a3,892e <__gethex+0x3de>
    88fe:	468d                	li	a3,3
    8900:	02d70a63          	beq	a4,a3,8934 <__gethex+0x3e4>
    8904:	4685                	li	a3,1
    8906:	00d71d63          	bne	a4,a3,8920 <__gethex+0x3d0>
    890a:	002a7713          	andi	a4,s4,2
    890e:	cb09                	beqz	a4,8920 <__gethex+0x3d0>
    8910:	0009a703          	lw	a4,0(s3)
    8914:	00ea6a33          	or	s4,s4,a4
    8918:	001a7a13          	andi	s4,s4,1
    891c:	000a1e63          	bnez	s4,8938 <__gethex+0x3e8>
    8920:	0104e493          	ori	s1,s1,16
    8924:	a08d                	j	8986 <__gethex+0x436>
    8926:	4a05                	li	s4,1
    8928:	bf79                	j	88c6 <__gethex+0x376>
    892a:	4485                	li	s1,1
    892c:	b7d1                	j	88f0 <__gethex+0x3a0>
    892e:	4705                	li	a4,1
    8930:	41670b33          	sub	s6,a4,s6
    8934:	fe0b06e3          	beqz	s6,8920 <__gethex+0x3d0>
    8938:	010da983          	lw	s3,16(s11)
    893c:	014d8713          	addi	a4,s11,20
    8940:	55fd                	li	a1,-1
    8942:	00299a13          	slli	s4,s3,0x2
    8946:	01470633          	add	a2,a4,s4
    894a:	4314                	lw	a3,0(a4)
    894c:	04b68363          	beq	a3,a1,8992 <__gethex+0x442>
    8950:	0685                	addi	a3,a3,1
    8952:	c314                	sw	a3,0(a4)
    8954:	4689                	li	a3,2
    8956:	014d8713          	addi	a4,s11,20
    895a:	08d49463          	bne	s1,a3,89e2 <__gethex+0x492>
    895e:	00092683          	lw	a3,0(s2)
    8962:	16fd                	addi	a3,a3,-1
    8964:	01769f63          	bne	a3,s7,8982 <__gethex+0x432>
    8968:	405bd693          	srai	a3,s7,0x5
    896c:	068a                	slli	a3,a3,0x2
    896e:	9736                	add	a4,a4,a3
    8970:	4318                	lw	a4,0(a4)
    8972:	4685                	li	a3,1
    8974:	01769bb3          	sll	s7,a3,s7
    8978:	00ebfbb3          	and	s7,s7,a4
    897c:	000b8363          	beqz	s7,8982 <__gethex+0x432>
    8980:	4485                	li	s1,1
    8982:	0204e493          	ori	s1,s1,32
    8986:	4792                	lw	a5,4(sp)
    8988:	01b7a023          	sw	s11,0(a5)
    898c:	47b2                	lw	a5,12(sp)
    898e:	c380                	sw	s0,0(a5)
    8990:	b31d                	j	86b6 <__gethex+0x166>
    8992:	0711                	addi	a4,a4,4
    8994:	fe072e23          	sw	zero,-4(a4)
    8998:	fac769e3          	bltu	a4,a2,894a <__gethex+0x3fa>
    899c:	008da703          	lw	a4,8(s11)
    89a0:	02e9c563          	blt	s3,a4,89ca <__gethex+0x47a>
    89a4:	004da583          	lw	a1,4(s11)
    89a8:	8556                	mv	a0,s5
    89aa:	0585                	addi	a1,a1,1
    89ac:	269d                	jal	8d12 <_Balloc>
    89ae:	010da603          	lw	a2,16(s11)
    89b2:	00cd8593          	addi	a1,s11,12
    89b6:	8b2a                	mv	s6,a0
    89b8:	0609                	addi	a2,a2,2
    89ba:	060a                	slli	a2,a2,0x2
    89bc:	0531                	addi	a0,a0,12
    89be:	ee2fc0ef          	jal	ra,50a0 <memcpy>
    89c2:	85ee                	mv	a1,s11
    89c4:	8556                	mv	a0,s5
    89c6:	2ee1                	jal	8d9e <_Bfree>
    89c8:	8dda                	mv	s11,s6
    89ca:	010da703          	lw	a4,16(s11)
    89ce:	00170693          	addi	a3,a4,1
    89d2:	0711                	addi	a4,a4,4
    89d4:	070a                	slli	a4,a4,0x2
    89d6:	00dda823          	sw	a3,16(s11)
    89da:	976e                	add	a4,a4,s11
    89dc:	4685                	li	a3,1
    89de:	c354                	sw	a3,4(a4)
    89e0:	bf95                	j	8954 <__gethex+0x404>
    89e2:	010da683          	lw	a3,16(s11)
    89e6:	00d9dc63          	bge	s3,a3,89fe <__gethex+0x4ae>
    89ea:	4585                	li	a1,1
    89ec:	856e                	mv	a0,s11
    89ee:	aadff0ef          	jal	ra,849a <rshift>
    89f2:	00892703          	lw	a4,8(s2)
    89f6:	0405                	addi	s0,s0,1
    89f8:	f88754e3          	bge	a4,s0,8980 <__gethex+0x430>
    89fc:	b35d                	j	87a2 <__gethex+0x252>
    89fe:	01fbfb93          	andi	s7,s7,31
    8a02:	4485                	li	s1,1
    8a04:	f60b8fe3          	beqz	s7,8982 <__gethex+0x432>
    8a08:	9752                	add	a4,a4,s4
    8a0a:	ffc72503          	lw	a0,-4(a4)
    8a0e:	2b09                	jal	8f20 <__hi0bits>
    8a10:	02000713          	li	a4,32
    8a14:	41770bb3          	sub	s7,a4,s7
    8a18:	fd7549e3          	blt	a0,s7,89ea <__gethex+0x49a>
    8a1c:	b79d                	j	8982 <__gethex+0x432>

00008a1e <L_shift>:
    8a1e:	47a1                	li	a5,8
    8a20:	40c78633          	sub	a2,a5,a2
    8a24:	060a                	slli	a2,a2,0x2
    8a26:	02000693          	li	a3,32
    8a2a:	8e91                	sub	a3,a3,a2
    8a2c:	415c                	lw	a5,4(a0)
    8a2e:	4118                	lw	a4,0(a0)
    8a30:	0511                	addi	a0,a0,4
    8a32:	00d79833          	sll	a6,a5,a3
    8a36:	01076733          	or	a4,a4,a6
    8a3a:	00c7d7b3          	srl	a5,a5,a2
    8a3e:	fee52e23          	sw	a4,-4(a0)
    8a42:	c11c                	sw	a5,0(a0)
    8a44:	feb564e3          	bltu	a0,a1,8a2c <L_shift+0xe>
    8a48:	8082                	ret

00008a4a <__match>:
    8a4a:	411c                	lw	a5,0(a0)
    8a4c:	4865                	li	a6,25
    8a4e:	0585                	addi	a1,a1,1
    8a50:	fff5c603          	lbu	a2,-1(a1)
    8a54:	0785                	addi	a5,a5,1
    8a56:	e601                	bnez	a2,8a5e <__match+0x14>
    8a58:	c11c                	sw	a5,0(a0)
    8a5a:	4505                	li	a0,1
    8a5c:	8082                	ret
    8a5e:	0007c703          	lbu	a4,0(a5)
    8a62:	fbf70693          	addi	a3,a4,-65
    8a66:	0ff6f693          	andi	a3,a3,255
    8a6a:	00d86463          	bltu	a6,a3,8a72 <__match+0x28>
    8a6e:	02070713          	addi	a4,a4,32
    8a72:	fcc70ee3          	beq	a4,a2,8a4e <__match+0x4>
    8a76:	4501                	li	a0,0
    8a78:	8082                	ret

00008a7a <__hexnan>:
    8a7a:	715d                	addi	sp,sp,-80
    8a7c:	dc52                	sw	s4,56(sp)
    8a7e:	0005aa03          	lw	s4,0(a1)
    8a82:	c2a6                	sw	s1,68(sp)
    8a84:	de4e                	sw	s3,60(sp)
    8a86:	405a5493          	srai	s1,s4,0x5
    8a8a:	d85a                	sw	s6,48(sp)
    8a8c:	048a                	slli	s1,s1,0x2
    8a8e:	c686                	sw	ra,76(sp)
    8a90:	c4a2                	sw	s0,72(sp)
    8a92:	c0ca                	sw	s2,64(sp)
    8a94:	da56                	sw	s5,52(sp)
    8a96:	d65e                	sw	s7,44(sp)
    8a98:	d462                	sw	s8,40(sp)
    8a9a:	d266                	sw	s9,36(sp)
    8a9c:	d06a                	sw	s10,32(sp)
    8a9e:	ce6e                	sw	s11,28(sp)
    8aa0:	01fa7a13          	andi	s4,s4,31
    8aa4:	8b2a                	mv	s6,a0
    8aa6:	89b2                	mv	s3,a2
    8aa8:	94b2                	add	s1,s1,a2
    8aaa:	000a0363          	beqz	s4,8ab0 <__hexnan+0x36>
    8aae:	0491                	addi	s1,s1,4
    8ab0:	000b2783          	lw	a5,0(s6)
    8ab4:	ffc48913          	addi	s2,s1,-4
    8ab8:	fe04ae23          	sw	zero,-4(s1)
    8abc:	8dca                	mv	s11,s2
    8abe:	844a                	mv	s0,s2
    8ac0:	4601                	li	a2,0
    8ac2:	4a81                	li	s5,0
    8ac4:	4b81                	li	s7,0
    8ac6:	4c21                	li	s8,8
    8ac8:	02000c93          	li	s9,32
    8acc:	4d1d                	li	s10,7
    8ace:	0017c683          	lbu	a3,1(a5)
    8ad2:	00178713          	addi	a4,a5,1
    8ad6:	c03a                	sw	a4,0(sp)
    8ad8:	cab1                	beqz	a3,8b2c <__hexnan+0xb2>
    8ada:	8536                	mv	a0,a3
    8adc:	c632                	sw	a2,12(sp)
    8ade:	c43e                	sw	a5,8(sp)
    8ae0:	c236                	sw	a3,4(sp)
    8ae2:	a2fff0ef          	jal	ra,8510 <__hexdig_fun>
    8ae6:	4632                	lw	a2,12(sp)
    8ae8:	e559                	bnez	a0,8b76 <__hexnan+0xfc>
    8aea:	4692                	lw	a3,4(sp)
    8aec:	47a2                	lw	a5,8(sp)
    8aee:	02dce863          	bltu	s9,a3,8b1e <__hexnan+0xa4>
    8af2:	037ad463          	bge	s5,s7,8b1a <__hexnan+0xa0>
    8af6:	01b47863          	bgeu	s0,s11,8b06 <__hexnan+0x8c>
    8afa:	00cd4663          	blt	s10,a2,8b06 <__hexnan+0x8c>
    8afe:	85ee                	mv	a1,s11
    8b00:	8522                	mv	a0,s0
    8b02:	f1dff0ef          	jal	ra,8a1e <L_shift>
    8b06:	4621                	li	a2,8
    8b08:	0089f963          	bgeu	s3,s0,8b1a <__hexnan+0xa0>
    8b0c:	ffc40d93          	addi	s11,s0,-4
    8b10:	fe042e23          	sw	zero,-4(s0)
    8b14:	8ade                	mv	s5,s7
    8b16:	846e                	mv	s0,s11
    8b18:	4601                	li	a2,0
    8b1a:	4782                	lw	a5,0(sp)
    8b1c:	bf4d                	j	8ace <__hexnan+0x54>
    8b1e:	02900593          	li	a1,41
    8b22:	08b69c63          	bne	a3,a1,8bba <__hexnan+0x140>
    8b26:	0789                	addi	a5,a5,2
    8b28:	00fb2023          	sw	a5,0(s6)
    8b2c:	080b8763          	beqz	s7,8bba <__hexnan+0x140>
    8b30:	01b47963          	bgeu	s0,s11,8b42 <__hexnan+0xc8>
    8b34:	479d                	li	a5,7
    8b36:	00c7c663          	blt	a5,a2,8b42 <__hexnan+0xc8>
    8b3a:	85ee                	mv	a1,s11
    8b3c:	8522                	mv	a0,s0
    8b3e:	ee1ff0ef          	jal	ra,8a1e <L_shift>
    8b42:	0489fa63          	bgeu	s3,s0,8b96 <__hexnan+0x11c>
    8b46:	87ce                	mv	a5,s3
    8b48:	0411                	addi	s0,s0,4
    8b4a:	ffc42703          	lw	a4,-4(s0)
    8b4e:	0791                	addi	a5,a5,4
    8b50:	fee7ae23          	sw	a4,-4(a5)
    8b54:	fe897ae3          	bgeu	s2,s0,8b48 <__hexnan+0xce>
    8b58:	0791                	addi	a5,a5,4
    8b5a:	fe07ae23          	sw	zero,-4(a5)
    8b5e:	fef97de3          	bgeu	s2,a5,8b58 <__hexnan+0xde>
    8b62:	00092783          	lw	a5,0(s2)
    8b66:	e791                	bnez	a5,8b72 <__hexnan+0xf8>
    8b68:	05391763          	bne	s2,s3,8bb6 <__hexnan+0x13c>
    8b6c:	4785                	li	a5,1
    8b6e:	00f92023          	sw	a5,0(s2)
    8b72:	4515                	li	a0,5
    8b74:	a0a1                	j	8bbc <__hexnan+0x142>
    8b76:	0605                	addi	a2,a2,1
    8b78:	0b85                	addi	s7,s7,1
    8b7a:	00cc5863          	bge	s8,a2,8b8a <__hexnan+0x110>
    8b7e:	f889fee3          	bgeu	s3,s0,8b1a <__hexnan+0xa0>
    8b82:	fe042e23          	sw	zero,-4(s0)
    8b86:	4605                	li	a2,1
    8b88:	1471                	addi	s0,s0,-4
    8b8a:	401c                	lw	a5,0(s0)
    8b8c:	893d                	andi	a0,a0,15
    8b8e:	0792                	slli	a5,a5,0x4
    8b90:	8fc9                	or	a5,a5,a0
    8b92:	c01c                	sw	a5,0(s0)
    8b94:	b759                	j	8b1a <__hexnan+0xa0>
    8b96:	fc0a06e3          	beqz	s4,8b62 <__hexnan+0xe8>
    8b9a:	02000793          	li	a5,32
    8b9e:	414787b3          	sub	a5,a5,s4
    8ba2:	5a7d                	li	s4,-1
    8ba4:	00fa57b3          	srl	a5,s4,a5
    8ba8:	ffc4aa03          	lw	s4,-4(s1)
    8bac:	00fa7a33          	and	s4,s4,a5
    8bb0:	ff44ae23          	sw	s4,-4(s1)
    8bb4:	b77d                	j	8b62 <__hexnan+0xe8>
    8bb6:	1971                	addi	s2,s2,-4
    8bb8:	b76d                	j	8b62 <__hexnan+0xe8>
    8bba:	4511                	li	a0,4
    8bbc:	40b6                	lw	ra,76(sp)
    8bbe:	4426                	lw	s0,72(sp)
    8bc0:	4496                	lw	s1,68(sp)
    8bc2:	4906                	lw	s2,64(sp)
    8bc4:	59f2                	lw	s3,60(sp)
    8bc6:	5a62                	lw	s4,56(sp)
    8bc8:	5ad2                	lw	s5,52(sp)
    8bca:	5b42                	lw	s6,48(sp)
    8bcc:	5bb2                	lw	s7,44(sp)
    8bce:	5c22                	lw	s8,40(sp)
    8bd0:	5c92                	lw	s9,36(sp)
    8bd2:	5d02                	lw	s10,32(sp)
    8bd4:	4df2                	lw	s11,28(sp)
    8bd6:	6161                	addi	sp,sp,80
    8bd8:	8082                	ret

00008bda <__localeconv_l>:
    8bda:	0f050513          	addi	a0,a0,240
    8bde:	8082                	ret

00008be0 <_localeconv_r>:
    8be0:	80818793          	addi	a5,gp,-2040 # 200010f0 <_impure_ptr>
    8be4:	439c                	lw	a5,0(a5)
    8be6:	5388                	lw	a0,32(a5)
    8be8:	e509                	bnez	a0,8bf2 <_localeconv_r+0x12>
    8bea:	1fff8517          	auipc	a0,0x1fff8
    8bee:	33250513          	addi	a0,a0,818 # 20000f1c <__global_locale>
    8bf2:	0f050513          	addi	a0,a0,240
    8bf6:	8082                	ret

00008bf8 <__swhatbuf_r>:
    8bf8:	7119                	addi	sp,sp,-128
    8bfa:	daa6                	sw	s1,116(sp)
    8bfc:	84ae                	mv	s1,a1
    8bfe:	00e59583          	lh	a1,14(a1)
    8c02:	dca2                	sw	s0,120(sp)
    8c04:	de86                	sw	ra,124(sp)
    8c06:	8432                	mv	s0,a2
    8c08:	0005dc63          	bgez	a1,8c20 <__swhatbuf_r+0x28>
    8c0c:	00c4d783          	lhu	a5,12(s1)
    8c10:	0006a023          	sw	zero,0(a3)
    8c14:	0807f793          	andi	a5,a5,128
    8c18:	e785                	bnez	a5,8c40 <__swhatbuf_r+0x48>
    8c1a:	40000793          	li	a5,1024
    8c1e:	a01d                	j	8c44 <__swhatbuf_r+0x4c>
    8c20:	0830                	addi	a2,sp,24
    8c22:	c636                	sw	a3,12(sp)
    8c24:	288010ef          	jal	ra,9eac <_fstat_r>
    8c28:	46b2                	lw	a3,12(sp)
    8c2a:	fe0541e3          	bltz	a0,8c0c <__swhatbuf_r+0x14>
    8c2e:	4772                	lw	a4,28(sp)
    8c30:	67bd                	lui	a5,0xf
    8c32:	8ff9                	and	a5,a5,a4
    8c34:	7779                	lui	a4,0xffffe
    8c36:	97ba                	add	a5,a5,a4
    8c38:	0017b793          	seqz	a5,a5
    8c3c:	c29c                	sw	a5,0(a3)
    8c3e:	bff1                	j	8c1a <__swhatbuf_r+0x22>
    8c40:	04000793          	li	a5,64
    8c44:	c01c                	sw	a5,0(s0)
    8c46:	50f6                	lw	ra,124(sp)
    8c48:	5466                	lw	s0,120(sp)
    8c4a:	54d6                	lw	s1,116(sp)
    8c4c:	4501                	li	a0,0
    8c4e:	6109                	addi	sp,sp,128
    8c50:	8082                	ret

00008c52 <__smakebuf_r>:
    8c52:	00c5d783          	lhu	a5,12(a1)
    8c56:	1101                	addi	sp,sp,-32
    8c58:	cc22                	sw	s0,24(sp)
    8c5a:	ce06                	sw	ra,28(sp)
    8c5c:	ca26                	sw	s1,20(sp)
    8c5e:	c84a                	sw	s2,16(sp)
    8c60:	8b89                	andi	a5,a5,2
    8c62:	842e                	mv	s0,a1
    8c64:	cf89                	beqz	a5,8c7e <__smakebuf_r+0x2c>
    8c66:	04740793          	addi	a5,s0,71
    8c6a:	c01c                	sw	a5,0(s0)
    8c6c:	c81c                	sw	a5,16(s0)
    8c6e:	4785                	li	a5,1
    8c70:	c85c                	sw	a5,20(s0)
    8c72:	40f2                	lw	ra,28(sp)
    8c74:	4462                	lw	s0,24(sp)
    8c76:	44d2                	lw	s1,20(sp)
    8c78:	4942                	lw	s2,16(sp)
    8c7a:	6105                	addi	sp,sp,32
    8c7c:	8082                	ret
    8c7e:	0074                	addi	a3,sp,12
    8c80:	0030                	addi	a2,sp,8
    8c82:	84aa                	mv	s1,a0
    8c84:	f75ff0ef          	jal	ra,8bf8 <__swhatbuf_r>
    8c88:	45a2                	lw	a1,8(sp)
    8c8a:	892a                	mv	s2,a0
    8c8c:	8526                	mv	a0,s1
    8c8e:	d70fc0ef          	jal	ra,51fe <_malloc_r>
    8c92:	ed01                	bnez	a0,8caa <__smakebuf_r+0x58>
    8c94:	00c41783          	lh	a5,12(s0)
    8c98:	2007f713          	andi	a4,a5,512
    8c9c:	fb79                	bnez	a4,8c72 <__smakebuf_r+0x20>
    8c9e:	9bf1                	andi	a5,a5,-4
    8ca0:	0027e793          	ori	a5,a5,2
    8ca4:	00f41623          	sh	a5,12(s0)
    8ca8:	bf7d                	j	8c66 <__smakebuf_r+0x14>
    8caa:	fffff797          	auipc	a5,0xfffff
    8cae:	61e78793          	addi	a5,a5,1566 # 82c8 <_cleanup_r>
    8cb2:	d49c                	sw	a5,40(s1)
    8cb4:	00c45783          	lhu	a5,12(s0)
    8cb8:	c008                	sw	a0,0(s0)
    8cba:	c808                	sw	a0,16(s0)
    8cbc:	0807e793          	ori	a5,a5,128
    8cc0:	00f41623          	sh	a5,12(s0)
    8cc4:	47a2                	lw	a5,8(sp)
    8cc6:	c85c                	sw	a5,20(s0)
    8cc8:	47b2                	lw	a5,12(sp)
    8cca:	cf91                	beqz	a5,8ce6 <__smakebuf_r+0x94>
    8ccc:	00e41583          	lh	a1,14(s0)
    8cd0:	8526                	mv	a0,s1
    8cd2:	206010ef          	jal	ra,9ed8 <_isatty_r>
    8cd6:	c901                	beqz	a0,8ce6 <__smakebuf_r+0x94>
    8cd8:	00c45783          	lhu	a5,12(s0)
    8cdc:	9bf1                	andi	a5,a5,-4
    8cde:	0017e793          	ori	a5,a5,1
    8ce2:	00f41623          	sh	a5,12(s0)
    8ce6:	00c45783          	lhu	a5,12(s0)
    8cea:	00f96933          	or	s2,s2,a5
    8cee:	01241623          	sh	s2,12(s0)
    8cf2:	b741                	j	8c72 <__smakebuf_r+0x20>

00008cf4 <memchr>:
    8cf4:	0ff5f593          	andi	a1,a1,255
    8cf8:	962a                	add	a2,a2,a0
    8cfa:	00c51463          	bne	a0,a2,8d02 <memchr+0xe>
    8cfe:	4501                	li	a0,0
    8d00:	8082                	ret
    8d02:	00054783          	lbu	a5,0(a0)
    8d06:	feb78de3          	beq	a5,a1,8d00 <memchr+0xc>
    8d0a:	0505                	addi	a0,a0,1
    8d0c:	b7fd                	j	8cfa <memchr+0x6>

00008d0e <__malloc_lock>:
    8d0e:	8082                	ret

00008d10 <__malloc_unlock>:
    8d10:	8082                	ret

00008d12 <_Balloc>:
    8d12:	515c                	lw	a5,36(a0)
    8d14:	1141                	addi	sp,sp,-16
    8d16:	c422                	sw	s0,8(sp)
    8d18:	c04a                	sw	s2,0(sp)
    8d1a:	c606                	sw	ra,12(sp)
    8d1c:	c226                	sw	s1,4(sp)
    8d1e:	842a                	mv	s0,a0
    8d20:	892e                	mv	s2,a1
    8d22:	ef89                	bnez	a5,8d3c <_Balloc+0x2a>
    8d24:	4541                	li	a0,16
    8d26:	b10fc0ef          	jal	ra,5036 <malloc>
    8d2a:	d048                	sw	a0,36(s0)
    8d2c:	00052223          	sw	zero,4(a0)
    8d30:	00052423          	sw	zero,8(a0)
    8d34:	00052023          	sw	zero,0(a0)
    8d38:	00052623          	sw	zero,12(a0)
    8d3c:	5044                	lw	s1,36(s0)
    8d3e:	44dc                	lw	a5,12(s1)
    8d40:	c79d                	beqz	a5,8d6e <_Balloc+0x5c>
    8d42:	5058                	lw	a4,36(s0)
    8d44:	00291793          	slli	a5,s2,0x2
    8d48:	4758                	lw	a4,12(a4)
    8d4a:	97ba                	add	a5,a5,a4
    8d4c:	4388                	lw	a0,0(a5)
    8d4e:	e129                	bnez	a0,8d90 <_Balloc+0x7e>
    8d50:	4485                	li	s1,1
    8d52:	012494b3          	sll	s1,s1,s2
    8d56:	00548613          	addi	a2,s1,5
    8d5a:	060a                	slli	a2,a2,0x2
    8d5c:	4585                	li	a1,1
    8d5e:	8522                	mv	a0,s0
    8d60:	13f000ef          	jal	ra,969e <_calloc_r>
    8d64:	cd19                	beqz	a0,8d82 <_Balloc+0x70>
    8d66:	01252223          	sw	s2,4(a0)
    8d6a:	c504                	sw	s1,8(a0)
    8d6c:	a025                	j	8d94 <_Balloc+0x82>
    8d6e:	02100613          	li	a2,33
    8d72:	4591                	li	a1,4
    8d74:	8522                	mv	a0,s0
    8d76:	129000ef          	jal	ra,969e <_calloc_r>
    8d7a:	505c                	lw	a5,36(s0)
    8d7c:	c4c8                	sw	a0,12(s1)
    8d7e:	47dc                	lw	a5,12(a5)
    8d80:	f3e9                	bnez	a5,8d42 <_Balloc+0x30>
    8d82:	4501                	li	a0,0
    8d84:	40b2                	lw	ra,12(sp)
    8d86:	4422                	lw	s0,8(sp)
    8d88:	4492                	lw	s1,4(sp)
    8d8a:	4902                	lw	s2,0(sp)
    8d8c:	0141                	addi	sp,sp,16
    8d8e:	8082                	ret
    8d90:	4118                	lw	a4,0(a0)
    8d92:	c398                	sw	a4,0(a5)
    8d94:	00052823          	sw	zero,16(a0)
    8d98:	00052623          	sw	zero,12(a0)
    8d9c:	b7e5                	j	8d84 <_Balloc+0x72>

00008d9e <_Bfree>:
    8d9e:	515c                	lw	a5,36(a0)
    8da0:	1101                	addi	sp,sp,-32
    8da2:	cc22                	sw	s0,24(sp)
    8da4:	ce06                	sw	ra,28(sp)
    8da6:	842a                	mv	s0,a0
    8da8:	ef99                	bnez	a5,8dc6 <_Bfree+0x28>
    8daa:	4541                	li	a0,16
    8dac:	c62e                	sw	a1,12(sp)
    8dae:	a88fc0ef          	jal	ra,5036 <malloc>
    8db2:	45b2                	lw	a1,12(sp)
    8db4:	d048                	sw	a0,36(s0)
    8db6:	00052223          	sw	zero,4(a0)
    8dba:	00052423          	sw	zero,8(a0)
    8dbe:	00052023          	sw	zero,0(a0)
    8dc2:	00052623          	sw	zero,12(a0)
    8dc6:	c991                	beqz	a1,8dda <_Bfree+0x3c>
    8dc8:	5054                	lw	a3,36(s0)
    8dca:	41dc                	lw	a5,4(a1)
    8dcc:	00279713          	slli	a4,a5,0x2
    8dd0:	46dc                	lw	a5,12(a3)
    8dd2:	97ba                	add	a5,a5,a4
    8dd4:	4398                	lw	a4,0(a5)
    8dd6:	c198                	sw	a4,0(a1)
    8dd8:	c38c                	sw	a1,0(a5)
    8dda:	40f2                	lw	ra,28(sp)
    8ddc:	4462                	lw	s0,24(sp)
    8dde:	6105                	addi	sp,sp,32
    8de0:	8082                	ret

00008de2 <__multadd>:
    8de2:	7179                	addi	sp,sp,-48
    8de4:	ce4e                	sw	s3,28(sp)
    8de6:	89aa                	mv	s3,a0
    8de8:	6541                	lui	a0,0x10
    8dea:	d422                	sw	s0,40(sp)
    8dec:	d226                	sw	s1,36(sp)
    8dee:	842e                	mv	s0,a1
    8df0:	4984                	lw	s1,16(a1)
    8df2:	d606                	sw	ra,44(sp)
    8df4:	d04a                	sw	s2,32(sp)
    8df6:	05d1                	addi	a1,a1,20
    8df8:	4801                	li	a6,0
    8dfa:	157d                	addi	a0,a0,-1
    8dfc:	419c                	lw	a5,0(a1)
    8dfe:	0591                	addi	a1,a1,4
    8e00:	0805                	addi	a6,a6,1
    8e02:	00a7f733          	and	a4,a5,a0
    8e06:	02c70733          	mul	a4,a4,a2
    8e0a:	83c1                	srli	a5,a5,0x10
    8e0c:	02c787b3          	mul	a5,a5,a2
    8e10:	9736                	add	a4,a4,a3
    8e12:	01075693          	srli	a3,a4,0x10
    8e16:	8f69                	and	a4,a4,a0
    8e18:	97b6                	add	a5,a5,a3
    8e1a:	0107d693          	srli	a3,a5,0x10
    8e1e:	07c2                	slli	a5,a5,0x10
    8e20:	97ba                	add	a5,a5,a4
    8e22:	fef5ae23          	sw	a5,-4(a1)
    8e26:	fc984be3          	blt	a6,s1,8dfc <__multadd+0x1a>
    8e2a:	c2a1                	beqz	a3,8e6a <__multadd+0x88>
    8e2c:	441c                	lw	a5,8(s0)
    8e2e:	02f4c763          	blt	s1,a5,8e5c <__multadd+0x7a>
    8e32:	404c                	lw	a1,4(s0)
    8e34:	854e                	mv	a0,s3
    8e36:	c636                	sw	a3,12(sp)
    8e38:	0585                	addi	a1,a1,1
    8e3a:	ed9ff0ef          	jal	ra,8d12 <_Balloc>
    8e3e:	4810                	lw	a2,16(s0)
    8e40:	00c40593          	addi	a1,s0,12
    8e44:	892a                	mv	s2,a0
    8e46:	0609                	addi	a2,a2,2
    8e48:	060a                	slli	a2,a2,0x2
    8e4a:	0531                	addi	a0,a0,12
    8e4c:	a54fc0ef          	jal	ra,50a0 <memcpy>
    8e50:	85a2                	mv	a1,s0
    8e52:	854e                	mv	a0,s3
    8e54:	f4bff0ef          	jal	ra,8d9e <_Bfree>
    8e58:	46b2                	lw	a3,12(sp)
    8e5a:	844a                	mv	s0,s2
    8e5c:	00448793          	addi	a5,s1,4
    8e60:	078a                	slli	a5,a5,0x2
    8e62:	97a2                	add	a5,a5,s0
    8e64:	c3d4                	sw	a3,4(a5)
    8e66:	0485                	addi	s1,s1,1
    8e68:	c804                	sw	s1,16(s0)
    8e6a:	8522                	mv	a0,s0
    8e6c:	50b2                	lw	ra,44(sp)
    8e6e:	5422                	lw	s0,40(sp)
    8e70:	5492                	lw	s1,36(sp)
    8e72:	5902                	lw	s2,32(sp)
    8e74:	49f2                	lw	s3,28(sp)
    8e76:	6145                	addi	sp,sp,48
    8e78:	8082                	ret

00008e7a <__s2b>:
    8e7a:	7179                	addi	sp,sp,-48
    8e7c:	00868793          	addi	a5,a3,8
    8e80:	cc52                	sw	s4,24(sp)
    8e82:	8a36                	mv	s4,a3
    8e84:	46a5                	li	a3,9
    8e86:	d422                	sw	s0,40(sp)
    8e88:	d226                	sw	s1,36(sp)
    8e8a:	ce4e                	sw	s3,28(sp)
    8e8c:	842e                	mv	s0,a1
    8e8e:	02d7c7b3          	div	a5,a5,a3
    8e92:	d606                	sw	ra,44(sp)
    8e94:	d04a                	sw	s2,32(sp)
    8e96:	ca56                	sw	s5,20(sp)
    8e98:	89aa                	mv	s3,a0
    8e9a:	84b2                	mv	s1,a2
    8e9c:	4685                	li	a3,1
    8e9e:	4581                	li	a1,0
    8ea0:	04f6cc63          	blt	a3,a5,8ef8 <__s2b+0x7e>
    8ea4:	854e                	mv	a0,s3
    8ea6:	c63a                	sw	a4,12(sp)
    8ea8:	e6bff0ef          	jal	ra,8d12 <_Balloc>
    8eac:	4732                	lw	a4,12(sp)
    8eae:	4785                	li	a5,1
    8eb0:	c91c                	sw	a5,16(a0)
    8eb2:	c958                	sw	a4,20(a0)
    8eb4:	47a5                	li	a5,9
    8eb6:	0497d463          	bge	a5,s1,8efe <__s2b+0x84>
    8eba:	00940a93          	addi	s5,s0,9
    8ebe:	8956                	mv	s2,s5
    8ec0:	9426                	add	s0,s0,s1
    8ec2:	0905                	addi	s2,s2,1
    8ec4:	fff94683          	lbu	a3,-1(s2)
    8ec8:	85aa                	mv	a1,a0
    8eca:	4629                	li	a2,10
    8ecc:	fd068693          	addi	a3,a3,-48
    8ed0:	854e                	mv	a0,s3
    8ed2:	f11ff0ef          	jal	ra,8de2 <__multadd>
    8ed6:	fe8916e3          	bne	s2,s0,8ec2 <__s2b+0x48>
    8eda:	ff848413          	addi	s0,s1,-8
    8ede:	9456                	add	s0,s0,s5
    8ee0:	8926                	mv	s2,s1
    8ee2:	03494163          	blt	s2,s4,8f04 <__s2b+0x8a>
    8ee6:	50b2                	lw	ra,44(sp)
    8ee8:	5422                	lw	s0,40(sp)
    8eea:	5492                	lw	s1,36(sp)
    8eec:	5902                	lw	s2,32(sp)
    8eee:	49f2                	lw	s3,28(sp)
    8ef0:	4a62                	lw	s4,24(sp)
    8ef2:	4ad2                	lw	s5,20(sp)
    8ef4:	6145                	addi	sp,sp,48
    8ef6:	8082                	ret
    8ef8:	0686                	slli	a3,a3,0x1
    8efa:	0585                	addi	a1,a1,1
    8efc:	b755                	j	8ea0 <__s2b+0x26>
    8efe:	0429                	addi	s0,s0,10
    8f00:	44a5                	li	s1,9
    8f02:	bff9                	j	8ee0 <__s2b+0x66>
    8f04:	409907b3          	sub	a5,s2,s1
    8f08:	97a2                	add	a5,a5,s0
    8f0a:	0007c683          	lbu	a3,0(a5)
    8f0e:	85aa                	mv	a1,a0
    8f10:	4629                	li	a2,10
    8f12:	fd068693          	addi	a3,a3,-48
    8f16:	854e                	mv	a0,s3
    8f18:	ecbff0ef          	jal	ra,8de2 <__multadd>
    8f1c:	0905                	addi	s2,s2,1
    8f1e:	b7d1                	j	8ee2 <__s2b+0x68>

00008f20 <__hi0bits>:
    8f20:	7741                	lui	a4,0xffff0
    8f22:	8f69                	and	a4,a4,a0
    8f24:	87aa                	mv	a5,a0
    8f26:	4501                	li	a0,0
    8f28:	e319                	bnez	a4,8f2e <__hi0bits+0xe>
    8f2a:	07c2                	slli	a5,a5,0x10
    8f2c:	4541                	li	a0,16
    8f2e:	ff000737          	lui	a4,0xff000
    8f32:	8f7d                	and	a4,a4,a5
    8f34:	e319                	bnez	a4,8f3a <__hi0bits+0x1a>
    8f36:	0521                	addi	a0,a0,8
    8f38:	07a2                	slli	a5,a5,0x8
    8f3a:	f0000737          	lui	a4,0xf0000
    8f3e:	8f7d                	and	a4,a4,a5
    8f40:	e319                	bnez	a4,8f46 <__hi0bits+0x26>
    8f42:	0511                	addi	a0,a0,4
    8f44:	0792                	slli	a5,a5,0x4
    8f46:	c0000737          	lui	a4,0xc0000
    8f4a:	8f7d                	and	a4,a4,a5
    8f4c:	e319                	bnez	a4,8f52 <__hi0bits+0x32>
    8f4e:	0509                	addi	a0,a0,2
    8f50:	078a                	slli	a5,a5,0x2
    8f52:	0007c963          	bltz	a5,8f64 <__hi0bits+0x44>
    8f56:	00179713          	slli	a4,a5,0x1
    8f5a:	0505                	addi	a0,a0,1
    8f5c:	00074463          	bltz	a4,8f64 <__hi0bits+0x44>
    8f60:	02000513          	li	a0,32
    8f64:	8082                	ret

00008f66 <__lo0bits>:
    8f66:	411c                	lw	a5,0(a0)
    8f68:	0077f713          	andi	a4,a5,7
    8f6c:	c30d                	beqz	a4,8f8e <__lo0bits+0x28>
    8f6e:	0017f693          	andi	a3,a5,1
    8f72:	4701                	li	a4,0
    8f74:	e699                	bnez	a3,8f82 <__lo0bits+0x1c>
    8f76:	0027f713          	andi	a4,a5,2
    8f7a:	c711                	beqz	a4,8f86 <__lo0bits+0x20>
    8f7c:	8385                	srli	a5,a5,0x1
    8f7e:	c11c                	sw	a5,0(a0)
    8f80:	4705                	li	a4,1
    8f82:	853a                	mv	a0,a4
    8f84:	8082                	ret
    8f86:	8389                	srli	a5,a5,0x2
    8f88:	c11c                	sw	a5,0(a0)
    8f8a:	4709                	li	a4,2
    8f8c:	bfdd                	j	8f82 <__lo0bits+0x1c>
    8f8e:	01079693          	slli	a3,a5,0x10
    8f92:	82c1                	srli	a3,a3,0x10
    8f94:	4701                	li	a4,0
    8f96:	e299                	bnez	a3,8f9c <__lo0bits+0x36>
    8f98:	83c1                	srli	a5,a5,0x10
    8f9a:	4741                	li	a4,16
    8f9c:	0ff7f693          	andi	a3,a5,255
    8fa0:	e299                	bnez	a3,8fa6 <__lo0bits+0x40>
    8fa2:	0721                	addi	a4,a4,8
    8fa4:	83a1                	srli	a5,a5,0x8
    8fa6:	00f7f693          	andi	a3,a5,15
    8faa:	e299                	bnez	a3,8fb0 <__lo0bits+0x4a>
    8fac:	0711                	addi	a4,a4,4
    8fae:	8391                	srli	a5,a5,0x4
    8fb0:	0037f693          	andi	a3,a5,3
    8fb4:	e299                	bnez	a3,8fba <__lo0bits+0x54>
    8fb6:	0709                	addi	a4,a4,2
    8fb8:	8389                	srli	a5,a5,0x2
    8fba:	0017f693          	andi	a3,a5,1
    8fbe:	e681                	bnez	a3,8fc6 <__lo0bits+0x60>
    8fc0:	8385                	srli	a5,a5,0x1
    8fc2:	0705                	addi	a4,a4,1
    8fc4:	c399                	beqz	a5,8fca <__lo0bits+0x64>
    8fc6:	c11c                	sw	a5,0(a0)
    8fc8:	bf6d                	j	8f82 <__lo0bits+0x1c>
    8fca:	02000713          	li	a4,32
    8fce:	bf55                	j	8f82 <__lo0bits+0x1c>

00008fd0 <__i2b>:
    8fd0:	1141                	addi	sp,sp,-16
    8fd2:	c422                	sw	s0,8(sp)
    8fd4:	842e                	mv	s0,a1
    8fd6:	4585                	li	a1,1
    8fd8:	c606                	sw	ra,12(sp)
    8fda:	d39ff0ef          	jal	ra,8d12 <_Balloc>
    8fde:	c940                	sw	s0,20(a0)
    8fe0:	40b2                	lw	ra,12(sp)
    8fe2:	4422                	lw	s0,8(sp)
    8fe4:	4705                	li	a4,1
    8fe6:	c918                	sw	a4,16(a0)
    8fe8:	0141                	addi	sp,sp,16
    8fea:	8082                	ret

00008fec <__multiply>:
    8fec:	4998                	lw	a4,16(a1)
    8fee:	4a1c                	lw	a5,16(a2)
    8ff0:	7179                	addi	sp,sp,-48
    8ff2:	d226                	sw	s1,36(sp)
    8ff4:	d606                	sw	ra,44(sp)
    8ff6:	d422                	sw	s0,40(sp)
    8ff8:	d04a                	sw	s2,32(sp)
    8ffa:	ce4e                	sw	s3,28(sp)
    8ffc:	84ae                	mv	s1,a1
    8ffe:	00f75463          	bge	a4,a5,9006 <__multiply+0x1a>
    9002:	84b2                	mv	s1,a2
    9004:	862e                	mv	a2,a1
    9006:	0104a983          	lw	s3,16(s1)
    900a:	01062903          	lw	s2,16(a2) # 10010 <_data_lma+0x2900>
    900e:	449c                	lw	a5,8(s1)
    9010:	40cc                	lw	a1,4(s1)
    9012:	01298433          	add	s0,s3,s2
    9016:	0087d363          	bge	a5,s0,901c <__multiply+0x30>
    901a:	0585                	addi	a1,a1,1
    901c:	c632                	sw	a2,12(sp)
    901e:	cf5ff0ef          	jal	ra,8d12 <_Balloc>
    9022:	4632                	lw	a2,12(sp)
    9024:	01450813          	addi	a6,a0,20 # 10014 <_data_lma+0x2904>
    9028:	00241313          	slli	t1,s0,0x2
    902c:	9342                	add	t1,t1,a6
    902e:	87c2                	mv	a5,a6
    9030:	0267ed63          	bltu	a5,t1,906a <__multiply+0x7e>
    9034:	01448593          	addi	a1,s1,20
    9038:	00299893          	slli	a7,s3,0x2
    903c:	0651                	addi	a2,a2,20
    903e:	00291e13          	slli	t3,s2,0x2
    9042:	66c1                	lui	a3,0x10
    9044:	98ae                	add	a7,a7,a1
    9046:	9e32                	add	t3,t3,a2
    9048:	16fd                	addi	a3,a3,-1
    904a:	03c66463          	bltu	a2,t3,9072 <__multiply+0x86>
    904e:	00805663          	blez	s0,905a <__multiply+0x6e>
    9052:	1371                	addi	t1,t1,-4
    9054:	00032783          	lw	a5,0(t1)
    9058:	cbf1                	beqz	a5,912c <__multiply+0x140>
    905a:	c900                	sw	s0,16(a0)
    905c:	50b2                	lw	ra,44(sp)
    905e:	5422                	lw	s0,40(sp)
    9060:	5492                	lw	s1,36(sp)
    9062:	5902                	lw	s2,32(sp)
    9064:	49f2                	lw	s3,28(sp)
    9066:	6145                	addi	sp,sp,48
    9068:	8082                	ret
    906a:	0007a023          	sw	zero,0(a5)
    906e:	0791                	addi	a5,a5,4
    9070:	b7c1                	j	9030 <__multiply+0x44>
    9072:	00062f83          	lw	t6,0(a2)
    9076:	00dfffb3          	and	t6,t6,a3
    907a:	040f8a63          	beqz	t6,90ce <__multiply+0xe2>
    907e:	8f42                	mv	t5,a6
    9080:	82ae                	mv	t0,a1
    9082:	4481                	li	s1,0
    9084:	0002a703          	lw	a4,0(t0) # c48 <memset+0x8e>
    9088:	000f2383          	lw	t2,0(t5)
    908c:	0f11                	addi	t5,t5,4
    908e:	00d77eb3          	and	t4,a4,a3
    9092:	03fe8eb3          	mul	t4,t4,t6
    9096:	00d3f7b3          	and	a5,t2,a3
    909a:	0103d393          	srli	t2,t2,0x10
    909e:	0291                	addi	t0,t0,4
    90a0:	9ebe                	add	t4,t4,a5
    90a2:	01075793          	srli	a5,a4,0x10
    90a6:	03f787b3          	mul	a5,a5,t6
    90aa:	9ea6                	add	t4,t4,s1
    90ac:	010ed713          	srli	a4,t4,0x10
    90b0:	00defeb3          	and	t4,t4,a3
    90b4:	979e                	add	a5,a5,t2
    90b6:	97ba                	add	a5,a5,a4
    90b8:	0107d493          	srli	s1,a5,0x10
    90bc:	07c2                	slli	a5,a5,0x10
    90be:	01d7e7b3          	or	a5,a5,t4
    90c2:	feff2e23          	sw	a5,-4(t5)
    90c6:	fb12efe3          	bltu	t0,a7,9084 <__multiply+0x98>
    90ca:	009f2023          	sw	s1,0(t5)
    90ce:	00265283          	lhu	t0,2(a2)
    90d2:	04028a63          	beqz	t0,9126 <__multiply+0x13a>
    90d6:	00082783          	lw	a5,0(a6)
    90da:	8ec2                	mv	t4,a6
    90dc:	8f2e                	mv	t5,a1
    90de:	4f81                	li	t6,0
    90e0:	000f2703          	lw	a4,0(t5)
    90e4:	002ed383          	lhu	t2,2(t4)
    90e8:	8ff5                	and	a5,a5,a3
    90ea:	8f75                	and	a4,a4,a3
    90ec:	02570733          	mul	a4,a4,t0
    90f0:	0e91                	addi	t4,t4,4
    90f2:	0f11                	addi	t5,t5,4
    90f4:	971e                	add	a4,a4,t2
    90f6:	977e                	add	a4,a4,t6
    90f8:	01071f93          	slli	t6,a4,0x10
    90fc:	00ffe7b3          	or	a5,t6,a5
    9100:	fefeae23          	sw	a5,-4(t4)
    9104:	ffef5783          	lhu	a5,-2(t5)
    9108:	000eaf83          	lw	t6,0(t4)
    910c:	8341                	srli	a4,a4,0x10
    910e:	025787b3          	mul	a5,a5,t0
    9112:	00dfffb3          	and	t6,t6,a3
    9116:	97fe                	add	a5,a5,t6
    9118:	97ba                	add	a5,a5,a4
    911a:	0107df93          	srli	t6,a5,0x10
    911e:	fd1f61e3          	bltu	t5,a7,90e0 <__multiply+0xf4>
    9122:	00fea023          	sw	a5,0(t4)
    9126:	0611                	addi	a2,a2,4
    9128:	0811                	addi	a6,a6,4
    912a:	b705                	j	904a <__multiply+0x5e>
    912c:	147d                	addi	s0,s0,-1
    912e:	b705                	j	904e <__multiply+0x62>

00009130 <__pow5mult>:
    9130:	1101                	addi	sp,sp,-32
    9132:	ca26                	sw	s1,20(sp)
    9134:	c84a                	sw	s2,16(sp)
    9136:	c64e                	sw	s3,12(sp)
    9138:	ce06                	sw	ra,28(sp)
    913a:	cc22                	sw	s0,24(sp)
    913c:	c452                	sw	s4,8(sp)
    913e:	00367793          	andi	a5,a2,3
    9142:	892a                	mv	s2,a0
    9144:	84b2                	mv	s1,a2
    9146:	89ae                	mv	s3,a1
    9148:	cf89                	beqz	a5,9162 <__pow5mult+0x32>
    914a:	17fd                	addi	a5,a5,-1
    914c:	00004717          	auipc	a4,0x4
    9150:	50c70713          	addi	a4,a4,1292 # d658 <p05.3319>
    9154:	078a                	slli	a5,a5,0x2
    9156:	97ba                	add	a5,a5,a4
    9158:	4390                	lw	a2,0(a5)
    915a:	4681                	li	a3,0
    915c:	c87ff0ef          	jal	ra,8de2 <__multadd>
    9160:	89aa                	mv	s3,a0
    9162:	8489                	srai	s1,s1,0x2
    9164:	cca5                	beqz	s1,91dc <__pow5mult+0xac>
    9166:	02492783          	lw	a5,36(s2)
    916a:	ef91                	bnez	a5,9186 <__pow5mult+0x56>
    916c:	4541                	li	a0,16
    916e:	ec9fb0ef          	jal	ra,5036 <malloc>
    9172:	02a92223          	sw	a0,36(s2)
    9176:	00052223          	sw	zero,4(a0)
    917a:	00052423          	sw	zero,8(a0)
    917e:	00052023          	sw	zero,0(a0)
    9182:	00052623          	sw	zero,12(a0)
    9186:	02492a03          	lw	s4,36(s2)
    918a:	008a2403          	lw	s0,8(s4)
    918e:	e819                	bnez	s0,91a4 <__pow5mult+0x74>
    9190:	27100593          	li	a1,625
    9194:	854a                	mv	a0,s2
    9196:	e3bff0ef          	jal	ra,8fd0 <__i2b>
    919a:	00aa2423          	sw	a0,8(s4)
    919e:	842a                	mv	s0,a0
    91a0:	00052023          	sw	zero,0(a0)
    91a4:	0014f793          	andi	a5,s1,1
    91a8:	cf81                	beqz	a5,91c0 <__pow5mult+0x90>
    91aa:	85ce                	mv	a1,s3
    91ac:	8622                	mv	a2,s0
    91ae:	854a                	mv	a0,s2
    91b0:	e3dff0ef          	jal	ra,8fec <__multiply>
    91b4:	8a2a                	mv	s4,a0
    91b6:	85ce                	mv	a1,s3
    91b8:	854a                	mv	a0,s2
    91ba:	be5ff0ef          	jal	ra,8d9e <_Bfree>
    91be:	89d2                	mv	s3,s4
    91c0:	8485                	srai	s1,s1,0x1
    91c2:	cc89                	beqz	s1,91dc <__pow5mult+0xac>
    91c4:	4008                	lw	a0,0(s0)
    91c6:	e909                	bnez	a0,91d8 <__pow5mult+0xa8>
    91c8:	8622                	mv	a2,s0
    91ca:	85a2                	mv	a1,s0
    91cc:	854a                	mv	a0,s2
    91ce:	e1fff0ef          	jal	ra,8fec <__multiply>
    91d2:	c008                	sw	a0,0(s0)
    91d4:	00052023          	sw	zero,0(a0)
    91d8:	842a                	mv	s0,a0
    91da:	b7e9                	j	91a4 <__pow5mult+0x74>
    91dc:	40f2                	lw	ra,28(sp)
    91de:	4462                	lw	s0,24(sp)
    91e0:	854e                	mv	a0,s3
    91e2:	44d2                	lw	s1,20(sp)
    91e4:	4942                	lw	s2,16(sp)
    91e6:	49b2                	lw	s3,12(sp)
    91e8:	4a22                	lw	s4,8(sp)
    91ea:	6105                	addi	sp,sp,32
    91ec:	8082                	ret

000091ee <__lshift>:
    91ee:	7179                	addi	sp,sp,-48
    91f0:	d226                	sw	s1,36(sp)
    91f2:	84ae                	mv	s1,a1
    91f4:	ce4e                	sw	s3,28(sp)
    91f6:	0104a983          	lw	s3,16(s1)
    91fa:	d422                	sw	s0,40(sp)
    91fc:	41cc                	lw	a1,4(a1)
    91fe:	40565413          	srai	s0,a2,0x5
    9202:	449c                	lw	a5,8(s1)
    9204:	99a2                	add	s3,s3,s0
    9206:	d04a                	sw	s2,32(sp)
    9208:	ca56                	sw	s5,20(sp)
    920a:	d606                	sw	ra,44(sp)
    920c:	cc52                	sw	s4,24(sp)
    920e:	8aaa                	mv	s5,a0
    9210:	00198913          	addi	s2,s3,1
    9214:	0927c463          	blt	a5,s2,929c <__lshift+0xae>
    9218:	8556                	mv	a0,s5
    921a:	c632                	sw	a2,12(sp)
    921c:	af7ff0ef          	jal	ra,8d12 <_Balloc>
    9220:	4632                	lw	a2,12(sp)
    9222:	01450793          	addi	a5,a0,20
    9226:	8a2a                	mv	s4,a0
    9228:	86be                	mv	a3,a5
    922a:	4701                	li	a4,0
    922c:	0691                	addi	a3,a3,4
    922e:	06874a63          	blt	a4,s0,92a2 <__lshift+0xb4>
    9232:	00045363          	bgez	s0,9238 <__lshift+0x4a>
    9236:	4401                	li	s0,0
    9238:	4894                	lw	a3,16(s1)
    923a:	040a                	slli	s0,s0,0x2
    923c:	00878733          	add	a4,a5,s0
    9240:	068a                	slli	a3,a3,0x2
    9242:	01448793          	addi	a5,s1,20
    9246:	8a7d                	andi	a2,a2,31
    9248:	96be                	add	a3,a3,a5
    924a:	c225                	beqz	a2,92aa <__lshift+0xbc>
    924c:	02000813          	li	a6,32
    9250:	40c80833          	sub	a6,a6,a2
    9254:	4581                	li	a1,0
    9256:	4388                	lw	a0,0(a5)
    9258:	0711                	addi	a4,a4,4
    925a:	0791                	addi	a5,a5,4
    925c:	00c51533          	sll	a0,a0,a2
    9260:	8dc9                	or	a1,a1,a0
    9262:	feb72e23          	sw	a1,-4(a4)
    9266:	ffc7a583          	lw	a1,-4(a5)
    926a:	0105d5b3          	srl	a1,a1,a6
    926e:	fed7e4e3          	bltu	a5,a3,9256 <__lshift+0x68>
    9272:	c30c                	sw	a1,0(a4)
    9274:	c199                	beqz	a1,927a <__lshift+0x8c>
    9276:	00298913          	addi	s2,s3,2
    927a:	197d                	addi	s2,s2,-1
    927c:	012a2823          	sw	s2,16(s4)
    9280:	8556                	mv	a0,s5
    9282:	85a6                	mv	a1,s1
    9284:	b1bff0ef          	jal	ra,8d9e <_Bfree>
    9288:	50b2                	lw	ra,44(sp)
    928a:	5422                	lw	s0,40(sp)
    928c:	8552                	mv	a0,s4
    928e:	5492                	lw	s1,36(sp)
    9290:	5902                	lw	s2,32(sp)
    9292:	49f2                	lw	s3,28(sp)
    9294:	4a62                	lw	s4,24(sp)
    9296:	4ad2                	lw	s5,20(sp)
    9298:	6145                	addi	sp,sp,48
    929a:	8082                	ret
    929c:	0585                	addi	a1,a1,1
    929e:	0786                	slli	a5,a5,0x1
    92a0:	bf95                	j	9214 <__lshift+0x26>
    92a2:	fe06ae23          	sw	zero,-4(a3) # fffc <_data_lma+0x28ec>
    92a6:	0705                	addi	a4,a4,1
    92a8:	b751                	j	922c <__lshift+0x3e>
    92aa:	0791                	addi	a5,a5,4
    92ac:	ffc7a603          	lw	a2,-4(a5)
    92b0:	0711                	addi	a4,a4,4
    92b2:	fec72e23          	sw	a2,-4(a4)
    92b6:	fed7eae3          	bltu	a5,a3,92aa <__lshift+0xbc>
    92ba:	b7c1                	j	927a <__lshift+0x8c>

000092bc <__mcmp>:
    92bc:	491c                	lw	a5,16(a0)
    92be:	4998                	lw	a4,16(a1)
    92c0:	8f99                	sub	a5,a5,a4
    92c2:	e38d                	bnez	a5,92e4 <__mcmp+0x28>
    92c4:	070a                	slli	a4,a4,0x2
    92c6:	0551                	addi	a0,a0,20
    92c8:	05d1                	addi	a1,a1,20
    92ca:	00e506b3          	add	a3,a0,a4
    92ce:	95ba                	add	a1,a1,a4
    92d0:	16f1                	addi	a3,a3,-4
    92d2:	15f1                	addi	a1,a1,-4
    92d4:	4290                	lw	a2,0(a3)
    92d6:	4198                	lw	a4,0(a1)
    92d8:	00e60863          	beq	a2,a4,92e8 <__mcmp+0x2c>
    92dc:	57fd                	li	a5,-1
    92de:	00e66363          	bltu	a2,a4,92e4 <__mcmp+0x28>
    92e2:	4785                	li	a5,1
    92e4:	853e                	mv	a0,a5
    92e6:	8082                	ret
    92e8:	fed564e3          	bltu	a0,a3,92d0 <__mcmp+0x14>
    92ec:	bfe5                	j	92e4 <__mcmp+0x28>

000092ee <__mdiff>:
    92ee:	1101                	addi	sp,sp,-32
    92f0:	ca26                	sw	s1,20(sp)
    92f2:	84ae                	mv	s1,a1
    92f4:	c64e                	sw	s3,12(sp)
    92f6:	85b2                	mv	a1,a2
    92f8:	89aa                	mv	s3,a0
    92fa:	8526                	mv	a0,s1
    92fc:	cc22                	sw	s0,24(sp)
    92fe:	ce06                	sw	ra,28(sp)
    9300:	c84a                	sw	s2,16(sp)
    9302:	8432                	mv	s0,a2
    9304:	fb9ff0ef          	jal	ra,92bc <__mcmp>
    9308:	e105                	bnez	a0,9328 <__mdiff+0x3a>
    930a:	4581                	li	a1,0
    930c:	854e                	mv	a0,s3
    930e:	a05ff0ef          	jal	ra,8d12 <_Balloc>
    9312:	4785                	li	a5,1
    9314:	c91c                	sw	a5,16(a0)
    9316:	00052a23          	sw	zero,20(a0)
    931a:	40f2                	lw	ra,28(sp)
    931c:	4462                	lw	s0,24(sp)
    931e:	44d2                	lw	s1,20(sp)
    9320:	4942                	lw	s2,16(sp)
    9322:	49b2                	lw	s3,12(sp)
    9324:	6105                	addi	sp,sp,32
    9326:	8082                	ret
    9328:	4905                	li	s2,1
    932a:	00054663          	bltz	a0,9336 <__mdiff+0x48>
    932e:	87a2                	mv	a5,s0
    9330:	4901                	li	s2,0
    9332:	8426                	mv	s0,s1
    9334:	84be                	mv	s1,a5
    9336:	404c                	lw	a1,4(s0)
    9338:	854e                	mv	a0,s3
    933a:	9d9ff0ef          	jal	ra,8d12 <_Balloc>
    933e:	01042303          	lw	t1,16(s0)
    9342:	0104a883          	lw	a7,16(s1)
    9346:	01440613          	addi	a2,s0,20
    934a:	00231e13          	slli	t3,t1,0x2
    934e:	01448813          	addi	a6,s1,20
    9352:	088a                	slli	a7,a7,0x2
    9354:	6ec1                	lui	t4,0x10
    9356:	01252623          	sw	s2,12(a0)
    935a:	9e32                	add	t3,t3,a2
    935c:	98c2                	add	a7,a7,a6
    935e:	01450693          	addi	a3,a0,20
    9362:	4f01                	li	t5,0
    9364:	1efd                	addi	t4,t4,-1
    9366:	4218                	lw	a4,0(a2)
    9368:	00082f83          	lw	t6,0(a6)
    936c:	0691                	addi	a3,a3,4
    936e:	01d775b3          	and	a1,a4,t4
    9372:	01dff7b3          	and	a5,t6,t4
    9376:	95fa                	add	a1,a1,t5
    9378:	8d9d                	sub	a1,a1,a5
    937a:	010fdf93          	srli	t6,t6,0x10
    937e:	01075793          	srli	a5,a4,0x10
    9382:	41f787b3          	sub	a5,a5,t6
    9386:	4105d713          	srai	a4,a1,0x10
    938a:	97ba                	add	a5,a5,a4
    938c:	4107df13          	srai	t5,a5,0x10
    9390:	01d5f5b3          	and	a1,a1,t4
    9394:	07c2                	slli	a5,a5,0x10
    9396:	8fcd                	or	a5,a5,a1
    9398:	0811                	addi	a6,a6,4
    939a:	fef6ae23          	sw	a5,-4(a3)
    939e:	0611                	addi	a2,a2,4
    93a0:	fd1863e3          	bltu	a6,a7,9366 <__mdiff+0x78>
    93a4:	65c1                	lui	a1,0x10
    93a6:	15fd                	addi	a1,a1,-1
    93a8:	01c66863          	bltu	a2,t3,93b8 <__mdiff+0xca>
    93ac:	16f1                	addi	a3,a3,-4
    93ae:	429c                	lw	a5,0(a3)
    93b0:	c795                	beqz	a5,93dc <__mdiff+0xee>
    93b2:	00652823          	sw	t1,16(a0)
    93b6:	b795                	j	931a <__mdiff+0x2c>
    93b8:	421c                	lw	a5,0(a2)
    93ba:	0691                	addi	a3,a3,4
    93bc:	0611                	addi	a2,a2,4
    93be:	00b7f733          	and	a4,a5,a1
    93c2:	977a                	add	a4,a4,t5
    93c4:	41075813          	srai	a6,a4,0x10
    93c8:	83c1                	srli	a5,a5,0x10
    93ca:	97c2                	add	a5,a5,a6
    93cc:	4107df13          	srai	t5,a5,0x10
    93d0:	8f6d                	and	a4,a4,a1
    93d2:	07c2                	slli	a5,a5,0x10
    93d4:	8fd9                	or	a5,a5,a4
    93d6:	fef6ae23          	sw	a5,-4(a3)
    93da:	b7f9                	j	93a8 <__mdiff+0xba>
    93dc:	137d                	addi	t1,t1,-1
    93de:	b7f9                	j	93ac <__mdiff+0xbe>

000093e0 <__ulp>:
    93e0:	7ff007b7          	lui	a5,0x7ff00
    93e4:	8dfd                	and	a1,a1,a5
    93e6:	fcc007b7          	lui	a5,0xfcc00
    93ea:	95be                	add	a1,a1,a5
    93ec:	00b05563          	blez	a1,93f6 <__ulp+0x16>
    93f0:	4781                	li	a5,0
    93f2:	853e                	mv	a0,a5
    93f4:	8082                	ret
    93f6:	40b005b3          	neg	a1,a1
    93fa:	4145d793          	srai	a5,a1,0x14
    93fe:	474d                	li	a4,19
    9400:	00f74763          	blt	a4,a5,940e <__ulp+0x2e>
    9404:	000805b7          	lui	a1,0x80
    9408:	40f5d5b3          	sra	a1,a1,a5
    940c:	b7d5                	j	93f0 <__ulp+0x10>
    940e:	fec78713          	addi	a4,a5,-20 # fcbfffec <_eusrstack+0xdcbf7fec>
    9412:	46f9                	li	a3,30
    9414:	4581                	li	a1,0
    9416:	4785                	li	a5,1
    9418:	fce6cde3          	blt	a3,a4,93f2 <__ulp+0x12>
    941c:	800007b7          	lui	a5,0x80000
    9420:	00e7d7b3          	srl	a5,a5,a4
    9424:	b7f9                	j	93f2 <__ulp+0x12>

00009426 <__b2d>:
    9426:	7179                	addi	sp,sp,-48
    9428:	d226                	sw	s1,36(sp)
    942a:	4904                	lw	s1,16(a0)
    942c:	ce4e                	sw	s3,28(sp)
    942e:	01450993          	addi	s3,a0,20
    9432:	048a                	slli	s1,s1,0x2
    9434:	94ce                	add	s1,s1,s3
    9436:	d422                	sw	s0,40(sp)
    9438:	ffc4a403          	lw	s0,-4(s1)
    943c:	d04a                	sw	s2,32(sp)
    943e:	c62e                	sw	a1,12(sp)
    9440:	8522                	mv	a0,s0
    9442:	d606                	sw	ra,44(sp)
    9444:	addff0ef          	jal	ra,8f20 <__hi0bits>
    9448:	45b2                	lw	a1,12(sp)
    944a:	02000793          	li	a5,32
    944e:	8f89                	sub	a5,a5,a0
    9450:	c19c                	sw	a5,0(a1)
    9452:	47a9                	li	a5,10
    9454:	ffc48913          	addi	s2,s1,-4
    9458:	02a7cd63          	blt	a5,a0,9492 <__b2d+0x6c>
    945c:	47ad                	li	a5,11
    945e:	8f89                	sub	a5,a5,a0
    9460:	3ff00737          	lui	a4,0x3ff00
    9464:	00f456b3          	srl	a3,s0,a5
    9468:	8ed9                	or	a3,a3,a4
    946a:	4701                	li	a4,0
    946c:	0129f463          	bgeu	s3,s2,9474 <__b2d+0x4e>
    9470:	ff84a703          	lw	a4,-8(s1)
    9474:	0555                	addi	a0,a0,21
    9476:	00a41533          	sll	a0,s0,a0
    947a:	00f757b3          	srl	a5,a4,a5
    947e:	8fc9                	or	a5,a5,a0
    9480:	50b2                	lw	ra,44(sp)
    9482:	5422                	lw	s0,40(sp)
    9484:	5492                	lw	s1,36(sp)
    9486:	5902                	lw	s2,32(sp)
    9488:	49f2                	lw	s3,28(sp)
    948a:	853e                	mv	a0,a5
    948c:	85b6                	mv	a1,a3
    948e:	6145                	addi	sp,sp,48
    9490:	8082                	ret
    9492:	4781                	li	a5,0
    9494:	0129f663          	bgeu	s3,s2,94a0 <__b2d+0x7a>
    9498:	ff84a783          	lw	a5,-8(s1)
    949c:	ff848913          	addi	s2,s1,-8
    94a0:	1555                	addi	a0,a0,-11
    94a2:	c905                	beqz	a0,94d2 <__b2d+0xac>
    94a4:	02000713          	li	a4,32
    94a8:	40a70633          	sub	a2,a4,a0
    94ac:	00c7d733          	srl	a4,a5,a2
    94b0:	00a41433          	sll	s0,s0,a0
    94b4:	8c59                	or	s0,s0,a4
    94b6:	3ff006b7          	lui	a3,0x3ff00
    94ba:	8ec1                	or	a3,a3,s0
    94bc:	4701                	li	a4,0
    94be:	0129f463          	bgeu	s3,s2,94c6 <__b2d+0xa0>
    94c2:	ffc92703          	lw	a4,-4(s2)
    94c6:	00a797b3          	sll	a5,a5,a0
    94ca:	00c75733          	srl	a4,a4,a2
    94ce:	8fd9                	or	a5,a5,a4
    94d0:	bf45                	j	9480 <__b2d+0x5a>
    94d2:	3ff006b7          	lui	a3,0x3ff00
    94d6:	8ec1                	or	a3,a3,s0
    94d8:	b765                	j	9480 <__b2d+0x5a>

000094da <__d2b>:
    94da:	7179                	addi	sp,sp,-48
    94dc:	d422                	sw	s0,40(sp)
    94de:	842e                	mv	s0,a1
    94e0:	4585                	li	a1,1
    94e2:	d226                	sw	s1,36(sp)
    94e4:	d04a                	sw	s2,32(sp)
    94e6:	84b2                	mv	s1,a2
    94e8:	ce4e                	sw	s3,28(sp)
    94ea:	cc52                	sw	s4,24(sp)
    94ec:	893a                	mv	s2,a4
    94ee:	d606                	sw	ra,44(sp)
    94f0:	8a36                	mv	s4,a3
    94f2:	821ff0ef          	jal	ra,8d12 <_Balloc>
    94f6:	00100737          	lui	a4,0x100
    94fa:	fff70793          	addi	a5,a4,-1 # fffff <_data_lma+0xf28ef>
    94fe:	8fe5                	and	a5,a5,s1
    9500:	80d1                	srli	s1,s1,0x14
    9502:	7ff4f493          	andi	s1,s1,2047
    9506:	89aa                	mv	s3,a0
    9508:	e0b5                	bnez	s1,956c <__d2b+0x92>
    950a:	c63e                	sw	a5,12(sp)
    950c:	c42d                	beqz	s0,9576 <__d2b+0x9c>
    950e:	0028                	addi	a0,sp,8
    9510:	c422                	sw	s0,8(sp)
    9512:	a55ff0ef          	jal	ra,8f66 <__lo0bits>
    9516:	46a2                	lw	a3,8(sp)
    9518:	cd21                	beqz	a0,9570 <__d2b+0x96>
    951a:	4732                	lw	a4,12(sp)
    951c:	02000793          	li	a5,32
    9520:	8f89                	sub	a5,a5,a0
    9522:	00f717b3          	sll	a5,a4,a5
    9526:	8fd5                	or	a5,a5,a3
    9528:	00a75733          	srl	a4,a4,a0
    952c:	00f9aa23          	sw	a5,20(s3)
    9530:	c63a                	sw	a4,12(sp)
    9532:	4432                	lw	s0,12(sp)
    9534:	0089ac23          	sw	s0,24(s3)
    9538:	00803433          	snez	s0,s0
    953c:	0405                	addi	s0,s0,1
    953e:	0089a823          	sw	s0,16(s3)
    9542:	c4b9                	beqz	s1,9590 <__d2b+0xb6>
    9544:	bcd48493          	addi	s1,s1,-1075
    9548:	94aa                	add	s1,s1,a0
    954a:	03500793          	li	a5,53
    954e:	009a2023          	sw	s1,0(s4)
    9552:	40a78533          	sub	a0,a5,a0
    9556:	00a92023          	sw	a0,0(s2)
    955a:	50b2                	lw	ra,44(sp)
    955c:	5422                	lw	s0,40(sp)
    955e:	854e                	mv	a0,s3
    9560:	5492                	lw	s1,36(sp)
    9562:	5902                	lw	s2,32(sp)
    9564:	49f2                	lw	s3,28(sp)
    9566:	4a62                	lw	s4,24(sp)
    9568:	6145                	addi	sp,sp,48
    956a:	8082                	ret
    956c:	8fd9                	or	a5,a5,a4
    956e:	bf71                	j	950a <__d2b+0x30>
    9570:	00d9aa23          	sw	a3,20(s3)
    9574:	bf7d                	j	9532 <__d2b+0x58>
    9576:	0068                	addi	a0,sp,12
    9578:	9efff0ef          	jal	ra,8f66 <__lo0bits>
    957c:	47b2                	lw	a5,12(sp)
    957e:	02050513          	addi	a0,a0,32
    9582:	4405                	li	s0,1
    9584:	00f9aa23          	sw	a5,20(s3)
    9588:	4785                	li	a5,1
    958a:	00f9a823          	sw	a5,16(s3)
    958e:	bf55                	j	9542 <__d2b+0x68>
    9590:	00241793          	slli	a5,s0,0x2
    9594:	bce50513          	addi	a0,a0,-1074
    9598:	97ce                	add	a5,a5,s3
    959a:	00aa2023          	sw	a0,0(s4)
    959e:	4b88                	lw	a0,16(a5)
    95a0:	0416                	slli	s0,s0,0x5
    95a2:	97fff0ef          	jal	ra,8f20 <__hi0bits>
    95a6:	8c09                	sub	s0,s0,a0
    95a8:	00892023          	sw	s0,0(s2)
    95ac:	b77d                	j	955a <__d2b+0x80>

000095ae <__ratio>:
    95ae:	7179                	addi	sp,sp,-48
    95b0:	d04a                	sw	s2,32(sp)
    95b2:	892e                	mv	s2,a1
    95b4:	002c                	addi	a1,sp,8
    95b6:	d606                	sw	ra,44(sp)
    95b8:	d422                	sw	s0,40(sp)
    95ba:	d226                	sw	s1,36(sp)
    95bc:	ce4e                	sw	s3,28(sp)
    95be:	cc52                	sw	s4,24(sp)
    95c0:	8a2a                	mv	s4,a0
    95c2:	e65ff0ef          	jal	ra,9426 <__b2d>
    95c6:	89aa                	mv	s3,a0
    95c8:	84ae                	mv	s1,a1
    95ca:	842e                	mv	s0,a1
    95cc:	854a                	mv	a0,s2
    95ce:	006c                	addi	a1,sp,12
    95d0:	e57ff0ef          	jal	ra,9426 <__b2d>
    95d4:	01092783          	lw	a5,16(s2)
    95d8:	010a2703          	lw	a4,16(s4)
    95dc:	46a2                	lw	a3,8(sp)
    95de:	8f1d                	sub	a4,a4,a5
    95e0:	47b2                	lw	a5,12(sp)
    95e2:	0716                	slli	a4,a4,0x5
    95e4:	8e9d                	sub	a3,a3,a5
    95e6:	00d707b3          	add	a5,a4,a3
    95ea:	02f05563          	blez	a5,9614 <__ratio+0x66>
    95ee:	07d2                	slli	a5,a5,0x14
    95f0:	862e                	mv	a2,a1
    95f2:	00978433          	add	s0,a5,s1
    95f6:	8732                	mv	a4,a2
    95f8:	85a2                	mv	a1,s0
    95fa:	862a                	mv	a2,a0
    95fc:	86ba                	mv	a3,a4
    95fe:	854e                	mv	a0,s3
    9600:	0ec010ef          	jal	ra,a6ec <__divdf3>
    9604:	50b2                	lw	ra,44(sp)
    9606:	5422                	lw	s0,40(sp)
    9608:	5492                	lw	s1,36(sp)
    960a:	5902                	lw	s2,32(sp)
    960c:	49f2                	lw	s3,28(sp)
    960e:	4a62                	lw	s4,24(sp)
    9610:	6145                	addi	sp,sp,48
    9612:	8082                	ret
    9614:	fff00737          	lui	a4,0xfff00
    9618:	02e787b3          	mul	a5,a5,a4
    961c:	00b78633          	add	a2,a5,a1
    9620:	bfd9                	j	95f6 <__ratio+0x48>

00009622 <__copybits>:
    9622:	fff58793          	addi	a5,a1,-1 # 7ffff <_data_lma+0x728ef>
    9626:	4a18                	lw	a4,16(a2)
    9628:	8795                	srai	a5,a5,0x5
    962a:	0785                	addi	a5,a5,1
    962c:	078a                	slli	a5,a5,0x2
    962e:	01460693          	addi	a3,a2,20
    9632:	070a                	slli	a4,a4,0x2
    9634:	97aa                	add	a5,a5,a0
    9636:	9736                	add	a4,a4,a3
    9638:	00e6e563          	bltu	a3,a4,9642 <__copybits+0x20>
    963c:	00f56a63          	bltu	a0,a5,9650 <__copybits+0x2e>
    9640:	8082                	ret
    9642:	0691                	addi	a3,a3,4
    9644:	ffc6a603          	lw	a2,-4(a3) # 3feffffc <_eusrstack+0x1fef7ffc>
    9648:	0511                	addi	a0,a0,4
    964a:	fec52e23          	sw	a2,-4(a0)
    964e:	b7ed                	j	9638 <__copybits+0x16>
    9650:	0511                	addi	a0,a0,4
    9652:	fe052e23          	sw	zero,-4(a0)
    9656:	b7dd                	j	963c <__copybits+0x1a>

00009658 <__any_on>:
    9658:	4914                	lw	a3,16(a0)
    965a:	4055d793          	srai	a5,a1,0x5
    965e:	01450713          	addi	a4,a0,20
    9662:	02f6c763          	blt	a3,a5,9690 <__any_on+0x38>
    9666:	00d7df63          	bge	a5,a3,9684 <__any_on+0x2c>
    966a:	89fd                	andi	a1,a1,31
    966c:	cd81                	beqz	a1,9684 <__any_on+0x2c>
    966e:	00279693          	slli	a3,a5,0x2
    9672:	96ba                	add	a3,a3,a4
    9674:	4290                	lw	a2,0(a3)
    9676:	4505                	li	a0,1
    9678:	00b656b3          	srl	a3,a2,a1
    967c:	00b695b3          	sll	a1,a3,a1
    9680:	00b61e63          	bne	a2,a1,969c <__any_on+0x44>
    9684:	078a                	slli	a5,a5,0x2
    9686:	97ba                	add	a5,a5,a4
    9688:	00f76663          	bltu	a4,a5,9694 <__any_on+0x3c>
    968c:	4501                	li	a0,0
    968e:	8082                	ret
    9690:	87b6                	mv	a5,a3
    9692:	bfcd                	j	9684 <__any_on+0x2c>
    9694:	17f1                	addi	a5,a5,-4
    9696:	4394                	lw	a3,0(a5)
    9698:	dae5                	beqz	a3,9688 <__any_on+0x30>
    969a:	4505                	li	a0,1
    969c:	8082                	ret

0000969e <_calloc_r>:
    969e:	02c58633          	mul	a2,a1,a2
    96a2:	1101                	addi	sp,sp,-32
    96a4:	cc22                	sw	s0,24(sp)
    96a6:	ce06                	sw	ra,28(sp)
    96a8:	85b2                	mv	a1,a2
    96aa:	c632                	sw	a2,12(sp)
    96ac:	b53fb0ef          	jal	ra,51fe <_malloc_r>
    96b0:	842a                	mv	s0,a0
    96b2:	c509                	beqz	a0,96bc <_calloc_r+0x1e>
    96b4:	4632                	lw	a2,12(sp)
    96b6:	4581                	li	a1,0
    96b8:	d02f70ef          	jal	ra,bba <memset>
    96bc:	8522                	mv	a0,s0
    96be:	40f2                	lw	ra,28(sp)
    96c0:	4462                	lw	s0,24(sp)
    96c2:	6105                	addi	sp,sp,32
    96c4:	8082                	ret

000096c6 <_realloc_r>:
    96c6:	e581                	bnez	a1,96ce <_realloc_r+0x8>
    96c8:	85b2                	mv	a1,a2
    96ca:	b35fb06f          	j	51fe <_malloc_r>
    96ce:	1101                	addi	sp,sp,-32
    96d0:	cc22                	sw	s0,24(sp)
    96d2:	ce06                	sw	ra,28(sp)
    96d4:	ca26                	sw	s1,20(sp)
    96d6:	c84a                	sw	s2,16(sp)
    96d8:	c64e                	sw	s3,12(sp)
    96da:	8432                	mv	s0,a2
    96dc:	ee01                	bnez	a2,96f4 <_realloc_r+0x2e>
    96de:	a79fb0ef          	jal	ra,5156 <_free_r>
    96e2:	4901                	li	s2,0
    96e4:	40f2                	lw	ra,28(sp)
    96e6:	4462                	lw	s0,24(sp)
    96e8:	854a                	mv	a0,s2
    96ea:	44d2                	lw	s1,20(sp)
    96ec:	4942                	lw	s2,16(sp)
    96ee:	49b2                	lw	s3,12(sp)
    96f0:	6105                	addi	sp,sp,32
    96f2:	8082                	ret
    96f4:	84ae                	mv	s1,a1
    96f6:	89aa                	mv	s3,a0
    96f8:	083000ef          	jal	ra,9f7a <_malloc_usable_size_r>
    96fc:	8926                	mv	s2,s1
    96fe:	fe8573e3          	bgeu	a0,s0,96e4 <_realloc_r+0x1e>
    9702:	85a2                	mv	a1,s0
    9704:	854e                	mv	a0,s3
    9706:	af9fb0ef          	jal	ra,51fe <_malloc_r>
    970a:	892a                	mv	s2,a0
    970c:	dd61                	beqz	a0,96e4 <_realloc_r+0x1e>
    970e:	85a6                	mv	a1,s1
    9710:	8622                	mv	a2,s0
    9712:	98ffb0ef          	jal	ra,50a0 <memcpy>
    9716:	85a6                	mv	a1,s1
    9718:	854e                	mv	a0,s3
    971a:	a3dfb0ef          	jal	ra,5156 <_free_r>
    971e:	b7d9                	j	96e4 <_realloc_r+0x1e>

00009720 <__ssputs_r>:
    9720:	1101                	addi	sp,sp,-32
    9722:	c84a                	sw	s2,16(sp)
    9724:	0085a903          	lw	s2,8(a1)
    9728:	cc22                	sw	s0,24(sp)
    972a:	c452                	sw	s4,8(sp)
    972c:	c05a                	sw	s6,0(sp)
    972e:	ce06                	sw	ra,28(sp)
    9730:	ca26                	sw	s1,20(sp)
    9732:	c64e                	sw	s3,12(sp)
    9734:	c256                	sw	s5,4(sp)
    9736:	842e                	mv	s0,a1
    9738:	8b32                	mv	s6,a2
    973a:	8a36                	mv	s4,a3
    973c:	0926ee63          	bltu	a3,s2,97d8 <__ssputs_r+0xb8>
    9740:	00c5d783          	lhu	a5,12(a1)
    9744:	4807f713          	andi	a4,a5,1152
    9748:	c751                	beqz	a4,97d4 <__ssputs_r+0xb4>
    974a:	4004                	lw	s1,0(s0)
    974c:	498c                	lw	a1,16(a1)
    974e:	4858                	lw	a4,20(s0)
    9750:	8aaa                	mv	s5,a0
    9752:	40b489b3          	sub	s3,s1,a1
    9756:	448d                	li	s1,3
    9758:	02e484b3          	mul	s1,s1,a4
    975c:	4709                	li	a4,2
    975e:	02e4c4b3          	div	s1,s1,a4
    9762:	00168713          	addi	a4,a3,1
    9766:	974e                	add	a4,a4,s3
    9768:	00e4f363          	bgeu	s1,a4,976e <__ssputs_r+0x4e>
    976c:	84ba                	mv	s1,a4
    976e:	4007f793          	andi	a5,a5,1024
    9772:	c3d9                	beqz	a5,97f8 <__ssputs_r+0xd8>
    9774:	85a6                	mv	a1,s1
    9776:	8556                	mv	a0,s5
    9778:	a87fb0ef          	jal	ra,51fe <_malloc_r>
    977c:	892a                	mv	s2,a0
    977e:	e50d                	bnez	a0,97a8 <__ssputs_r+0x88>
    9780:	47b1                	li	a5,12
    9782:	00faa023          	sw	a5,0(s5)
    9786:	00c45783          	lhu	a5,12(s0)
    978a:	557d                	li	a0,-1
    978c:	0407e793          	ori	a5,a5,64
    9790:	00f41623          	sh	a5,12(s0)
    9794:	40f2                	lw	ra,28(sp)
    9796:	4462                	lw	s0,24(sp)
    9798:	44d2                	lw	s1,20(sp)
    979a:	4942                	lw	s2,16(sp)
    979c:	49b2                	lw	s3,12(sp)
    979e:	4a22                	lw	s4,8(sp)
    97a0:	4a92                	lw	s5,4(sp)
    97a2:	4b02                	lw	s6,0(sp)
    97a4:	6105                	addi	sp,sp,32
    97a6:	8082                	ret
    97a8:	480c                	lw	a1,16(s0)
    97aa:	864e                	mv	a2,s3
    97ac:	8f5fb0ef          	jal	ra,50a0 <memcpy>
    97b0:	00c45783          	lhu	a5,12(s0)
    97b4:	b7f7f793          	andi	a5,a5,-1153
    97b8:	0807e793          	ori	a5,a5,128
    97bc:	00f41623          	sh	a5,12(s0)
    97c0:	01242823          	sw	s2,16(s0)
    97c4:	c844                	sw	s1,20(s0)
    97c6:	994e                	add	s2,s2,s3
    97c8:	413484b3          	sub	s1,s1,s3
    97cc:	01242023          	sw	s2,0(s0)
    97d0:	c404                	sw	s1,8(s0)
    97d2:	8952                	mv	s2,s4
    97d4:	012a7363          	bgeu	s4,s2,97da <__ssputs_r+0xba>
    97d8:	8952                	mv	s2,s4
    97da:	4008                	lw	a0,0(s0)
    97dc:	864a                	mv	a2,s2
    97de:	85da                	mv	a1,s6
    97e0:	750000ef          	jal	ra,9f30 <memmove>
    97e4:	441c                	lw	a5,8(s0)
    97e6:	4501                	li	a0,0
    97e8:	412787b3          	sub	a5,a5,s2
    97ec:	c41c                	sw	a5,8(s0)
    97ee:	401c                	lw	a5,0(s0)
    97f0:	993e                	add	s2,s2,a5
    97f2:	01242023          	sw	s2,0(s0)
    97f6:	bf79                	j	9794 <__ssputs_r+0x74>
    97f8:	8626                	mv	a2,s1
    97fa:	8556                	mv	a0,s5
    97fc:	ecbff0ef          	jal	ra,96c6 <_realloc_r>
    9800:	892a                	mv	s2,a0
    9802:	fd5d                	bnez	a0,97c0 <__ssputs_r+0xa0>
    9804:	480c                	lw	a1,16(s0)
    9806:	8556                	mv	a0,s5
    9808:	94ffb0ef          	jal	ra,5156 <_free_r>
    980c:	bf95                	j	9780 <__ssputs_r+0x60>

0000980e <_svfiprintf_r>:
    980e:	00c5d783          	lhu	a5,12(a1)
    9812:	7171                	addi	sp,sp,-176
    9814:	d326                	sw	s1,164(sp)
    9816:	d14a                	sw	s2,160(sp)
    9818:	cf4e                	sw	s3,156(sp)
    981a:	d706                	sw	ra,172(sp)
    981c:	d522                	sw	s0,168(sp)
    981e:	cd52                	sw	s4,152(sp)
    9820:	cb56                	sw	s5,148(sp)
    9822:	c95a                	sw	s6,144(sp)
    9824:	c75e                	sw	s7,140(sp)
    9826:	c562                	sw	s8,136(sp)
    9828:	c366                	sw	s9,132(sp)
    982a:	0807f793          	andi	a5,a5,128
    982e:	89aa                	mv	s3,a0
    9830:	892e                	mv	s2,a1
    9832:	84b2                	mv	s1,a2
    9834:	c3b9                	beqz	a5,987a <_svfiprintf_r+0x6c>
    9836:	499c                	lw	a5,16(a1)
    9838:	e3a9                	bnez	a5,987a <_svfiprintf_r+0x6c>
    983a:	04000593          	li	a1,64
    983e:	c636                	sw	a3,12(sp)
    9840:	9bffb0ef          	jal	ra,51fe <_malloc_r>
    9844:	00a92023          	sw	a0,0(s2)
    9848:	00a92823          	sw	a0,16(s2)
    984c:	46b2                	lw	a3,12(sp)
    984e:	e115                	bnez	a0,9872 <_svfiprintf_r+0x64>
    9850:	47b1                	li	a5,12
    9852:	00f9a023          	sw	a5,0(s3)
    9856:	557d                	li	a0,-1
    9858:	50ba                	lw	ra,172(sp)
    985a:	542a                	lw	s0,168(sp)
    985c:	549a                	lw	s1,164(sp)
    985e:	590a                	lw	s2,160(sp)
    9860:	49fa                	lw	s3,156(sp)
    9862:	4a6a                	lw	s4,152(sp)
    9864:	4ada                	lw	s5,148(sp)
    9866:	4b4a                	lw	s6,144(sp)
    9868:	4bba                	lw	s7,140(sp)
    986a:	4c2a                	lw	s8,136(sp)
    986c:	4c9a                	lw	s9,132(sp)
    986e:	614d                	addi	sp,sp,176
    9870:	8082                	ret
    9872:	04000793          	li	a5,64
    9876:	00f92a23          	sw	a5,20(s2)
    987a:	02000793          	li	a5,32
    987e:	02f10ca3          	sb	a5,57(sp)
    9882:	03000793          	li	a5,48
    9886:	da02                	sw	zero,52(sp)
    9888:	02f10d23          	sb	a5,58(sp)
    988c:	ce36                	sw	a3,28(sp)
    988e:	02500b93          	li	s7,37
    9892:	00004a97          	auipc	s5,0x4
    9896:	dd2a8a93          	addi	s5,s5,-558 # d664 <p05.3319+0xc>
    989a:	4c05                	li	s8,1
    989c:	4b29                	li	s6,10
    989e:	8426                	mv	s0,s1
    98a0:	00044783          	lbu	a5,0(s0)
    98a4:	c399                	beqz	a5,98aa <_svfiprintf_r+0x9c>
    98a6:	09779d63          	bne	a5,s7,9940 <_svfiprintf_r+0x132>
    98aa:	40940cb3          	sub	s9,s0,s1
    98ae:	000c8e63          	beqz	s9,98ca <_svfiprintf_r+0xbc>
    98b2:	86e6                	mv	a3,s9
    98b4:	8626                	mv	a2,s1
    98b6:	85ca                	mv	a1,s2
    98b8:	854e                	mv	a0,s3
    98ba:	e67ff0ef          	jal	ra,9720 <__ssputs_r>
    98be:	57fd                	li	a5,-1
    98c0:	1af50263          	beq	a0,a5,9a64 <_svfiprintf_r+0x256>
    98c4:	56d2                	lw	a3,52(sp)
    98c6:	96e6                	add	a3,a3,s9
    98c8:	da36                	sw	a3,52(sp)
    98ca:	00044783          	lbu	a5,0(s0)
    98ce:	18078b63          	beqz	a5,9a64 <_svfiprintf_r+0x256>
    98d2:	57fd                	li	a5,-1
    98d4:	00140493          	addi	s1,s0,1
    98d8:	d002                	sw	zero,32(sp)
    98da:	d602                	sw	zero,44(sp)
    98dc:	d23e                	sw	a5,36(sp)
    98de:	d402                	sw	zero,40(sp)
    98e0:	060101a3          	sb	zero,99(sp)
    98e4:	dc82                	sw	zero,120(sp)
    98e6:	0004c583          	lbu	a1,0(s1)
    98ea:	4615                	li	a2,5
    98ec:	8556                	mv	a0,s5
    98ee:	c06ff0ef          	jal	ra,8cf4 <memchr>
    98f2:	00148413          	addi	s0,s1,1
    98f6:	5782                	lw	a5,32(sp)
    98f8:	e531                	bnez	a0,9944 <_svfiprintf_r+0x136>
    98fa:	0107f713          	andi	a4,a5,16
    98fe:	c709                	beqz	a4,9908 <_svfiprintf_r+0xfa>
    9900:	02000713          	li	a4,32
    9904:	06e101a3          	sb	a4,99(sp)
    9908:	0087f713          	andi	a4,a5,8
    990c:	c709                	beqz	a4,9916 <_svfiprintf_r+0x108>
    990e:	02b00713          	li	a4,43
    9912:	06e101a3          	sb	a4,99(sp)
    9916:	0004c683          	lbu	a3,0(s1)
    991a:	02a00713          	li	a4,42
    991e:	02e68b63          	beq	a3,a4,9954 <_svfiprintf_r+0x146>
    9922:	57b2                	lw	a5,44(sp)
    9924:	8426                	mv	s0,s1
    9926:	4681                	li	a3,0
    9928:	4625                	li	a2,9
    992a:	00044703          	lbu	a4,0(s0)
    992e:	00140593          	addi	a1,s0,1
    9932:	fd070713          	addi	a4,a4,-48 # ffefffd0 <_eusrstack+0xdfef7fd0>
    9936:	06e67463          	bgeu	a2,a4,999e <_svfiprintf_r+0x190>
    993a:	c68d                	beqz	a3,9964 <_svfiprintf_r+0x156>
    993c:	d63e                	sw	a5,44(sp)
    993e:	a01d                	j	9964 <_svfiprintf_r+0x156>
    9940:	0405                	addi	s0,s0,1
    9942:	bfb9                	j	98a0 <_svfiprintf_r+0x92>
    9944:	41550533          	sub	a0,a0,s5
    9948:	00ac1533          	sll	a0,s8,a0
    994c:	8fc9                	or	a5,a5,a0
    994e:	d03e                	sw	a5,32(sp)
    9950:	84a2                	mv	s1,s0
    9952:	bf51                	j	98e6 <_svfiprintf_r+0xd8>
    9954:	4772                	lw	a4,28(sp)
    9956:	00470693          	addi	a3,a4,4
    995a:	4318                	lw	a4,0(a4)
    995c:	ce36                	sw	a3,28(sp)
    995e:	02074963          	bltz	a4,9990 <_svfiprintf_r+0x182>
    9962:	d63a                	sw	a4,44(sp)
    9964:	00044703          	lbu	a4,0(s0)
    9968:	02e00793          	li	a5,46
    996c:	04f71f63          	bne	a4,a5,99ca <_svfiprintf_r+0x1bc>
    9970:	00144703          	lbu	a4,1(s0)
    9974:	02a00793          	li	a5,42
    9978:	02f71b63          	bne	a4,a5,99ae <_svfiprintf_r+0x1a0>
    997c:	47f2                	lw	a5,28(sp)
    997e:	0409                	addi	s0,s0,2
    9980:	00478713          	addi	a4,a5,4 # 80000004 <_eusrstack+0x5fff8004>
    9984:	439c                	lw	a5,0(a5)
    9986:	ce3a                	sw	a4,28(sp)
    9988:	0207c163          	bltz	a5,99aa <_svfiprintf_r+0x19c>
    998c:	d23e                	sw	a5,36(sp)
    998e:	a835                	j	99ca <_svfiprintf_r+0x1bc>
    9990:	40e00733          	neg	a4,a4
    9994:	0027e793          	ori	a5,a5,2
    9998:	d63a                	sw	a4,44(sp)
    999a:	d03e                	sw	a5,32(sp)
    999c:	b7e1                	j	9964 <_svfiprintf_r+0x156>
    999e:	036787b3          	mul	a5,a5,s6
    99a2:	4685                	li	a3,1
    99a4:	842e                	mv	s0,a1
    99a6:	97ba                	add	a5,a5,a4
    99a8:	b749                	j	992a <_svfiprintf_r+0x11c>
    99aa:	57fd                	li	a5,-1
    99ac:	b7c5                	j	998c <_svfiprintf_r+0x17e>
    99ae:	0405                	addi	s0,s0,1
    99b0:	d202                	sw	zero,36(sp)
    99b2:	4681                	li	a3,0
    99b4:	4781                	li	a5,0
    99b6:	4625                	li	a2,9
    99b8:	00044703          	lbu	a4,0(s0)
    99bc:	00140593          	addi	a1,s0,1
    99c0:	fd070713          	addi	a4,a4,-48
    99c4:	06e67863          	bgeu	a2,a4,9a34 <_svfiprintf_r+0x226>
    99c8:	f2f1                	bnez	a3,998c <_svfiprintf_r+0x17e>
    99ca:	00044583          	lbu	a1,0(s0)
    99ce:	460d                	li	a2,3
    99d0:	00004517          	auipc	a0,0x4
    99d4:	c9c50513          	addi	a0,a0,-868 # d66c <p05.3319+0x14>
    99d8:	b1cff0ef          	jal	ra,8cf4 <memchr>
    99dc:	cd11                	beqz	a0,99f8 <_svfiprintf_r+0x1ea>
    99de:	00004797          	auipc	a5,0x4
    99e2:	c8e78793          	addi	a5,a5,-882 # d66c <p05.3319+0x14>
    99e6:	8d1d                	sub	a0,a0,a5
    99e8:	04000793          	li	a5,64
    99ec:	00a797b3          	sll	a5,a5,a0
    99f0:	5502                	lw	a0,32(sp)
    99f2:	0405                	addi	s0,s0,1
    99f4:	8d5d                	or	a0,a0,a5
    99f6:	d02a                	sw	a0,32(sp)
    99f8:	00044583          	lbu	a1,0(s0)
    99fc:	4619                	li	a2,6
    99fe:	00004517          	auipc	a0,0x4
    9a02:	c7250513          	addi	a0,a0,-910 # d670 <p05.3319+0x18>
    9a06:	00140493          	addi	s1,s0,1
    9a0a:	02b10c23          	sb	a1,56(sp)
    9a0e:	ae6ff0ef          	jal	ra,8cf4 <memchr>
    9a12:	c135                	beqz	a0,9a76 <_svfiprintf_r+0x268>
    9a14:	ffffc797          	auipc	a5,0xffffc
    9a18:	a3e78793          	addi	a5,a5,-1474 # 5452 <_printf_float>
    9a1c:	e795                	bnez	a5,9a48 <_svfiprintf_r+0x23a>
    9a1e:	5702                	lw	a4,32(sp)
    9a20:	47f2                	lw	a5,28(sp)
    9a22:	10077713          	andi	a4,a4,256
    9a26:	cf09                	beqz	a4,9a40 <_svfiprintf_r+0x232>
    9a28:	0791                	addi	a5,a5,4
    9a2a:	ce3e                	sw	a5,28(sp)
    9a2c:	57d2                	lw	a5,52(sp)
    9a2e:	97d2                	add	a5,a5,s4
    9a30:	da3e                	sw	a5,52(sp)
    9a32:	b5b5                	j	989e <_svfiprintf_r+0x90>
    9a34:	036787b3          	mul	a5,a5,s6
    9a38:	4685                	li	a3,1
    9a3a:	842e                	mv	s0,a1
    9a3c:	97ba                	add	a5,a5,a4
    9a3e:	bfad                	j	99b8 <_svfiprintf_r+0x1aa>
    9a40:	079d                	addi	a5,a5,7
    9a42:	9be1                	andi	a5,a5,-8
    9a44:	07a1                	addi	a5,a5,8
    9a46:	b7d5                	j	9a2a <_svfiprintf_r+0x21c>
    9a48:	0878                	addi	a4,sp,28
    9a4a:	00000697          	auipc	a3,0x0
    9a4e:	cd668693          	addi	a3,a3,-810 # 9720 <__ssputs_r>
    9a52:	864a                	mv	a2,s2
    9a54:	100c                	addi	a1,sp,32
    9a56:	854e                	mv	a0,s3
    9a58:	9fbfb0ef          	jal	ra,5452 <_printf_float>
    9a5c:	57fd                	li	a5,-1
    9a5e:	8a2a                	mv	s4,a0
    9a60:	fcf516e3          	bne	a0,a5,9a2c <_svfiprintf_r+0x21e>
    9a64:	00c95783          	lhu	a5,12(s2)
    9a68:	557d                	li	a0,-1
    9a6a:	0407f793          	andi	a5,a5,64
    9a6e:	de0795e3          	bnez	a5,9858 <_svfiprintf_r+0x4a>
    9a72:	5552                	lw	a0,52(sp)
    9a74:	b3d5                	j	9858 <_svfiprintf_r+0x4a>
    9a76:	0878                	addi	a4,sp,28
    9a78:	00000697          	auipc	a3,0x0
    9a7c:	ca868693          	addi	a3,a3,-856 # 9720 <__ssputs_r>
    9a80:	864a                	mv	a2,s2
    9a82:	100c                	addi	a1,sp,32
    9a84:	854e                	mv	a0,s3
    9a86:	f9dfb0ef          	jal	ra,5a22 <_printf_i>
    9a8a:	bfc9                	j	9a5c <_svfiprintf_r+0x24e>

00009a8c <__sfputc_r>:
    9a8c:	461c                	lw	a5,8(a2)
    9a8e:	17fd                	addi	a5,a5,-1
    9a90:	c61c                	sw	a5,8(a2)
    9a92:	0007da63          	bgez	a5,9aa6 <__sfputc_r+0x1a>
    9a96:	4e18                	lw	a4,24(a2)
    9a98:	00e7c563          	blt	a5,a4,9aa2 <__sfputc_r+0x16>
    9a9c:	47a9                	li	a5,10
    9a9e:	00f59463          	bne	a1,a5,9aa6 <__sfputc_r+0x1a>
    9aa2:	ec6fd06f          	j	7168 <__swbuf_r>
    9aa6:	421c                	lw	a5,0(a2)
    9aa8:	852e                	mv	a0,a1
    9aaa:	00178713          	addi	a4,a5,1
    9aae:	c218                	sw	a4,0(a2)
    9ab0:	00b78023          	sb	a1,0(a5)
    9ab4:	8082                	ret

00009ab6 <__sfputs_r>:
    9ab6:	1101                	addi	sp,sp,-32
    9ab8:	cc22                	sw	s0,24(sp)
    9aba:	ca26                	sw	s1,20(sp)
    9abc:	c84a                	sw	s2,16(sp)
    9abe:	c64e                	sw	s3,12(sp)
    9ac0:	c452                	sw	s4,8(sp)
    9ac2:	ce06                	sw	ra,28(sp)
    9ac4:	892a                	mv	s2,a0
    9ac6:	89ae                	mv	s3,a1
    9ac8:	8432                	mv	s0,a2
    9aca:	00d604b3          	add	s1,a2,a3
    9ace:	5a7d                	li	s4,-1
    9ad0:	00941463          	bne	s0,s1,9ad8 <__sfputs_r+0x22>
    9ad4:	4501                	li	a0,0
    9ad6:	a811                	j	9aea <__sfputs_r+0x34>
    9ad8:	00044583          	lbu	a1,0(s0)
    9adc:	864e                	mv	a2,s3
    9ade:	854a                	mv	a0,s2
    9ae0:	fadff0ef          	jal	ra,9a8c <__sfputc_r>
    9ae4:	0405                	addi	s0,s0,1
    9ae6:	ff4515e3          	bne	a0,s4,9ad0 <__sfputs_r+0x1a>
    9aea:	40f2                	lw	ra,28(sp)
    9aec:	4462                	lw	s0,24(sp)
    9aee:	44d2                	lw	s1,20(sp)
    9af0:	4942                	lw	s2,16(sp)
    9af2:	49b2                	lw	s3,12(sp)
    9af4:	4a22                	lw	s4,8(sp)
    9af6:	6105                	addi	sp,sp,32
    9af8:	8082                	ret

00009afa <_vfiprintf_r>:
    9afa:	7135                	addi	sp,sp,-160
    9afc:	cd22                	sw	s0,152(sp)
    9afe:	cb26                	sw	s1,148(sp)
    9b00:	c94a                	sw	s2,144(sp)
    9b02:	c74e                	sw	s3,140(sp)
    9b04:	cf06                	sw	ra,156(sp)
    9b06:	c552                	sw	s4,136(sp)
    9b08:	c356                	sw	s5,132(sp)
    9b0a:	c15a                	sw	s6,128(sp)
    9b0c:	dede                	sw	s7,124(sp)
    9b0e:	dce2                	sw	s8,120(sp)
    9b10:	dae6                	sw	s9,116(sp)
    9b12:	89aa                	mv	s3,a0
    9b14:	84ae                	mv	s1,a1
    9b16:	8932                	mv	s2,a2
    9b18:	8436                	mv	s0,a3
    9b1a:	c509                	beqz	a0,9b24 <_vfiprintf_r+0x2a>
    9b1c:	4d1c                	lw	a5,24(a0)
    9b1e:	e399                	bnez	a5,9b24 <_vfiprintf_r+0x2a>
    9b20:	ffafe0ef          	jal	ra,831a <__sinit>
    9b24:	00004797          	auipc	a5,0x4
    9b28:	a0478793          	addi	a5,a5,-1532 # d528 <__sf_fake_stdin>
    9b2c:	0cf49d63          	bne	s1,a5,9c06 <_vfiprintf_r+0x10c>
    9b30:	0049a483          	lw	s1,4(s3)
    9b34:	00c4d783          	lhu	a5,12(s1)
    9b38:	8ba1                	andi	a5,a5,8
    9b3a:	cbe5                	beqz	a5,9c2a <_vfiprintf_r+0x130>
    9b3c:	489c                	lw	a5,16(s1)
    9b3e:	c7f5                	beqz	a5,9c2a <_vfiprintf_r+0x130>
    9b40:	02000793          	li	a5,32
    9b44:	02f104a3          	sb	a5,41(sp)
    9b48:	03000793          	li	a5,48
    9b4c:	d202                	sw	zero,36(sp)
    9b4e:	02f10523          	sb	a5,42(sp)
    9b52:	c622                	sw	s0,12(sp)
    9b54:	02500b93          	li	s7,37
    9b58:	00004a97          	auipc	s5,0x4
    9b5c:	b0ca8a93          	addi	s5,s5,-1268 # d664 <p05.3319+0xc>
    9b60:	4c05                	li	s8,1
    9b62:	4b29                	li	s6,10
    9b64:	844a                	mv	s0,s2
    9b66:	00044783          	lbu	a5,0(s0)
    9b6a:	c399                	beqz	a5,9b70 <_vfiprintf_r+0x76>
    9b6c:	0f779263          	bne	a5,s7,9c50 <_vfiprintf_r+0x156>
    9b70:	41240cb3          	sub	s9,s0,s2
    9b74:	000c8e63          	beqz	s9,9b90 <_vfiprintf_r+0x96>
    9b78:	86e6                	mv	a3,s9
    9b7a:	864a                	mv	a2,s2
    9b7c:	85a6                	mv	a1,s1
    9b7e:	854e                	mv	a0,s3
    9b80:	f37ff0ef          	jal	ra,9ab6 <__sfputs_r>
    9b84:	57fd                	li	a5,-1
    9b86:	1ef50763          	beq	a0,a5,9d74 <_vfiprintf_r+0x27a>
    9b8a:	5692                	lw	a3,36(sp)
    9b8c:	96e6                	add	a3,a3,s9
    9b8e:	d236                	sw	a3,36(sp)
    9b90:	00044783          	lbu	a5,0(s0)
    9b94:	1e078063          	beqz	a5,9d74 <_vfiprintf_r+0x27a>
    9b98:	57fd                	li	a5,-1
    9b9a:	00140913          	addi	s2,s0,1
    9b9e:	c802                	sw	zero,16(sp)
    9ba0:	ce02                	sw	zero,28(sp)
    9ba2:	ca3e                	sw	a5,20(sp)
    9ba4:	cc02                	sw	zero,24(sp)
    9ba6:	040109a3          	sb	zero,83(sp)
    9baa:	d482                	sw	zero,104(sp)
    9bac:	00094583          	lbu	a1,0(s2)
    9bb0:	4615                	li	a2,5
    9bb2:	8556                	mv	a0,s5
    9bb4:	940ff0ef          	jal	ra,8cf4 <memchr>
    9bb8:	00190413          	addi	s0,s2,1
    9bbc:	47c2                	lw	a5,16(sp)
    9bbe:	e959                	bnez	a0,9c54 <_vfiprintf_r+0x15a>
    9bc0:	0107f713          	andi	a4,a5,16
    9bc4:	c709                	beqz	a4,9bce <_vfiprintf_r+0xd4>
    9bc6:	02000713          	li	a4,32
    9bca:	04e109a3          	sb	a4,83(sp)
    9bce:	0087f713          	andi	a4,a5,8
    9bd2:	c709                	beqz	a4,9bdc <_vfiprintf_r+0xe2>
    9bd4:	02b00713          	li	a4,43
    9bd8:	04e109a3          	sb	a4,83(sp)
    9bdc:	00094683          	lbu	a3,0(s2)
    9be0:	02a00713          	li	a4,42
    9be4:	08e68063          	beq	a3,a4,9c64 <_vfiprintf_r+0x16a>
    9be8:	47f2                	lw	a5,28(sp)
    9bea:	844a                	mv	s0,s2
    9bec:	4681                	li	a3,0
    9bee:	4625                	li	a2,9
    9bf0:	00044703          	lbu	a4,0(s0)
    9bf4:	00140593          	addi	a1,s0,1
    9bf8:	fd070713          	addi	a4,a4,-48
    9bfc:	0ae67963          	bgeu	a2,a4,9cae <_vfiprintf_r+0x1b4>
    9c00:	cab5                	beqz	a3,9c74 <_vfiprintf_r+0x17a>
    9c02:	ce3e                	sw	a5,28(sp)
    9c04:	a885                	j	9c74 <_vfiprintf_r+0x17a>
    9c06:	00004797          	auipc	a5,0x4
    9c0a:	94278793          	addi	a5,a5,-1726 # d548 <__sf_fake_stdout>
    9c0e:	00f49563          	bne	s1,a5,9c18 <_vfiprintf_r+0x11e>
    9c12:	0089a483          	lw	s1,8(s3)
    9c16:	bf39                	j	9b34 <_vfiprintf_r+0x3a>
    9c18:	00004797          	auipc	a5,0x4
    9c1c:	8f078793          	addi	a5,a5,-1808 # d508 <__sf_fake_stderr>
    9c20:	f0f49ae3          	bne	s1,a5,9b34 <_vfiprintf_r+0x3a>
    9c24:	00c9a483          	lw	s1,12(s3)
    9c28:	b731                	j	9b34 <_vfiprintf_r+0x3a>
    9c2a:	85a6                	mv	a1,s1
    9c2c:	854e                	mv	a0,s3
    9c2e:	e20fd0ef          	jal	ra,724e <__swsetup_r>
    9c32:	d519                	beqz	a0,9b40 <_vfiprintf_r+0x46>
    9c34:	557d                	li	a0,-1
    9c36:	40fa                	lw	ra,156(sp)
    9c38:	446a                	lw	s0,152(sp)
    9c3a:	44da                	lw	s1,148(sp)
    9c3c:	494a                	lw	s2,144(sp)
    9c3e:	49ba                	lw	s3,140(sp)
    9c40:	4a2a                	lw	s4,136(sp)
    9c42:	4a9a                	lw	s5,132(sp)
    9c44:	4b0a                	lw	s6,128(sp)
    9c46:	5bf6                	lw	s7,124(sp)
    9c48:	5c66                	lw	s8,120(sp)
    9c4a:	5cd6                	lw	s9,116(sp)
    9c4c:	610d                	addi	sp,sp,160
    9c4e:	8082                	ret
    9c50:	0405                	addi	s0,s0,1
    9c52:	bf11                	j	9b66 <_vfiprintf_r+0x6c>
    9c54:	41550533          	sub	a0,a0,s5
    9c58:	00ac1533          	sll	a0,s8,a0
    9c5c:	8fc9                	or	a5,a5,a0
    9c5e:	c83e                	sw	a5,16(sp)
    9c60:	8922                	mv	s2,s0
    9c62:	b7a9                	j	9bac <_vfiprintf_r+0xb2>
    9c64:	4732                	lw	a4,12(sp)
    9c66:	00470693          	addi	a3,a4,4
    9c6a:	4318                	lw	a4,0(a4)
    9c6c:	c636                	sw	a3,12(sp)
    9c6e:	02074963          	bltz	a4,9ca0 <_vfiprintf_r+0x1a6>
    9c72:	ce3a                	sw	a4,28(sp)
    9c74:	00044703          	lbu	a4,0(s0)
    9c78:	02e00793          	li	a5,46
    9c7c:	04f71f63          	bne	a4,a5,9cda <_vfiprintf_r+0x1e0>
    9c80:	00144703          	lbu	a4,1(s0)
    9c84:	02a00793          	li	a5,42
    9c88:	02f71b63          	bne	a4,a5,9cbe <_vfiprintf_r+0x1c4>
    9c8c:	47b2                	lw	a5,12(sp)
    9c8e:	0409                	addi	s0,s0,2
    9c90:	00478713          	addi	a4,a5,4
    9c94:	439c                	lw	a5,0(a5)
    9c96:	c63a                	sw	a4,12(sp)
    9c98:	0207c163          	bltz	a5,9cba <_vfiprintf_r+0x1c0>
    9c9c:	ca3e                	sw	a5,20(sp)
    9c9e:	a835                	j	9cda <_vfiprintf_r+0x1e0>
    9ca0:	40e00733          	neg	a4,a4
    9ca4:	0027e793          	ori	a5,a5,2
    9ca8:	ce3a                	sw	a4,28(sp)
    9caa:	c83e                	sw	a5,16(sp)
    9cac:	b7e1                	j	9c74 <_vfiprintf_r+0x17a>
    9cae:	036787b3          	mul	a5,a5,s6
    9cb2:	4685                	li	a3,1
    9cb4:	842e                	mv	s0,a1
    9cb6:	97ba                	add	a5,a5,a4
    9cb8:	bf25                	j	9bf0 <_vfiprintf_r+0xf6>
    9cba:	57fd                	li	a5,-1
    9cbc:	b7c5                	j	9c9c <_vfiprintf_r+0x1a2>
    9cbe:	0405                	addi	s0,s0,1
    9cc0:	ca02                	sw	zero,20(sp)
    9cc2:	4681                	li	a3,0
    9cc4:	4781                	li	a5,0
    9cc6:	4625                	li	a2,9
    9cc8:	00044703          	lbu	a4,0(s0)
    9ccc:	00140593          	addi	a1,s0,1
    9cd0:	fd070713          	addi	a4,a4,-48
    9cd4:	06e67863          	bgeu	a2,a4,9d44 <_vfiprintf_r+0x24a>
    9cd8:	f2f1                	bnez	a3,9c9c <_vfiprintf_r+0x1a2>
    9cda:	00044583          	lbu	a1,0(s0)
    9cde:	460d                	li	a2,3
    9ce0:	00004517          	auipc	a0,0x4
    9ce4:	98c50513          	addi	a0,a0,-1652 # d66c <p05.3319+0x14>
    9ce8:	80cff0ef          	jal	ra,8cf4 <memchr>
    9cec:	cd11                	beqz	a0,9d08 <_vfiprintf_r+0x20e>
    9cee:	00004797          	auipc	a5,0x4
    9cf2:	97e78793          	addi	a5,a5,-1666 # d66c <p05.3319+0x14>
    9cf6:	8d1d                	sub	a0,a0,a5
    9cf8:	04000793          	li	a5,64
    9cfc:	00a797b3          	sll	a5,a5,a0
    9d00:	4542                	lw	a0,16(sp)
    9d02:	0405                	addi	s0,s0,1
    9d04:	8d5d                	or	a0,a0,a5
    9d06:	c82a                	sw	a0,16(sp)
    9d08:	00044583          	lbu	a1,0(s0)
    9d0c:	4619                	li	a2,6
    9d0e:	00004517          	auipc	a0,0x4
    9d12:	96250513          	addi	a0,a0,-1694 # d670 <p05.3319+0x18>
    9d16:	00140913          	addi	s2,s0,1
    9d1a:	02b10423          	sb	a1,40(sp)
    9d1e:	fd7fe0ef          	jal	ra,8cf4 <memchr>
    9d22:	c12d                	beqz	a0,9d84 <_vfiprintf_r+0x28a>
    9d24:	ffffb797          	auipc	a5,0xffffb
    9d28:	72e78793          	addi	a5,a5,1838 # 5452 <_printf_float>
    9d2c:	e795                	bnez	a5,9d58 <_vfiprintf_r+0x25e>
    9d2e:	4742                	lw	a4,16(sp)
    9d30:	47b2                	lw	a5,12(sp)
    9d32:	10077713          	andi	a4,a4,256
    9d36:	cf09                	beqz	a4,9d50 <_vfiprintf_r+0x256>
    9d38:	0791                	addi	a5,a5,4
    9d3a:	c63e                	sw	a5,12(sp)
    9d3c:	5792                	lw	a5,36(sp)
    9d3e:	97d2                	add	a5,a5,s4
    9d40:	d23e                	sw	a5,36(sp)
    9d42:	b50d                	j	9b64 <_vfiprintf_r+0x6a>
    9d44:	036787b3          	mul	a5,a5,s6
    9d48:	4685                	li	a3,1
    9d4a:	842e                	mv	s0,a1
    9d4c:	97ba                	add	a5,a5,a4
    9d4e:	bfad                	j	9cc8 <_vfiprintf_r+0x1ce>
    9d50:	079d                	addi	a5,a5,7
    9d52:	9be1                	andi	a5,a5,-8
    9d54:	07a1                	addi	a5,a5,8
    9d56:	b7d5                	j	9d3a <_vfiprintf_r+0x240>
    9d58:	0078                	addi	a4,sp,12
    9d5a:	00000697          	auipc	a3,0x0
    9d5e:	d5c68693          	addi	a3,a3,-676 # 9ab6 <__sfputs_r>
    9d62:	8626                	mv	a2,s1
    9d64:	080c                	addi	a1,sp,16
    9d66:	854e                	mv	a0,s3
    9d68:	eeafb0ef          	jal	ra,5452 <_printf_float>
    9d6c:	57fd                	li	a5,-1
    9d6e:	8a2a                	mv	s4,a0
    9d70:	fcf516e3          	bne	a0,a5,9d3c <_vfiprintf_r+0x242>
    9d74:	00c4d783          	lhu	a5,12(s1)
    9d78:	0407f793          	andi	a5,a5,64
    9d7c:	ea079ce3          	bnez	a5,9c34 <_vfiprintf_r+0x13a>
    9d80:	5512                	lw	a0,36(sp)
    9d82:	bd55                	j	9c36 <_vfiprintf_r+0x13c>
    9d84:	0078                	addi	a4,sp,12
    9d86:	00000697          	auipc	a3,0x0
    9d8a:	d3068693          	addi	a3,a3,-720 # 9ab6 <__sfputs_r>
    9d8e:	8626                	mv	a2,s1
    9d90:	080c                	addi	a1,sp,16
    9d92:	854e                	mv	a0,s3
    9d94:	c8ffb0ef          	jal	ra,5a22 <_printf_i>
    9d98:	bfd1                	j	9d6c <_vfiprintf_r+0x272>

00009d9a <__sread>:
    9d9a:	1141                	addi	sp,sp,-16
    9d9c:	c422                	sw	s0,8(sp)
    9d9e:	842e                	mv	s0,a1
    9da0:	00e59583          	lh	a1,14(a1)
    9da4:	c606                	sw	ra,12(sp)
    9da6:	22e5                	jal	9f8e <_read_r>
    9da8:	00054963          	bltz	a0,9dba <__sread+0x20>
    9dac:	487c                	lw	a5,84(s0)
    9dae:	97aa                	add	a5,a5,a0
    9db0:	c87c                	sw	a5,84(s0)
    9db2:	40b2                	lw	ra,12(sp)
    9db4:	4422                	lw	s0,8(sp)
    9db6:	0141                	addi	sp,sp,16
    9db8:	8082                	ret
    9dba:	00c45783          	lhu	a5,12(s0)
    9dbe:	777d                	lui	a4,0xfffff
    9dc0:	177d                	addi	a4,a4,-1
    9dc2:	8ff9                	and	a5,a5,a4
    9dc4:	00f41623          	sh	a5,12(s0)
    9dc8:	b7ed                	j	9db2 <__sread+0x18>

00009dca <__swrite>:
    9dca:	00c5d783          	lhu	a5,12(a1)
    9dce:	1101                	addi	sp,sp,-32
    9dd0:	cc22                	sw	s0,24(sp)
    9dd2:	ca26                	sw	s1,20(sp)
    9dd4:	c84a                	sw	s2,16(sp)
    9dd6:	c64e                	sw	s3,12(sp)
    9dd8:	ce06                	sw	ra,28(sp)
    9dda:	1007f793          	andi	a5,a5,256
    9dde:	84aa                	mv	s1,a0
    9de0:	842e                	mv	s0,a1
    9de2:	8932                	mv	s2,a2
    9de4:	89b6                	mv	s3,a3
    9de6:	c791                	beqz	a5,9df2 <__swrite+0x28>
    9de8:	00e59583          	lh	a1,14(a1)
    9dec:	4689                	li	a3,2
    9dee:	4601                	li	a2,0
    9df0:	2a09                	jal	9f02 <_lseek_r>
    9df2:	00c45783          	lhu	a5,12(s0)
    9df6:	777d                	lui	a4,0xfffff
    9df8:	177d                	addi	a4,a4,-1
    9dfa:	8ff9                	and	a5,a5,a4
    9dfc:	00f41623          	sh	a5,12(s0)
    9e00:	00e41583          	lh	a1,14(s0)
    9e04:	4462                	lw	s0,24(sp)
    9e06:	40f2                	lw	ra,28(sp)
    9e08:	86ce                	mv	a3,s3
    9e0a:	864a                	mv	a2,s2
    9e0c:	49b2                	lw	s3,12(sp)
    9e0e:	4942                	lw	s2,16(sp)
    9e10:	8526                	mv	a0,s1
    9e12:	44d2                	lw	s1,20(sp)
    9e14:	6105                	addi	sp,sp,32
    9e16:	a83d                	j	9e54 <_write_r>

00009e18 <__sseek>:
    9e18:	1141                	addi	sp,sp,-16
    9e1a:	c422                	sw	s0,8(sp)
    9e1c:	842e                	mv	s0,a1
    9e1e:	00e59583          	lh	a1,14(a1)
    9e22:	c606                	sw	ra,12(sp)
    9e24:	28f9                	jal	9f02 <_lseek_r>
    9e26:	57fd                	li	a5,-1
    9e28:	00c45703          	lhu	a4,12(s0)
    9e2c:	00f51b63          	bne	a0,a5,9e42 <__sseek+0x2a>
    9e30:	77fd                	lui	a5,0xfffff
    9e32:	17fd                	addi	a5,a5,-1
    9e34:	8ff9                	and	a5,a5,a4
    9e36:	00f41623          	sh	a5,12(s0)
    9e3a:	40b2                	lw	ra,12(sp)
    9e3c:	4422                	lw	s0,8(sp)
    9e3e:	0141                	addi	sp,sp,16
    9e40:	8082                	ret
    9e42:	6785                	lui	a5,0x1
    9e44:	8fd9                	or	a5,a5,a4
    9e46:	00f41623          	sh	a5,12(s0)
    9e4a:	c868                	sw	a0,84(s0)
    9e4c:	b7fd                	j	9e3a <__sseek+0x22>

00009e4e <__sclose>:
    9e4e:	00e59583          	lh	a1,14(a1)
    9e52:	a805                	j	9e82 <_close_r>

00009e54 <_write_r>:
    9e54:	1141                	addi	sp,sp,-16
    9e56:	c422                	sw	s0,8(sp)
    9e58:	842a                	mv	s0,a0
    9e5a:	852e                	mv	a0,a1
    9e5c:	85b2                	mv	a1,a2
    9e5e:	8636                	mv	a2,a3
    9e60:	6601a423          	sw	zero,1640(gp) # 20001f50 <errno>
    9e64:	c606                	sw	ra,12(sp)
    9e66:	d9ffa0ef          	jal	ra,4c04 <_write>
    9e6a:	57fd                	li	a5,-1
    9e6c:	00f51763          	bne	a0,a5,9e7a <_write_r+0x26>
    9e70:	66818793          	addi	a5,gp,1640 # 20001f50 <errno>
    9e74:	439c                	lw	a5,0(a5)
    9e76:	c391                	beqz	a5,9e7a <_write_r+0x26>
    9e78:	c01c                	sw	a5,0(s0)
    9e7a:	40b2                	lw	ra,12(sp)
    9e7c:	4422                	lw	s0,8(sp)
    9e7e:	0141                	addi	sp,sp,16
    9e80:	8082                	ret

00009e82 <_close_r>:
    9e82:	1141                	addi	sp,sp,-16
    9e84:	c422                	sw	s0,8(sp)
    9e86:	842a                	mv	s0,a0
    9e88:	852e                	mv	a0,a1
    9e8a:	6601a423          	sw	zero,1640(gp) # 20001f50 <errno>
    9e8e:	c606                	sw	ra,12(sp)
    9e90:	348020ef          	jal	ra,c1d8 <_close>
    9e94:	57fd                	li	a5,-1
    9e96:	00f51763          	bne	a0,a5,9ea4 <_close_r+0x22>
    9e9a:	66818793          	addi	a5,gp,1640 # 20001f50 <errno>
    9e9e:	439c                	lw	a5,0(a5)
    9ea0:	c391                	beqz	a5,9ea4 <_close_r+0x22>
    9ea2:	c01c                	sw	a5,0(s0)
    9ea4:	40b2                	lw	ra,12(sp)
    9ea6:	4422                	lw	s0,8(sp)
    9ea8:	0141                	addi	sp,sp,16
    9eaa:	8082                	ret

00009eac <_fstat_r>:
    9eac:	1141                	addi	sp,sp,-16
    9eae:	c422                	sw	s0,8(sp)
    9eb0:	842a                	mv	s0,a0
    9eb2:	852e                	mv	a0,a1
    9eb4:	85b2                	mv	a1,a2
    9eb6:	6601a423          	sw	zero,1640(gp) # 20001f50 <errno>
    9eba:	c606                	sw	ra,12(sp)
    9ebc:	328020ef          	jal	ra,c1e4 <_fstat>
    9ec0:	57fd                	li	a5,-1
    9ec2:	00f51763          	bne	a0,a5,9ed0 <_fstat_r+0x24>
    9ec6:	66818793          	addi	a5,gp,1640 # 20001f50 <errno>
    9eca:	439c                	lw	a5,0(a5)
    9ecc:	c391                	beqz	a5,9ed0 <_fstat_r+0x24>
    9ece:	c01c                	sw	a5,0(s0)
    9ed0:	40b2                	lw	ra,12(sp)
    9ed2:	4422                	lw	s0,8(sp)
    9ed4:	0141                	addi	sp,sp,16
    9ed6:	8082                	ret

00009ed8 <_isatty_r>:
    9ed8:	1141                	addi	sp,sp,-16
    9eda:	c422                	sw	s0,8(sp)
    9edc:	842a                	mv	s0,a0
    9ede:	852e                	mv	a0,a1
    9ee0:	6601a423          	sw	zero,1640(gp) # 20001f50 <errno>
    9ee4:	c606                	sw	ra,12(sp)
    9ee6:	30a020ef          	jal	ra,c1f0 <_isatty>
    9eea:	57fd                	li	a5,-1
    9eec:	00f51763          	bne	a0,a5,9efa <_isatty_r+0x22>
    9ef0:	66818793          	addi	a5,gp,1640 # 20001f50 <errno>
    9ef4:	439c                	lw	a5,0(a5)
    9ef6:	c391                	beqz	a5,9efa <_isatty_r+0x22>
    9ef8:	c01c                	sw	a5,0(s0)
    9efa:	40b2                	lw	ra,12(sp)
    9efc:	4422                	lw	s0,8(sp)
    9efe:	0141                	addi	sp,sp,16
    9f00:	8082                	ret

00009f02 <_lseek_r>:
    9f02:	1141                	addi	sp,sp,-16
    9f04:	c422                	sw	s0,8(sp)
    9f06:	842a                	mv	s0,a0
    9f08:	852e                	mv	a0,a1
    9f0a:	85b2                	mv	a1,a2
    9f0c:	8636                	mv	a2,a3
    9f0e:	6601a423          	sw	zero,1640(gp) # 20001f50 <errno>
    9f12:	c606                	sw	ra,12(sp)
    9f14:	2e8020ef          	jal	ra,c1fc <_lseek>
    9f18:	57fd                	li	a5,-1
    9f1a:	00f51763          	bne	a0,a5,9f28 <_lseek_r+0x26>
    9f1e:	66818793          	addi	a5,gp,1640 # 20001f50 <errno>
    9f22:	439c                	lw	a5,0(a5)
    9f24:	c391                	beqz	a5,9f28 <_lseek_r+0x26>
    9f26:	c01c                	sw	a5,0(s0)
    9f28:	40b2                	lw	ra,12(sp)
    9f2a:	4422                	lw	s0,8(sp)
    9f2c:	0141                	addi	sp,sp,16
    9f2e:	8082                	ret

00009f30 <memmove>:
    9f30:	04a5f363          	bgeu	a1,a0,9f76 <memmove+0x46>
    9f34:	00c586b3          	add	a3,a1,a2
    9f38:	02d57f63          	bgeu	a0,a3,9f76 <memmove+0x46>
    9f3c:	fff64593          	not	a1,a2
    9f40:	4781                	li	a5,0
    9f42:	17fd                	addi	a5,a5,-1
    9f44:	00f59363          	bne	a1,a5,9f4a <memmove+0x1a>
    9f48:	8082                	ret
    9f4a:	00f68733          	add	a4,a3,a5
    9f4e:	00074803          	lbu	a6,0(a4) # fffff000 <_eusrstack+0xdfff7000>
    9f52:	00c78733          	add	a4,a5,a2
    9f56:	972a                	add	a4,a4,a0
    9f58:	01070023          	sb	a6,0(a4)
    9f5c:	b7dd                	j	9f42 <memmove+0x12>
    9f5e:	00f58733          	add	a4,a1,a5
    9f62:	00074683          	lbu	a3,0(a4)
    9f66:	00f50733          	add	a4,a0,a5
    9f6a:	0785                	addi	a5,a5,1
    9f6c:	00d70023          	sb	a3,0(a4)
    9f70:	fef617e3          	bne	a2,a5,9f5e <memmove+0x2e>
    9f74:	8082                	ret
    9f76:	4781                	li	a5,0
    9f78:	bfe5                	j	9f70 <memmove+0x40>

00009f7a <_malloc_usable_size_r>:
    9f7a:	ffc5a783          	lw	a5,-4(a1)
    9f7e:	ffc78513          	addi	a0,a5,-4 # ffc <check_crc16+0x8>
    9f82:	0007d563          	bgez	a5,9f8c <_malloc_usable_size_r+0x12>
    9f86:	95aa                	add	a1,a1,a0
    9f88:	419c                	lw	a5,0(a1)
    9f8a:	953e                	add	a0,a0,a5
    9f8c:	8082                	ret

00009f8e <_read_r>:
    9f8e:	1141                	addi	sp,sp,-16
    9f90:	c422                	sw	s0,8(sp)
    9f92:	842a                	mv	s0,a0
    9f94:	852e                	mv	a0,a1
    9f96:	85b2                	mv	a1,a2
    9f98:	8636                	mv	a2,a3
    9f9a:	6601a423          	sw	zero,1640(gp) # 20001f50 <errno>
    9f9e:	c606                	sw	ra,12(sp)
    9fa0:	268020ef          	jal	ra,c208 <_read>
    9fa4:	57fd                	li	a5,-1
    9fa6:	00f51763          	bne	a0,a5,9fb4 <_read_r+0x26>
    9faa:	66818793          	addi	a5,gp,1640 # 20001f50 <errno>
    9fae:	439c                	lw	a5,0(a5)
    9fb0:	c391                	beqz	a5,9fb4 <_read_r+0x26>
    9fb2:	c01c                	sw	a5,0(s0)
    9fb4:	40b2                	lw	ra,12(sp)
    9fb6:	4422                	lw	s0,8(sp)
    9fb8:	0141                	addi	sp,sp,16
    9fba:	8082                	ret

00009fbc <__adddf3>:
    9fbc:	00100837          	lui	a6,0x100
    9fc0:	1101                	addi	sp,sp,-32
    9fc2:	187d                	addi	a6,a6,-1
    9fc4:	00b87733          	and	a4,a6,a1
    9fc8:	ca26                	sw	s1,20(sp)
    9fca:	00d87833          	and	a6,a6,a3
    9fce:	0145d493          	srli	s1,a1,0x14
    9fd2:	0146d313          	srli	t1,a3,0x14
    9fd6:	00371e13          	slli	t3,a4,0x3
    9fda:	c64e                	sw	s3,12(sp)
    9fdc:	01d55713          	srli	a4,a0,0x1d
    9fe0:	080e                	slli	a6,a6,0x3
    9fe2:	01d65793          	srli	a5,a2,0x1d
    9fe6:	7ff4f493          	andi	s1,s1,2047
    9fea:	7ff37313          	andi	t1,t1,2047
    9fee:	ce06                	sw	ra,28(sp)
    9ff0:	cc22                	sw	s0,24(sp)
    9ff2:	c84a                	sw	s2,16(sp)
    9ff4:	01f5d993          	srli	s3,a1,0x1f
    9ff8:	01f6de93          	srli	t4,a3,0x1f
    9ffc:	01c76733          	or	a4,a4,t3
    a000:	00351f13          	slli	t5,a0,0x3
    a004:	0107e833          	or	a6,a5,a6
    a008:	00361f93          	slli	t6,a2,0x3
    a00c:	40648e33          	sub	t3,s1,t1
    a010:	19d98063          	beq	s3,t4,a190 <__adddf3+0x1d4>
    a014:	13c05663          	blez	t3,a140 <__adddf3+0x184>
    a018:	1c030463          	beqz	t1,a1e0 <__adddf3+0x224>
    a01c:	008006b7          	lui	a3,0x800
    a020:	7ff00793          	li	a5,2047
    a024:	00d86833          	or	a6,a6,a3
    a028:	36f48f63          	beq	s1,a5,a3a6 <__adddf3+0x3ea>
    a02c:	03800793          	li	a5,56
    a030:	35c7c063          	blt	a5,t3,a370 <__adddf3+0x3b4>
    a034:	47fd                	li	a5,31
    a036:	47c7cd63          	blt	a5,t3,a4b0 <__adddf3+0x4f4>
    a03a:	02000513          	li	a0,32
    a03e:	41c50533          	sub	a0,a0,t3
    a042:	01cfd7b3          	srl	a5,t6,t3
    a046:	00a816b3          	sll	a3,a6,a0
    a04a:	00af9933          	sll	s2,t6,a0
    a04e:	8edd                	or	a3,a3,a5
    a050:	01203933          	snez	s2,s2
    a054:	01c857b3          	srl	a5,a6,t3
    a058:	0126e933          	or	s2,a3,s2
    a05c:	8f1d                	sub	a4,a4,a5
    a05e:	412f0933          	sub	s2,t5,s2
    a062:	012f37b3          	sltu	a5,t5,s2
    a066:	40f70633          	sub	a2,a4,a5
    a06a:	00861793          	slli	a5,a2,0x8
    a06e:	2407d463          	bgez	a5,a2b6 <__adddf3+0x2fa>
    a072:	00800737          	lui	a4,0x800
    a076:	177d                	addi	a4,a4,-1
    a078:	00e67433          	and	s0,a2,a4
    a07c:	2c040c63          	beqz	s0,a354 <__adddf3+0x398>
    a080:	8522                	mv	a0,s0
    a082:	0e0020ef          	jal	ra,c162 <__clzsi2>
    a086:	ff850713          	addi	a4,a0,-8
    a08a:	02000793          	li	a5,32
    a08e:	8f99                	sub	a5,a5,a4
    a090:	00f957b3          	srl	a5,s2,a5
    a094:	00e41633          	sll	a2,s0,a4
    a098:	8fd1                	or	a5,a5,a2
    a09a:	00e91933          	sll	s2,s2,a4
    a09e:	2a974163          	blt	a4,s1,a340 <__adddf3+0x384>
    a0a2:	40970533          	sub	a0,a4,s1
    a0a6:	00150613          	addi	a2,a0,1
    a0aa:	477d                	li	a4,31
    a0ac:	38c74d63          	blt	a4,a2,a446 <__adddf3+0x48a>
    a0b0:	02000713          	li	a4,32
    a0b4:	8f11                	sub	a4,a4,a2
    a0b6:	00c956b3          	srl	a3,s2,a2
    a0ba:	00e91933          	sll	s2,s2,a4
    a0be:	00e79733          	sll	a4,a5,a4
    a0c2:	8f55                	or	a4,a4,a3
    a0c4:	01203933          	snez	s2,s2
    a0c8:	01276933          	or	s2,a4,s2
    a0cc:	00c7d633          	srl	a2,a5,a2
    a0d0:	4481                	li	s1,0
    a0d2:	00797793          	andi	a5,s2,7
    a0d6:	cf81                	beqz	a5,a0ee <__adddf3+0x132>
    a0d8:	00f97713          	andi	a4,s2,15
    a0dc:	4791                	li	a5,4
    a0de:	00f70863          	beq	a4,a5,a0ee <__adddf3+0x132>
    a0e2:	00490713          	addi	a4,s2,4
    a0e6:	01273933          	sltu	s2,a4,s2
    a0ea:	964a                	add	a2,a2,s2
    a0ec:	893a                	mv	s2,a4
    a0ee:	00861793          	slli	a5,a2,0x8
    a0f2:	1c07d663          	bgez	a5,a2be <__adddf3+0x302>
    a0f6:	00148513          	addi	a0,s1,1
    a0fa:	7ff00793          	li	a5,2047
    a0fe:	85ce                	mv	a1,s3
    a100:	20f50463          	beq	a0,a5,a308 <__adddf3+0x34c>
    a104:	ff8007b7          	lui	a5,0xff800
    a108:	17fd                	addi	a5,a5,-1
    a10a:	8ff1                	and	a5,a5,a2
    a10c:	01d79893          	slli	a7,a5,0x1d
    a110:	00395913          	srli	s2,s2,0x3
    a114:	07a6                	slli	a5,a5,0x9
    a116:	0128e8b3          	or	a7,a7,s2
    a11a:	83b1                	srli	a5,a5,0xc
    a11c:	7ff57513          	andi	a0,a0,2047
    a120:	00c79693          	slli	a3,a5,0xc
    a124:	0552                	slli	a0,a0,0x14
    a126:	40f2                	lw	ra,28(sp)
    a128:	4462                	lw	s0,24(sp)
    a12a:	82b1                	srli	a3,a3,0xc
    a12c:	05fe                	slli	a1,a1,0x1f
    a12e:	8ec9                	or	a3,a3,a0
    a130:	8ecd                	or	a3,a3,a1
    a132:	44d2                	lw	s1,20(sp)
    a134:	4942                	lw	s2,16(sp)
    a136:	49b2                	lw	s3,12(sp)
    a138:	8546                	mv	a0,a7
    a13a:	85b6                	mv	a1,a3
    a13c:	6105                	addi	sp,sp,32
    a13e:	8082                	ret
    a140:	0a0e1e63          	bnez	t3,a1fc <__adddf3+0x240>
    a144:	00148313          	addi	t1,s1,1
    a148:	7fe37313          	andi	t1,t1,2046
    a14c:	22031763          	bnez	t1,a37a <__adddf3+0x3be>
    a150:	01e767b3          	or	a5,a4,t5
    a154:	01f868b3          	or	a7,a6,t6
    a158:	1a049d63          	bnez	s1,a312 <__adddf3+0x356>
    a15c:	40078763          	beqz	a5,a56a <__adddf3+0x5ae>
    a160:	44088663          	beqz	a7,a5ac <__adddf3+0x5f0>
    a164:	41ff0933          	sub	s2,t5,t6
    a168:	410707b3          	sub	a5,a4,a6
    a16c:	012f3633          	sltu	a2,t5,s2
    a170:	40c78633          	sub	a2,a5,a2
    a174:	00861793          	slli	a5,a2,0x8
    a178:	4c07d663          	bgez	a5,a644 <__adddf3+0x688>
    a17c:	41ef8933          	sub	s2,t6,t5
    a180:	40e807b3          	sub	a5,a6,a4
    a184:	012fb633          	sltu	a2,t6,s2
    a188:	40c78633          	sub	a2,a5,a2
    a18c:	89f6                	mv	s3,t4
    a18e:	b791                	j	a0d2 <__adddf3+0x116>
    a190:	0fc05063          	blez	t3,a270 <__adddf3+0x2b4>
    a194:	0c030063          	beqz	t1,a254 <__adddf3+0x298>
    a198:	008006b7          	lui	a3,0x800
    a19c:	7ff00793          	li	a5,2047
    a1a0:	00d86833          	or	a6,a6,a3
    a1a4:	3af48a63          	beq	s1,a5,a558 <__adddf3+0x59c>
    a1a8:	03800793          	li	a5,56
    a1ac:	13c7cb63          	blt	a5,t3,a2e2 <__adddf3+0x326>
    a1b0:	47fd                	li	a5,31
    a1b2:	35c7df63          	bge	a5,t3,a510 <__adddf3+0x554>
    a1b6:	fe0e0913          	addi	s2,t3,-32
    a1ba:	02000793          	li	a5,32
    a1be:	012856b3          	srl	a3,a6,s2
    a1c2:	00fe0a63          	beq	t3,a5,a1d6 <__adddf3+0x21a>
    a1c6:	04000913          	li	s2,64
    a1ca:	41c90933          	sub	s2,s2,t3
    a1ce:	01281933          	sll	s2,a6,s2
    a1d2:	012fefb3          	or	t6,t6,s2
    a1d6:	01f03933          	snez	s2,t6
    a1da:	00d96933          	or	s2,s2,a3
    a1de:	a231                	j	a2ea <__adddf3+0x32e>
    a1e0:	01f867b3          	or	a5,a6,t6
    a1e4:	1c078a63          	beqz	a5,a3b8 <__adddf3+0x3fc>
    a1e8:	fffe0793          	addi	a5,t3,-1
    a1ec:	38078c63          	beqz	a5,a584 <__adddf3+0x5c8>
    a1f0:	7ff00693          	li	a3,2047
    a1f4:	1ade0963          	beq	t3,a3,a3a6 <__adddf3+0x3ea>
    a1f8:	8e3e                	mv	t3,a5
    a1fa:	bd0d                	j	a02c <__adddf3+0x70>
    a1fc:	409305b3          	sub	a1,t1,s1
    a200:	22049163          	bnez	s1,a422 <__adddf3+0x466>
    a204:	01e767b3          	or	a5,a4,t5
    a208:	32078763          	beqz	a5,a536 <__adddf3+0x57a>
    a20c:	fff58793          	addi	a5,a1,-1
    a210:	44078163          	beqz	a5,a652 <__adddf3+0x696>
    a214:	7ff00693          	li	a3,2047
    a218:	20d58c63          	beq	a1,a3,a430 <__adddf3+0x474>
    a21c:	85be                	mv	a1,a5
    a21e:	03800793          	li	a5,56
    a222:	2ab7cc63          	blt	a5,a1,a4da <__adddf3+0x51e>
    a226:	47fd                	li	a5,31
    a228:	3cb7cf63          	blt	a5,a1,a606 <__adddf3+0x64a>
    a22c:	02000793          	li	a5,32
    a230:	8f8d                	sub	a5,a5,a1
    a232:	00f71933          	sll	s2,a4,a5
    a236:	00bf56b3          	srl	a3,t5,a1
    a23a:	00ff17b3          	sll	a5,t5,a5
    a23e:	00d96933          	or	s2,s2,a3
    a242:	00f037b3          	snez	a5,a5
    a246:	00b75733          	srl	a4,a4,a1
    a24a:	00f96933          	or	s2,s2,a5
    a24e:	40e80833          	sub	a6,a6,a4
    a252:	ac41                	j	a4e2 <__adddf3+0x526>
    a254:	01f867b3          	or	a5,a6,t6
    a258:	34078063          	beqz	a5,a598 <__adddf3+0x5dc>
    a25c:	fffe0793          	addi	a5,t3,-1
    a260:	20078a63          	beqz	a5,a474 <__adddf3+0x4b8>
    a264:	7ff00693          	li	a3,2047
    a268:	2ede0863          	beq	t3,a3,a558 <__adddf3+0x59c>
    a26c:	8e3e                	mv	t3,a5
    a26e:	bf2d                	j	a1a8 <__adddf3+0x1ec>
    a270:	140e1e63          	bnez	t3,a3cc <__adddf3+0x410>
    a274:	00148693          	addi	a3,s1,1
    a278:	7fe6f793          	andi	a5,a3,2046
    a27c:	34079163          	bnez	a5,a5be <__adddf3+0x602>
    a280:	01e767b3          	or	a5,a4,t5
    a284:	2c049563          	bnez	s1,a54e <__adddf3+0x592>
    a288:	3e078063          	beqz	a5,a668 <__adddf3+0x6ac>
    a28c:	01f867b3          	or	a5,a6,t6
    a290:	30078e63          	beqz	a5,a5ac <__adddf3+0x5f0>
    a294:	01ff0933          	add	s2,t5,t6
    a298:	010707b3          	add	a5,a4,a6
    a29c:	01e93f33          	sltu	t5,s2,t5
    a2a0:	01e78633          	add	a2,a5,t5
    a2a4:	00861793          	slli	a5,a2,0x8
    a2a8:	0007d763          	bgez	a5,a2b6 <__adddf3+0x2fa>
    a2ac:	ff8007b7          	lui	a5,0xff800
    a2b0:	17fd                	addi	a5,a5,-1
    a2b2:	8e7d                	and	a2,a2,a5
    a2b4:	4485                	li	s1,1
    a2b6:	00797793          	andi	a5,s2,7
    a2ba:	e0079fe3          	bnez	a5,a0d8 <__adddf3+0x11c>
    a2be:	01d61793          	slli	a5,a2,0x1d
    a2c2:	00395893          	srli	a7,s2,0x3
    a2c6:	00f8e8b3          	or	a7,a7,a5
    a2ca:	00365793          	srli	a5,a2,0x3
    a2ce:	7ff00713          	li	a4,2047
    a2d2:	04e48d63          	beq	s1,a4,a32c <__adddf3+0x370>
    a2d6:	07b2                	slli	a5,a5,0xc
    a2d8:	83b1                	srli	a5,a5,0xc
    a2da:	7ff4f513          	andi	a0,s1,2047
    a2de:	85ce                	mv	a1,s3
    a2e0:	b581                	j	a120 <__adddf3+0x164>
    a2e2:	01f86933          	or	s2,a6,t6
    a2e6:	01203933          	snez	s2,s2
    a2ea:	997a                	add	s2,s2,t5
    a2ec:	01e937b3          	sltu	a5,s2,t5
    a2f0:	00e78633          	add	a2,a5,a4
    a2f4:	00861793          	slli	a5,a2,0x8
    a2f8:	fa07dfe3          	bgez	a5,a2b6 <__adddf3+0x2fa>
    a2fc:	0485                	addi	s1,s1,1
    a2fe:	7ff00793          	li	a5,2047
    a302:	18f49663          	bne	s1,a5,a48e <__adddf3+0x4d2>
    a306:	85ce                	mv	a1,s3
    a308:	7ff00513          	li	a0,2047
    a30c:	4781                	li	a5,0
    a30e:	4881                	li	a7,0
    a310:	bd01                	j	a120 <__adddf3+0x164>
    a312:	ebc1                	bnez	a5,a3a2 <__adddf3+0x3e6>
    a314:	3a088463          	beqz	a7,a6bc <__adddf3+0x700>
    a318:	00361693          	slli	a3,a2,0x3
    a31c:	01d81793          	slli	a5,a6,0x1d
    a320:	828d                	srli	a3,a3,0x3
    a322:	00d7e8b3          	or	a7,a5,a3
    a326:	89f6                	mv	s3,t4
    a328:	00385793          	srli	a5,a6,0x3
    a32c:	00f8e7b3          	or	a5,a7,a5
    a330:	dbf9                	beqz	a5,a306 <__adddf3+0x34a>
    a332:	4581                	li	a1,0
    a334:	7ff00513          	li	a0,2047
    a338:	000807b7          	lui	a5,0x80
    a33c:	4881                	li	a7,0
    a33e:	b3cd                	j	a120 <__adddf3+0x164>
    a340:	ff800637          	lui	a2,0xff800
    a344:	167d                	addi	a2,a2,-1
    a346:	8e7d                	and	a2,a2,a5
    a348:	00797793          	andi	a5,s2,7
    a34c:	8c99                	sub	s1,s1,a4
    a34e:	d80795e3          	bnez	a5,a0d8 <__adddf3+0x11c>
    a352:	b7b5                	j	a2be <__adddf3+0x302>
    a354:	854a                	mv	a0,s2
    a356:	60d010ef          	jal	ra,c162 <__clzsi2>
    a35a:	01850713          	addi	a4,a0,24
    a35e:	47fd                	li	a5,31
    a360:	d2e7d5e3          	bge	a5,a4,a08a <__adddf3+0xce>
    a364:	ff850613          	addi	a2,a0,-8
    a368:	00c917b3          	sll	a5,s2,a2
    a36c:	4901                	li	s2,0
    a36e:	bb05                	j	a09e <__adddf3+0xe2>
    a370:	01f86933          	or	s2,a6,t6
    a374:	01203933          	snez	s2,s2
    a378:	b1dd                	j	a05e <__adddf3+0xa2>
    a37a:	41ff0933          	sub	s2,t5,t6
    a37e:	41070633          	sub	a2,a4,a6
    a382:	012f3433          	sltu	s0,t5,s2
    a386:	40860433          	sub	s0,a2,s0
    a38a:	00841793          	slli	a5,s0,0x8
    a38e:	2407cd63          	bltz	a5,a5e8 <__adddf3+0x62c>
    a392:	008968b3          	or	a7,s2,s0
    a396:	ce0893e3          	bnez	a7,a07c <__adddf3+0xc0>
    a39a:	4781                	li	a5,0
    a39c:	4981                	li	s3,0
    a39e:	4481                	li	s1,0
    a3a0:	bf1d                	j	a2d6 <__adddf3+0x31a>
    a3a2:	f80898e3          	bnez	a7,a332 <__adddf3+0x376>
    a3a6:	050e                	slli	a0,a0,0x3
    a3a8:	01d71793          	slli	a5,a4,0x1d
    a3ac:	810d                	srli	a0,a0,0x3
    a3ae:	00a7e8b3          	or	a7,a5,a0
    a3b2:	00375793          	srli	a5,a4,0x3
    a3b6:	bf9d                	j	a32c <__adddf3+0x370>
    a3b8:	050e                	slli	a0,a0,0x3
    a3ba:	01d71793          	slli	a5,a4,0x1d
    a3be:	810d                	srli	a0,a0,0x3
    a3c0:	00a7e8b3          	or	a7,a5,a0
    a3c4:	84f2                	mv	s1,t3
    a3c6:	00375793          	srli	a5,a4,0x3
    a3ca:	b711                	j	a2ce <__adddf3+0x312>
    a3cc:	40930533          	sub	a0,t1,s1
    a3d0:	12048263          	beqz	s1,a4f4 <__adddf3+0x538>
    a3d4:	008006b7          	lui	a3,0x800
    a3d8:	7ff00793          	li	a5,2047
    a3dc:	8f55                	or	a4,a4,a3
    a3de:	2ef30d63          	beq	t1,a5,a6d8 <__adddf3+0x71c>
    a3e2:	03800793          	li	a5,56
    a3e6:	20a7cb63          	blt	a5,a0,a5fc <__adddf3+0x640>
    a3ea:	47fd                	li	a5,31
    a3ec:	2aa7c363          	blt	a5,a0,a692 <__adddf3+0x6d6>
    a3f0:	02000793          	li	a5,32
    a3f4:	8f89                	sub	a5,a5,a0
    a3f6:	00f71933          	sll	s2,a4,a5
    a3fa:	00af56b3          	srl	a3,t5,a0
    a3fe:	00ff17b3          	sll	a5,t5,a5
    a402:	00d96933          	or	s2,s2,a3
    a406:	00f037b3          	snez	a5,a5
    a40a:	00a75733          	srl	a4,a4,a0
    a40e:	00f96933          	or	s2,s2,a5
    a412:	983a                	add	a6,a6,a4
    a414:	997e                	add	s2,s2,t6
    a416:	01f937b3          	sltu	a5,s2,t6
    a41a:	01078633          	add	a2,a5,a6
    a41e:	849a                	mv	s1,t1
    a420:	bdd1                	j	a2f4 <__adddf3+0x338>
    a422:	008006b7          	lui	a3,0x800
    a426:	7ff00793          	li	a5,2047
    a42a:	8f55                	or	a4,a4,a3
    a42c:	def319e3          	bne	t1,a5,a21e <__adddf3+0x262>
    a430:	00361793          	slli	a5,a2,0x3
    a434:	838d                	srli	a5,a5,0x3
    a436:	01d81893          	slli	a7,a6,0x1d
    a43a:	0117e8b3          	or	a7,a5,a7
    a43e:	89f6                	mv	s3,t4
    a440:	00385793          	srli	a5,a6,0x3
    a444:	b5e5                	j	a32c <__adddf3+0x370>
    a446:	fe150713          	addi	a4,a0,-31
    a44a:	02000693          	li	a3,32
    a44e:	00e7d733          	srl	a4,a5,a4
    a452:	00d60a63          	beq	a2,a3,a466 <__adddf3+0x4aa>
    a456:	04000693          	li	a3,64
    a45a:	40c68633          	sub	a2,a3,a2
    a45e:	00c79633          	sll	a2,a5,a2
    a462:	00c96933          	or	s2,s2,a2
    a466:	01203933          	snez	s2,s2
    a46a:	00e96933          	or	s2,s2,a4
    a46e:	4601                	li	a2,0
    a470:	4481                	li	s1,0
    a472:	b591                	j	a2b6 <__adddf3+0x2fa>
    a474:	01ff0933          	add	s2,t5,t6
    a478:	010707b3          	add	a5,a4,a6
    a47c:	01e93633          	sltu	a2,s2,t5
    a480:	963e                	add	a2,a2,a5
    a482:	00861793          	slli	a5,a2,0x8
    a486:	4485                	li	s1,1
    a488:	e207d7e3          	bgez	a5,a2b6 <__adddf3+0x2fa>
    a48c:	4489                	li	s1,2
    a48e:	ff8007b7          	lui	a5,0xff800
    a492:	17fd                	addi	a5,a5,-1
    a494:	8ff1                	and	a5,a5,a2
    a496:	00195713          	srli	a4,s2,0x1
    a49a:	00197913          	andi	s2,s2,1
    a49e:	01276933          	or	s2,a4,s2
    a4a2:	01f79893          	slli	a7,a5,0x1f
    a4a6:	0128e933          	or	s2,a7,s2
    a4aa:	0017d613          	srli	a2,a5,0x1
    a4ae:	b115                	j	a0d2 <__adddf3+0x116>
    a4b0:	fe0e0913          	addi	s2,t3,-32
    a4b4:	02000793          	li	a5,32
    a4b8:	012856b3          	srl	a3,a6,s2
    a4bc:	00fe0a63          	beq	t3,a5,a4d0 <__adddf3+0x514>
    a4c0:	04000913          	li	s2,64
    a4c4:	41c90933          	sub	s2,s2,t3
    a4c8:	01281933          	sll	s2,a6,s2
    a4cc:	012fefb3          	or	t6,t6,s2
    a4d0:	01f03933          	snez	s2,t6
    a4d4:	00d96933          	or	s2,s2,a3
    a4d8:	b659                	j	a05e <__adddf3+0xa2>
    a4da:	01e76933          	or	s2,a4,t5
    a4de:	01203933          	snez	s2,s2
    a4e2:	412f8933          	sub	s2,t6,s2
    a4e6:	012fb7b3          	sltu	a5,t6,s2
    a4ea:	40f80633          	sub	a2,a6,a5
    a4ee:	849a                	mv	s1,t1
    a4f0:	89f6                	mv	s3,t4
    a4f2:	bea5                	j	a06a <__adddf3+0xae>
    a4f4:	01e767b3          	or	a5,a4,t5
    a4f8:	18078263          	beqz	a5,a67c <__adddf3+0x6c0>
    a4fc:	fff50793          	addi	a5,a0,-1
    a500:	1c078463          	beqz	a5,a6c8 <__adddf3+0x70c>
    a504:	7ff00693          	li	a3,2047
    a508:	12d50463          	beq	a0,a3,a630 <__adddf3+0x674>
    a50c:	853e                	mv	a0,a5
    a50e:	bdd1                	j	a3e2 <__adddf3+0x426>
    a510:	02000793          	li	a5,32
    a514:	41c787b3          	sub	a5,a5,t3
    a518:	00f816b3          	sll	a3,a6,a5
    a51c:	00ff9933          	sll	s2,t6,a5
    a520:	01cfd633          	srl	a2,t6,t3
    a524:	8ed1                	or	a3,a3,a2
    a526:	01203933          	snez	s2,s2
    a52a:	01c857b3          	srl	a5,a6,t3
    a52e:	0126e933          	or	s2,a3,s2
    a532:	973e                	add	a4,a4,a5
    a534:	bb5d                	j	a2ea <__adddf3+0x32e>
    a536:	00361793          	slli	a5,a2,0x3
    a53a:	838d                	srli	a5,a5,0x3
    a53c:	01d81893          	slli	a7,a6,0x1d
    a540:	0117e8b3          	or	a7,a5,a7
    a544:	84ae                	mv	s1,a1
    a546:	00385793          	srli	a5,a6,0x3
    a54a:	89f6                	mv	s3,t4
    a54c:	b349                	j	a2ce <__adddf3+0x312>
    a54e:	c3ed                	beqz	a5,a630 <__adddf3+0x674>
    a550:	01f86933          	or	s2,a6,t6
    a554:	dc091fe3          	bnez	s2,a332 <__adddf3+0x376>
    a558:	050e                	slli	a0,a0,0x3
    a55a:	01d71793          	slli	a5,a4,0x1d
    a55e:	810d                	srli	a0,a0,0x3
    a560:	00f568b3          	or	a7,a0,a5
    a564:	00375793          	srli	a5,a4,0x3
    a568:	b3d1                	j	a32c <__adddf3+0x370>
    a56a:	0e088163          	beqz	a7,a64c <__adddf3+0x690>
    a56e:	00361693          	slli	a3,a2,0x3
    a572:	01d81793          	slli	a5,a6,0x1d
    a576:	828d                	srli	a3,a3,0x3
    a578:	00d7e8b3          	or	a7,a5,a3
    a57c:	89f6                	mv	s3,t4
    a57e:	00385793          	srli	a5,a6,0x3
    a582:	bb91                	j	a2d6 <__adddf3+0x31a>
    a584:	41ff0933          	sub	s2,t5,t6
    a588:	410707b3          	sub	a5,a4,a6
    a58c:	012f3f33          	sltu	t5,t5,s2
    a590:	41e78633          	sub	a2,a5,t5
    a594:	4485                	li	s1,1
    a596:	bcd1                	j	a06a <__adddf3+0xae>
    a598:	050e                	slli	a0,a0,0x3
    a59a:	01d71793          	slli	a5,a4,0x1d
    a59e:	810d                	srli	a0,a0,0x3
    a5a0:	00f568b3          	or	a7,a0,a5
    a5a4:	84f2                	mv	s1,t3
    a5a6:	00375793          	srli	a5,a4,0x3
    a5aa:	b315                	j	a2ce <__adddf3+0x312>
    a5ac:	050e                	slli	a0,a0,0x3
    a5ae:	01d71793          	slli	a5,a4,0x1d
    a5b2:	810d                	srli	a0,a0,0x3
    a5b4:	00a7e8b3          	or	a7,a5,a0
    a5b8:	00375793          	srli	a5,a4,0x3
    a5bc:	bb29                	j	a2d6 <__adddf3+0x31a>
    a5be:	7ff00793          	li	a5,2047
    a5c2:	d4f682e3          	beq	a3,a5,a306 <__adddf3+0x34a>
    a5c6:	01ff0933          	add	s2,t5,t6
    a5ca:	01e93633          	sltu	a2,s2,t5
    a5ce:	010707b3          	add	a5,a4,a6
    a5d2:	97b2                	add	a5,a5,a2
    a5d4:	01f79893          	slli	a7,a5,0x1f
    a5d8:	00195913          	srli	s2,s2,0x1
    a5dc:	0128e933          	or	s2,a7,s2
    a5e0:	0017d613          	srli	a2,a5,0x1
    a5e4:	84b6                	mv	s1,a3
    a5e6:	b9c1                	j	a2b6 <__adddf3+0x2fa>
    a5e8:	41ef8933          	sub	s2,t6,t5
    a5ec:	40e80733          	sub	a4,a6,a4
    a5f0:	012fb633          	sltu	a2,t6,s2
    a5f4:	40c70433          	sub	s0,a4,a2
    a5f8:	89f6                	mv	s3,t4
    a5fa:	b449                	j	a07c <__adddf3+0xc0>
    a5fc:	01e76933          	or	s2,a4,t5
    a600:	01203933          	snez	s2,s2
    a604:	bd01                	j	a414 <__adddf3+0x458>
    a606:	fe058793          	addi	a5,a1,-32
    a60a:	02000693          	li	a3,32
    a60e:	00f757b3          	srl	a5,a4,a5
    a612:	00d58a63          	beq	a1,a3,a626 <__adddf3+0x66a>
    a616:	04000693          	li	a3,64
    a61a:	40b685b3          	sub	a1,a3,a1
    a61e:	00b71733          	sll	a4,a4,a1
    a622:	00ef6f33          	or	t5,t5,a4
    a626:	01e03933          	snez	s2,t5
    a62a:	00f96933          	or	s2,s2,a5
    a62e:	bd55                	j	a4e2 <__adddf3+0x526>
    a630:	00361793          	slli	a5,a2,0x3
    a634:	838d                	srli	a5,a5,0x3
    a636:	01d81893          	slli	a7,a6,0x1d
    a63a:	0117e8b3          	or	a7,a5,a7
    a63e:	00385793          	srli	a5,a6,0x3
    a642:	b1ed                	j	a32c <__adddf3+0x370>
    a644:	00c968b3          	or	a7,s2,a2
    a648:	c60897e3          	bnez	a7,a2b6 <__adddf3+0x2fa>
    a64c:	4781                	li	a5,0
    a64e:	4981                	li	s3,0
    a650:	b159                	j	a2d6 <__adddf3+0x31a>
    a652:	41ef8933          	sub	s2,t6,t5
    a656:	40e807b3          	sub	a5,a6,a4
    a65a:	012fb633          	sltu	a2,t6,s2
    a65e:	40c78633          	sub	a2,a5,a2
    a662:	89f6                	mv	s3,t4
    a664:	4485                	li	s1,1
    a666:	b411                	j	a06a <__adddf3+0xae>
    a668:	00361693          	slli	a3,a2,0x3
    a66c:	01d81793          	slli	a5,a6,0x1d
    a670:	828d                	srli	a3,a3,0x3
    a672:	00d7e8b3          	or	a7,a5,a3
    a676:	00385793          	srli	a5,a6,0x3
    a67a:	b9b1                	j	a2d6 <__adddf3+0x31a>
    a67c:	00361693          	slli	a3,a2,0x3
    a680:	01d81793          	slli	a5,a6,0x1d
    a684:	828d                	srli	a3,a3,0x3
    a686:	00d7e8b3          	or	a7,a5,a3
    a68a:	84aa                	mv	s1,a0
    a68c:	00385793          	srli	a5,a6,0x3
    a690:	b93d                	j	a2ce <__adddf3+0x312>
    a692:	fe050793          	addi	a5,a0,-32
    a696:	02000693          	li	a3,32
    a69a:	00f757b3          	srl	a5,a4,a5
    a69e:	00d50a63          	beq	a0,a3,a6b2 <__adddf3+0x6f6>
    a6a2:	04000693          	li	a3,64
    a6a6:	40a68533          	sub	a0,a3,a0
    a6aa:	00a71733          	sll	a4,a4,a0
    a6ae:	00ef6f33          	or	t5,t5,a4
    a6b2:	01e03933          	snez	s2,t5
    a6b6:	00f96933          	or	s2,s2,a5
    a6ba:	bba9                	j	a414 <__adddf3+0x458>
    a6bc:	4581                	li	a1,0
    a6be:	7ff00513          	li	a0,2047
    a6c2:	000807b7          	lui	a5,0x80
    a6c6:	bca9                	j	a120 <__adddf3+0x164>
    a6c8:	01ff0933          	add	s2,t5,t6
    a6cc:	010707b3          	add	a5,a4,a6
    a6d0:	01f93633          	sltu	a2,s2,t6
    a6d4:	963e                	add	a2,a2,a5
    a6d6:	b375                	j	a482 <__adddf3+0x4c6>
    a6d8:	00361693          	slli	a3,a2,0x3
    a6dc:	01d81793          	slli	a5,a6,0x1d
    a6e0:	828d                	srli	a3,a3,0x3
    a6e2:	00d7e8b3          	or	a7,a5,a3
    a6e6:	00385793          	srli	a5,a6,0x3
    a6ea:	b189                	j	a32c <__adddf3+0x370>

0000a6ec <__divdf3>:
    a6ec:	7139                	addi	sp,sp,-64
    a6ee:	0145d793          	srli	a5,a1,0x14
    a6f2:	dc22                	sw	s0,56(sp)
    a6f4:	d84a                	sw	s2,48(sp)
    a6f6:	d256                	sw	s5,36(sp)
    a6f8:	892a                	mv	s2,a0
    a6fa:	00c59413          	slli	s0,a1,0xc
    a6fe:	de06                	sw	ra,60(sp)
    a700:	da26                	sw	s1,52(sp)
    a702:	d64e                	sw	s3,44(sp)
    a704:	d452                	sw	s4,40(sp)
    a706:	d05a                	sw	s6,32(sp)
    a708:	ce5e                	sw	s7,28(sp)
    a70a:	7ff7f513          	andi	a0,a5,2047
    a70e:	8031                	srli	s0,s0,0xc
    a710:	01f5da93          	srli	s5,a1,0x1f
    a714:	10050b63          	beqz	a0,a82a <__divdf3+0x13e>
    a718:	7ff00793          	li	a5,2047
    a71c:	14f50b63          	beq	a0,a5,a872 <__divdf3+0x186>
    a720:	01d95a13          	srli	s4,s2,0x1d
    a724:	040e                	slli	s0,s0,0x3
    a726:	008a6433          	or	s0,s4,s0
    a72a:	00800a37          	lui	s4,0x800
    a72e:	01446a33          	or	s4,s0,s4
    a732:	00391b13          	slli	s6,s2,0x3
    a736:	c0150493          	addi	s1,a0,-1023
    a73a:	4401                	li	s0,0
    a73c:	4b81                	li	s7,0
    a73e:	0146d813          	srli	a6,a3,0x14
    a742:	00c69913          	slli	s2,a3,0xc
    a746:	7ff87813          	andi	a6,a6,2047
    a74a:	88b2                	mv	a7,a2
    a74c:	00c95913          	srli	s2,s2,0xc
    a750:	01f6d993          	srli	s3,a3,0x1f
    a754:	08080e63          	beqz	a6,a7f0 <__divdf3+0x104>
    a758:	7ff00793          	li	a5,2047
    a75c:	04f80063          	beq	a6,a5,a79c <__divdf3+0xb0>
    a760:	01d65713          	srli	a4,a2,0x1d
    a764:	090e                	slli	s2,s2,0x3
    a766:	01276933          	or	s2,a4,s2
    a76a:	c0180813          	addi	a6,a6,-1023 # ffc01 <_data_lma+0xf24f1>
    a76e:	008007b7          	lui	a5,0x800
    a772:	00f96733          	or	a4,s2,a5
    a776:	00361893          	slli	a7,a2,0x3
    a77a:	410484b3          	sub	s1,s1,a6
    a77e:	4581                	li	a1,0
    a780:	47bd                	li	a5,15
    a782:	013ac833          	xor	a6,s5,s3
    a786:	1a87e463          	bltu	a5,s0,a92e <__divdf3+0x242>
    a78a:	00003797          	auipc	a5,0x3
    a78e:	eee78793          	addi	a5,a5,-274 # d678 <p05.3319+0x20>
    a792:	040a                	slli	s0,s0,0x2
    a794:	943e                	add	s0,s0,a5
    a796:	4010                	lw	a2,0(s0)
    a798:	963e                	add	a2,a2,a5
    a79a:	8602                	jr	a2
    a79c:	00c96733          	or	a4,s2,a2
    a7a0:	80148493          	addi	s1,s1,-2047
    a7a4:	10071263          	bnez	a4,a8a8 <__divdf3+0x1bc>
    a7a8:	00246413          	ori	s0,s0,2
    a7ac:	4881                	li	a7,0
    a7ae:	4589                	li	a1,2
    a7b0:	bfc1                	j	a780 <__divdf3+0x94>
    a7b2:	7ff00613          	li	a2,2047
    a7b6:	4781                	li	a5,0
    a7b8:	4701                	li	a4,0
    a7ba:	07b2                	slli	a5,a5,0xc
    a7bc:	50f2                	lw	ra,60(sp)
    a7be:	5462                	lw	s0,56(sp)
    a7c0:	0652                	slli	a2,a2,0x14
    a7c2:	83b1                	srli	a5,a5,0xc
    a7c4:	087e                	slli	a6,a6,0x1f
    a7c6:	8fd1                	or	a5,a5,a2
    a7c8:	0107e7b3          	or	a5,a5,a6
    a7cc:	54d2                	lw	s1,52(sp)
    a7ce:	5942                	lw	s2,48(sp)
    a7d0:	59b2                	lw	s3,44(sp)
    a7d2:	5a22                	lw	s4,40(sp)
    a7d4:	5a92                	lw	s5,36(sp)
    a7d6:	5b02                	lw	s6,32(sp)
    a7d8:	4bf2                	lw	s7,28(sp)
    a7da:	853a                	mv	a0,a4
    a7dc:	85be                	mv	a1,a5
    a7de:	6121                	addi	sp,sp,64
    a7e0:	8082                	ret
    a7e2:	4801                	li	a6,0
    a7e4:	7ff00613          	li	a2,2047
    a7e8:	000807b7          	lui	a5,0x80
    a7ec:	4701                	li	a4,0
    a7ee:	b7f1                	j	a7ba <__divdf3+0xce>
    a7f0:	00c96733          	or	a4,s2,a2
    a7f4:	c74d                	beqz	a4,a89e <__divdf3+0x1b2>
    a7f6:	30090863          	beqz	s2,ab06 <__divdf3+0x41a>
    a7fa:	854a                	mv	a0,s2
    a7fc:	c432                	sw	a2,8(sp)
    a7fe:	165010ef          	jal	ra,c162 <__clzsi2>
    a802:	4622                	lw	a2,8(sp)
    a804:	ff550713          	addi	a4,a0,-11
    a808:	47f5                	li	a5,29
    a80a:	ff850693          	addi	a3,a0,-8
    a80e:	8f99                	sub	a5,a5,a4
    a810:	00d91933          	sll	s2,s2,a3
    a814:	00f657b3          	srl	a5,a2,a5
    a818:	0127e733          	or	a4,a5,s2
    a81c:	00d618b3          	sll	a7,a2,a3
    a820:	9526                	add	a0,a0,s1
    a822:	3f350493          	addi	s1,a0,1011
    a826:	4581                	li	a1,0
    a828:	bfa1                	j	a780 <__divdf3+0x94>
    a82a:	01246a33          	or	s4,s0,s2
    a82e:	060a0363          	beqz	s4,a894 <__divdf3+0x1a8>
    a832:	c636                	sw	a3,12(sp)
    a834:	c432                	sw	a2,8(sp)
    a836:	2a040663          	beqz	s0,aae2 <__divdf3+0x3f6>
    a83a:	8522                	mv	a0,s0
    a83c:	127010ef          	jal	ra,c162 <__clzsi2>
    a840:	4622                	lw	a2,8(sp)
    a842:	46b2                	lw	a3,12(sp)
    a844:	84aa                	mv	s1,a0
    a846:	ff550713          	addi	a4,a0,-11
    a84a:	4a75                	li	s4,29
    a84c:	ff848b13          	addi	s6,s1,-8
    a850:	40ea0a33          	sub	s4,s4,a4
    a854:	01641433          	sll	s0,s0,s6
    a858:	01495a33          	srl	s4,s2,s4
    a85c:	008a6a33          	or	s4,s4,s0
    a860:	01691b33          	sll	s6,s2,s6
    a864:	c0d00513          	li	a0,-1011
    a868:	409504b3          	sub	s1,a0,s1
    a86c:	4401                	li	s0,0
    a86e:	4b81                	li	s7,0
    a870:	b5f9                	j	a73e <__divdf3+0x52>
    a872:	01246a33          	or	s4,s0,s2
    a876:	000a1863          	bnez	s4,a886 <__divdf3+0x19a>
    a87a:	4421                	li	s0,8
    a87c:	4b01                	li	s6,0
    a87e:	7ff00493          	li	s1,2047
    a882:	4b89                	li	s7,2
    a884:	bd6d                	j	a73e <__divdf3+0x52>
    a886:	8a22                	mv	s4,s0
    a888:	8b4a                	mv	s6,s2
    a88a:	4431                	li	s0,12
    a88c:	7ff00493          	li	s1,2047
    a890:	4b8d                	li	s7,3
    a892:	b575                	j	a73e <__divdf3+0x52>
    a894:	4411                	li	s0,4
    a896:	4b01                	li	s6,0
    a898:	4481                	li	s1,0
    a89a:	4b85                	li	s7,1
    a89c:	b54d                	j	a73e <__divdf3+0x52>
    a89e:	00146413          	ori	s0,s0,1
    a8a2:	4881                	li	a7,0
    a8a4:	4585                	li	a1,1
    a8a6:	bde9                	j	a780 <__divdf3+0x94>
    a8a8:	00346413          	ori	s0,s0,3
    a8ac:	874a                	mv	a4,s2
    a8ae:	458d                	li	a1,3
    a8b0:	bdc1                	j	a780 <__divdf3+0x94>
    a8b2:	2e050a63          	beqz	a0,aba6 <__divdf3+0x4ba>
    a8b6:	4785                	li	a5,1
    a8b8:	8f89                	sub	a5,a5,a0
    a8ba:	03800693          	li	a3,56
    a8be:	32f6dd63          	bge	a3,a5,abf8 <__divdf3+0x50c>
    a8c2:	4601                	li	a2,0
    a8c4:	4781                	li	a5,0
    a8c6:	4701                	li	a4,0
    a8c8:	bdcd                	j	a7ba <__divdf3+0xce>
    a8ca:	86ce                	mv	a3,s3
    a8cc:	4789                	li	a5,2
    a8ce:	3af58d63          	beq	a1,a5,ac88 <__divdf3+0x59c>
    a8d2:	478d                	li	a5,3
    a8d4:	f0f587e3          	beq	a1,a5,a7e2 <__divdf3+0xf6>
    a8d8:	4785                	li	a5,1
    a8da:	8836                	mv	a6,a3
    a8dc:	fef583e3          	beq	a1,a5,a8c2 <__divdf3+0x1d6>
    a8e0:	3ff48513          	addi	a0,s1,1023
    a8e4:	fca057e3          	blez	a0,a8b2 <__divdf3+0x1c6>
    a8e8:	0078f793          	andi	a5,a7,7
    a8ec:	28079663          	bnez	a5,ab78 <__divdf3+0x48c>
    a8f0:	0038d693          	srli	a3,a7,0x3
    a8f4:	00771793          	slli	a5,a4,0x7
    a8f8:	0007d863          	bgez	a5,a908 <__divdf3+0x21c>
    a8fc:	ff0007b7          	lui	a5,0xff000
    a900:	17fd                	addi	a5,a5,-1
    a902:	8f7d                	and	a4,a4,a5
    a904:	40048513          	addi	a0,s1,1024
    a908:	7fe00793          	li	a5,2046
    a90c:	eaa7c3e3          	blt	a5,a0,a7b2 <__divdf3+0xc6>
    a910:	01d71613          	slli	a2,a4,0x1d
    a914:	00971793          	slli	a5,a4,0x9
    a918:	83b1                	srli	a5,a5,0xc
    a91a:	00d66733          	or	a4,a2,a3
    a91e:	7ff57613          	andi	a2,a0,2047
    a922:	bd61                	j	a7ba <__divdf3+0xce>
    a924:	86d6                	mv	a3,s5
    a926:	8752                	mv	a4,s4
    a928:	88da                	mv	a7,s6
    a92a:	85de                	mv	a1,s7
    a92c:	b745                	j	a8cc <__divdf3+0x1e0>
    a92e:	23476163          	bltu	a4,s4,ab50 <__divdf3+0x464>
    a932:	20ea0d63          	beq	s4,a4,ab4c <__divdf3+0x460>
    a936:	86da                	mv	a3,s6
    a938:	14fd                	addi	s1,s1,-1
    a93a:	8452                	mv	s0,s4
    a93c:	4b01                	li	s6,0
    a93e:	00871793          	slli	a5,a4,0x8
    a942:	0188d313          	srli	t1,a7,0x18
    a946:	00f36333          	or	t1,t1,a5
    a94a:	01035e93          	srli	t4,t1,0x10
    a94e:	03d457b3          	divu	a5,s0,t4
    a952:	01031f13          	slli	t5,t1,0x10
    a956:	010f5f13          	srli	t5,t5,0x10
    a95a:	0106d593          	srli	a1,a3,0x10
    a95e:	00889e13          	slli	t3,a7,0x8
    a962:	03d47433          	remu	s0,s0,t4
    a966:	02ff0733          	mul	a4,t5,a5
    a96a:	0442                	slli	s0,s0,0x10
    a96c:	8dc1                	or	a1,a1,s0
    a96e:	00e5fb63          	bgeu	a1,a4,a984 <__divdf3+0x298>
    a972:	959a                	add	a1,a1,t1
    a974:	fff78613          	addi	a2,a5,-1 # feffffff <_eusrstack+0xdeff7fff>
    a978:	2665ee63          	bltu	a1,t1,abf4 <__divdf3+0x508>
    a97c:	26e5fc63          	bgeu	a1,a4,abf4 <__divdf3+0x508>
    a980:	17f9                	addi	a5,a5,-2
    a982:	959a                	add	a1,a1,t1
    a984:	8d99                	sub	a1,a1,a4
    a986:	03d5d733          	divu	a4,a1,t4
    a98a:	06c2                	slli	a3,a3,0x10
    a98c:	82c1                	srli	a3,a3,0x10
    a98e:	03d5f5b3          	remu	a1,a1,t4
    a992:	02ef0633          	mul	a2,t5,a4
    a996:	05c2                	slli	a1,a1,0x10
    a998:	8dd5                	or	a1,a1,a3
    a99a:	00c5fb63          	bgeu	a1,a2,a9b0 <__divdf3+0x2c4>
    a99e:	959a                	add	a1,a1,t1
    a9a0:	fff70693          	addi	a3,a4,-1 # 7fffff <_data_lma+0x7f28ef>
    a9a4:	2465e663          	bltu	a1,t1,abf0 <__divdf3+0x504>
    a9a8:	24c5f463          	bgeu	a1,a2,abf0 <__divdf3+0x504>
    a9ac:	1779                	addi	a4,a4,-2
    a9ae:	959a                	add	a1,a1,t1
    a9b0:	07c2                	slli	a5,a5,0x10
    a9b2:	6441                	lui	s0,0x10
    a9b4:	8f5d                	or	a4,a4,a5
    a9b6:	fff40793          	addi	a5,s0,-1 # ffff <_data_lma+0x28ef>
    a9ba:	00f77533          	and	a0,a4,a5
    a9be:	01075893          	srli	a7,a4,0x10
    a9c2:	010e5f93          	srli	t6,t3,0x10
    a9c6:	00fe77b3          	and	a5,t3,a5
    a9ca:	02f502b3          	mul	t0,a0,a5
    a9ce:	40c586b3          	sub	a3,a1,a2
    a9d2:	02f883b3          	mul	t2,a7,a5
    a9d6:	0102d593          	srli	a1,t0,0x10
    a9da:	02af8633          	mul	a2,t6,a0
    a9de:	961e                	add	a2,a2,t2
    a9e0:	962e                	add	a2,a2,a1
    a9e2:	03f88533          	mul	a0,a7,t6
    a9e6:	00767363          	bgeu	a2,t2,a9ec <__divdf3+0x300>
    a9ea:	9522                	add	a0,a0,s0
    a9ec:	68c1                	lui	a7,0x10
    a9ee:	18fd                	addi	a7,a7,-1
    a9f0:	01065593          	srli	a1,a2,0x10
    a9f4:	01167633          	and	a2,a2,a7
    a9f8:	0642                	slli	a2,a2,0x10
    a9fa:	0112f8b3          	and	a7,t0,a7
    a9fe:	95aa                	add	a1,a1,a0
    aa00:	9646                	add	a2,a2,a7
    aa02:	12b6e663          	bltu	a3,a1,ab2e <__divdf3+0x442>
    aa06:	12b68263          	beq	a3,a1,ab2a <__divdf3+0x43e>
    aa0a:	40cb0633          	sub	a2,s6,a2
    aa0e:	8e8d                	sub	a3,a3,a1
    aa10:	00cb3b33          	sltu	s6,s6,a2
    aa14:	41668b33          	sub	s6,a3,s6
    aa18:	3ff48513          	addi	a0,s1,1023
    aa1c:	17630c63          	beq	t1,s6,ab94 <__divdf3+0x4a8>
    aa20:	03db58b3          	divu	a7,s6,t4
    aa24:	01065593          	srli	a1,a2,0x10
    aa28:	03db7b33          	remu	s6,s6,t4
    aa2c:	031f06b3          	mul	a3,t5,a7
    aa30:	0b42                	slli	s6,s6,0x10
    aa32:	0165eb33          	or	s6,a1,s6
    aa36:	00db7b63          	bgeu	s6,a3,aa4c <__divdf3+0x360>
    aa3a:	9b1a                	add	s6,s6,t1
    aa3c:	fff88593          	addi	a1,a7,-1 # ffff <_data_lma+0x28ef>
    aa40:	206b6d63          	bltu	s6,t1,ac5a <__divdf3+0x56e>
    aa44:	20db7b63          	bgeu	s6,a3,ac5a <__divdf3+0x56e>
    aa48:	18f9                	addi	a7,a7,-2
    aa4a:	9b1a                	add	s6,s6,t1
    aa4c:	40db0b33          	sub	s6,s6,a3
    aa50:	03db56b3          	divu	a3,s6,t4
    aa54:	0642                	slli	a2,a2,0x10
    aa56:	8241                	srli	a2,a2,0x10
    aa58:	03db7b33          	remu	s6,s6,t4
    aa5c:	02df0f33          	mul	t5,t5,a3
    aa60:	0b42                	slli	s6,s6,0x10
    aa62:	01666633          	or	a2,a2,s6
    aa66:	01e67b63          	bgeu	a2,t5,aa7c <__divdf3+0x390>
    aa6a:	961a                	add	a2,a2,t1
    aa6c:	fff68593          	addi	a1,a3,-1 # 7fffff <_data_lma+0x7f28ef>
    aa70:	1e666763          	bltu	a2,t1,ac5e <__divdf3+0x572>
    aa74:	1fe67563          	bgeu	a2,t5,ac5e <__divdf3+0x572>
    aa78:	16f9                	addi	a3,a3,-2
    aa7a:	961a                	add	a2,a2,t1
    aa7c:	08c2                	slli	a7,a7,0x10
    aa7e:	00d8e8b3          	or	a7,a7,a3
    aa82:	01089593          	slli	a1,a7,0x10
    aa86:	0108d293          	srli	t0,a7,0x10
    aa8a:	81c1                	srli	a1,a1,0x10
    aa8c:	02f58eb3          	mul	t4,a1,a5
    aa90:	41e60633          	sub	a2,a2,t5
    aa94:	02bf85b3          	mul	a1,t6,a1
    aa98:	010ed693          	srli	a3,t4,0x10
    aa9c:	02f287b3          	mul	a5,t0,a5
    aaa0:	95be                	add	a1,a1,a5
    aaa2:	96ae                	add	a3,a3,a1
    aaa4:	025f8fb3          	mul	t6,t6,t0
    aaa8:	00f6f463          	bgeu	a3,a5,aab0 <__divdf3+0x3c4>
    aaac:	67c1                	lui	a5,0x10
    aaae:	9fbe                	add	t6,t6,a5
    aab0:	65c1                	lui	a1,0x10
    aab2:	15fd                	addi	a1,a1,-1
    aab4:	0106d793          	srli	a5,a3,0x10
    aab8:	8eed                	and	a3,a3,a1
    aaba:	06c2                	slli	a3,a3,0x10
    aabc:	00befeb3          	and	t4,t4,a1
    aac0:	9fbe                	add	t6,t6,a5
    aac2:	96f6                	add	a3,a3,t4
    aac4:	09f67f63          	bgeu	a2,t6,ab62 <__divdf3+0x476>
    aac8:	961a                	add	a2,a2,t1
    aaca:	fff88793          	addi	a5,a7,-1
    aace:	1a666963          	bltu	a2,t1,ac80 <__divdf3+0x594>
    aad2:	19f66863          	bltu	a2,t6,ac62 <__divdf3+0x576>
    aad6:	1bf60f63          	beq	a2,t6,ac94 <__divdf3+0x5a8>
    aada:	88be                	mv	a7,a5
    aadc:	0018e893          	ori	a7,a7,1
    aae0:	b511                	j	a8e4 <__divdf3+0x1f8>
    aae2:	854a                	mv	a0,s2
    aae4:	67e010ef          	jal	ra,c162 <__clzsi2>
    aae8:	01550713          	addi	a4,a0,21
    aaec:	45f1                	li	a1,28
    aaee:	02050493          	addi	s1,a0,32
    aaf2:	4622                	lw	a2,8(sp)
    aaf4:	46b2                	lw	a3,12(sp)
    aaf6:	d4e5dae3          	bge	a1,a4,a84a <__divdf3+0x15e>
    aafa:	ff850413          	addi	s0,a0,-8
    aafe:	00891a33          	sll	s4,s2,s0
    ab02:	4b01                	li	s6,0
    ab04:	b385                	j	a864 <__divdf3+0x178>
    ab06:	8532                	mv	a0,a2
    ab08:	c432                	sw	a2,8(sp)
    ab0a:	658010ef          	jal	ra,c162 <__clzsi2>
    ab0e:	01550713          	addi	a4,a0,21
    ab12:	46f1                	li	a3,28
    ab14:	87aa                	mv	a5,a0
    ab16:	4622                	lw	a2,8(sp)
    ab18:	02050513          	addi	a0,a0,32
    ab1c:	cee6d6e3          	bge	a3,a4,a808 <__divdf3+0x11c>
    ab20:	17e1                	addi	a5,a5,-8
    ab22:	00f61733          	sll	a4,a2,a5
    ab26:	4881                	li	a7,0
    ab28:	b9e5                	j	a820 <__divdf3+0x134>
    ab2a:	eecb70e3          	bgeu	s6,a2,aa0a <__divdf3+0x31e>
    ab2e:	9b72                	add	s6,s6,t3
    ab30:	01cb3533          	sltu	a0,s6,t3
    ab34:	951a                	add	a0,a0,t1
    ab36:	96aa                	add	a3,a3,a0
    ab38:	fff70513          	addi	a0,a4,-1
    ab3c:	02d37863          	bgeu	t1,a3,ab6c <__divdf3+0x480>
    ab40:	10b6e663          	bltu	a3,a1,ac4c <__divdf3+0x560>
    ab44:	10d58263          	beq	a1,a3,ac48 <__divdf3+0x55c>
    ab48:	872a                	mv	a4,a0
    ab4a:	b5c1                	j	aa0a <__divdf3+0x31e>
    ab4c:	df1b65e3          	bltu	s6,a7,a936 <__divdf3+0x24a>
    ab50:	001b5593          	srli	a1,s6,0x1
    ab54:	01fa1693          	slli	a3,s4,0x1f
    ab58:	001a5413          	srli	s0,s4,0x1
    ab5c:	8ecd                	or	a3,a3,a1
    ab5e:	0b7e                	slli	s6,s6,0x1f
    ab60:	bbf9                	j	a93e <__divdf3+0x252>
    ab62:	f7f61de3          	bne	a2,t6,aadc <__divdf3+0x3f0>
    ab66:	d6068fe3          	beqz	a3,a8e4 <__divdf3+0x1f8>
    ab6a:	bfb9                	j	aac8 <__divdf3+0x3dc>
    ab6c:	fcd31ee3          	bne	t1,a3,ab48 <__divdf3+0x45c>
    ab70:	fdcb78e3          	bgeu	s6,t3,ab40 <__divdf3+0x454>
    ab74:	872a                	mv	a4,a0
    ab76:	bd51                	j	aa0a <__divdf3+0x31e>
    ab78:	00f8f793          	andi	a5,a7,15
    ab7c:	4691                	li	a3,4
    ab7e:	d6d789e3          	beq	a5,a3,a8f0 <__divdf3+0x204>
    ab82:	ffc8b793          	sltiu	a5,a7,-4
    ab86:	00488693          	addi	a3,a7,4
    ab8a:	0017c793          	xori	a5,a5,1
    ab8e:	828d                	srli	a3,a3,0x3
    ab90:	973e                	add	a4,a4,a5
    ab92:	b38d                	j	a8f4 <__divdf3+0x208>
    ab94:	4681                	li	a3,0
    ab96:	4785                	li	a5,1
    ab98:	fea04ce3          	bgtz	a0,ab90 <__divdf3+0x4a4>
    ab9c:	58fd                	li	a7,-1
    ab9e:	d0051ce3          	bnez	a0,a8b6 <__divdf3+0x1ca>
    aba2:	c0100493          	li	s1,-1023
    aba6:	4785                	li	a5,1
    aba8:	41e48513          	addi	a0,s1,1054
    abac:	00a716b3          	sll	a3,a4,a0
    abb0:	00f8d633          	srl	a2,a7,a5
    abb4:	00a89533          	sll	a0,a7,a0
    abb8:	8ed1                	or	a3,a3,a2
    abba:	00a03533          	snez	a0,a0
    abbe:	8ec9                	or	a3,a3,a0
    abc0:	0076f613          	andi	a2,a3,7
    abc4:	00f75733          	srl	a4,a4,a5
    abc8:	ce01                	beqz	a2,abe0 <__divdf3+0x4f4>
    abca:	00f6f793          	andi	a5,a3,15
    abce:	4611                	li	a2,4
    abd0:	00c78863          	beq	a5,a2,abe0 <__divdf3+0x4f4>
    abd4:	00468793          	addi	a5,a3,4
    abd8:	00d7b6b3          	sltu	a3,a5,a3
    abdc:	9736                	add	a4,a4,a3
    abde:	86be                	mv	a3,a5
    abe0:	00871793          	slli	a5,a4,0x8
    abe4:	0407d863          	bgez	a5,ac34 <__divdf3+0x548>
    abe8:	4605                	li	a2,1
    abea:	4781                	li	a5,0
    abec:	4701                	li	a4,0
    abee:	b6f1                	j	a7ba <__divdf3+0xce>
    abf0:	8736                	mv	a4,a3
    abf2:	bb7d                	j	a9b0 <__divdf3+0x2c4>
    abf4:	87b2                	mv	a5,a2
    abf6:	b379                	j	a984 <__divdf3+0x298>
    abf8:	46fd                	li	a3,31
    abfa:	faf6d7e3          	bge	a3,a5,aba8 <__divdf3+0x4bc>
    abfe:	5605                	li	a2,-31
    ac00:	8e09                	sub	a2,a2,a0
    ac02:	02000693          	li	a3,32
    ac06:	00c75633          	srl	a2,a4,a2
    ac0a:	00d78863          	beq	a5,a3,ac1a <__divdf3+0x52e>
    ac0e:	43e48793          	addi	a5,s1,1086
    ac12:	00f717b3          	sll	a5,a4,a5
    ac16:	00f8e8b3          	or	a7,a7,a5
    ac1a:	011036b3          	snez	a3,a7
    ac1e:	8ed1                	or	a3,a3,a2
    ac20:	0076f613          	andi	a2,a3,7
    ac24:	4781                	li	a5,0
    ac26:	ce01                	beqz	a2,ac3e <__divdf3+0x552>
    ac28:	00f6f793          	andi	a5,a3,15
    ac2c:	4611                	li	a2,4
    ac2e:	4701                	li	a4,0
    ac30:	fac792e3          	bne	a5,a2,abd4 <__divdf3+0x4e8>
    ac34:	00971793          	slli	a5,a4,0x9
    ac38:	01d71613          	slli	a2,a4,0x1d
    ac3c:	83b1                	srli	a5,a5,0xc
    ac3e:	0036d713          	srli	a4,a3,0x3
    ac42:	8f51                	or	a4,a4,a2
    ac44:	4601                	li	a2,0
    ac46:	be95                	j	a7ba <__divdf3+0xce>
    ac48:	f0cb70e3          	bgeu	s6,a2,ab48 <__divdf3+0x45c>
    ac4c:	9b72                	add	s6,s6,t3
    ac4e:	01cb3533          	sltu	a0,s6,t3
    ac52:	951a                	add	a0,a0,t1
    ac54:	1779                	addi	a4,a4,-2
    ac56:	96aa                	add	a3,a3,a0
    ac58:	bb4d                	j	aa0a <__divdf3+0x31e>
    ac5a:	88ae                	mv	a7,a1
    ac5c:	bbc5                	j	aa4c <__divdf3+0x360>
    ac5e:	86ae                	mv	a3,a1
    ac60:	bd31                	j	aa7c <__divdf3+0x390>
    ac62:	001e1793          	slli	a5,t3,0x1
    ac66:	01c7be33          	sltu	t3,a5,t3
    ac6a:	9372                	add	t1,t1,t3
    ac6c:	961a                	add	a2,a2,t1
    ac6e:	18f9                	addi	a7,a7,-2
    ac70:	8e3e                	mv	t3,a5
    ac72:	e7f615e3          	bne	a2,t6,aadc <__divdf3+0x3f0>
    ac76:	c6de07e3          	beq	t3,a3,a8e4 <__divdf3+0x1f8>
    ac7a:	0018e893          	ori	a7,a7,1
    ac7e:	b19d                	j	a8e4 <__divdf3+0x1f8>
    ac80:	88be                	mv	a7,a5
    ac82:	fff60ae3          	beq	a2,t6,ac76 <__divdf3+0x58a>
    ac86:	bd99                	j	aadc <__divdf3+0x3f0>
    ac88:	8836                	mv	a6,a3
    ac8a:	7ff00613          	li	a2,2047
    ac8e:	4781                	li	a5,0
    ac90:	4701                	li	a4,0
    ac92:	b625                	j	a7ba <__divdf3+0xce>
    ac94:	fcde67e3          	bltu	t3,a3,ac62 <__divdf3+0x576>
    ac98:	88be                	mv	a7,a5
    ac9a:	fede10e3          	bne	t3,a3,ac7a <__divdf3+0x58e>
    ac9e:	b199                	j	a8e4 <__divdf3+0x1f8>

0000aca0 <__eqdf2>:
    aca0:	0145d713          	srli	a4,a1,0x14
    aca4:	001007b7          	lui	a5,0x100
    aca8:	17fd                	addi	a5,a5,-1
    acaa:	0146d813          	srli	a6,a3,0x14
    acae:	7ff77713          	andi	a4,a4,2047
    acb2:	7ff00893          	li	a7,2047
    acb6:	00b7fe33          	and	t3,a5,a1
    acba:	8eaa                	mv	t4,a0
    acbc:	8ff5                	and	a5,a5,a3
    acbe:	81fd                	srli	a1,a1,0x1f
    acc0:	8f32                	mv	t5,a2
    acc2:	7ff87813          	andi	a6,a6,2047
    acc6:	82fd                	srli	a3,a3,0x1f
    acc8:	01170b63          	beq	a4,a7,acde <__eqdf2+0x3e>
    accc:	4305                	li	t1,1
    acce:	01180663          	beq	a6,a7,acda <__eqdf2+0x3a>
    acd2:	01071463          	bne	a4,a6,acda <__eqdf2+0x3a>
    acd6:	00fe0d63          	beq	t3,a5,acf0 <__eqdf2+0x50>
    acda:	851a                	mv	a0,t1
    acdc:	8082                	ret
    acde:	00ae68b3          	or	a7,t3,a0
    ace2:	4305                	li	t1,1
    ace4:	fe089be3          	bnez	a7,acda <__eqdf2+0x3a>
    ace8:	fee819e3          	bne	a6,a4,acda <__eqdf2+0x3a>
    acec:	8fd1                	or	a5,a5,a2
    acee:	f7f5                	bnez	a5,acda <__eqdf2+0x3a>
    acf0:	4305                	li	t1,1
    acf2:	ffee94e3          	bne	t4,t5,acda <__eqdf2+0x3a>
    acf6:	4301                	li	t1,0
    acf8:	fed581e3          	beq	a1,a3,acda <__eqdf2+0x3a>
    acfc:	4305                	li	t1,1
    acfe:	ff71                	bnez	a4,acda <__eqdf2+0x3a>
    ad00:	00ae6533          	or	a0,t3,a0
    ad04:	00a03333          	snez	t1,a0
    ad08:	bfc9                	j	acda <__eqdf2+0x3a>

0000ad0a <__gedf2>:
    ad0a:	0145d713          	srli	a4,a1,0x14
    ad0e:	001007b7          	lui	a5,0x100
    ad12:	17fd                	addi	a5,a5,-1
    ad14:	0146d813          	srli	a6,a3,0x14
    ad18:	7ff77713          	andi	a4,a4,2047
    ad1c:	7ff00893          	li	a7,2047
    ad20:	00b7f333          	and	t1,a5,a1
    ad24:	8e2a                	mv	t3,a0
    ad26:	8ff5                	and	a5,a5,a3
    ad28:	81fd                	srli	a1,a1,0x1f
    ad2a:	8eb2                	mv	t4,a2
    ad2c:	7ff87813          	andi	a6,a6,2047
    ad30:	82fd                	srli	a3,a3,0x1f
    ad32:	03170863          	beq	a4,a7,ad62 <__gedf2+0x58>
    ad36:	03180063          	beq	a6,a7,ad56 <__gedf2+0x4c>
    ad3a:	eb0d                	bnez	a4,ad6c <__gedf2+0x62>
    ad3c:	00a368b3          	or	a7,t1,a0
    ad40:	00081463          	bnez	a6,ad48 <__gedf2+0x3e>
    ad44:	8e5d                	or	a2,a2,a5
    ad46:	ca29                	beqz	a2,ad98 <__gedf2+0x8e>
    ad48:	04088563          	beqz	a7,ad92 <__gedf2+0x88>
    ad4c:	02d58863          	beq	a1,a3,ad7c <__gedf2+0x72>
    ad50:	4505                	li	a0,1
    ad52:	ed95                	bnez	a1,ad8e <__gedf2+0x84>
    ad54:	8082                	ret
    ad56:	00c7e8b3          	or	a7,a5,a2
    ad5a:	fe0880e3          	beqz	a7,ad3a <__gedf2+0x30>
    ad5e:	5579                	li	a0,-2
    ad60:	8082                	ret
    ad62:	00a36533          	or	a0,t1,a0
    ad66:	fd65                	bnez	a0,ad5e <__gedf2+0x54>
    ad68:	02e80c63          	beq	a6,a4,ada0 <__gedf2+0x96>
    ad6c:	00081463          	bnez	a6,ad74 <__gedf2+0x6a>
    ad70:	8e5d                	or	a2,a2,a5
    ad72:	de79                	beqz	a2,ad50 <__gedf2+0x46>
    ad74:	fcd59ee3          	bne	a1,a3,ad50 <__gedf2+0x46>
    ad78:	fce84ce3          	blt	a6,a4,ad50 <__gedf2+0x46>
    ad7c:	01074863          	blt	a4,a6,ad8c <__gedf2+0x82>
    ad80:	fc67e8e3          	bltu	a5,t1,ad50 <__gedf2+0x46>
    ad84:	02f30363          	beq	t1,a5,adaa <__gedf2+0xa0>
    ad88:	00f37f63          	bgeu	t1,a5,ada6 <__gedf2+0x9c>
    ad8c:	e581                	bnez	a1,ad94 <__gedf2+0x8a>
    ad8e:	557d                	li	a0,-1
    ad90:	8082                	ret
    ad92:	def5                	beqz	a3,ad8e <__gedf2+0x84>
    ad94:	4505                	li	a0,1
    ad96:	8082                	ret
    ad98:	4501                	li	a0,0
    ad9a:	fa089be3          	bnez	a7,ad50 <__gedf2+0x46>
    ad9e:	8082                	ret
    ada0:	8e5d                	or	a2,a2,a5
    ada2:	da69                	beqz	a2,ad74 <__gedf2+0x6a>
    ada4:	bf6d                	j	ad5e <__gedf2+0x54>
    ada6:	4501                	li	a0,0
    ada8:	8082                	ret
    adaa:	fbcee3e3          	bltu	t4,t3,ad50 <__gedf2+0x46>
    adae:	4501                	li	a0,0
    adb0:	fbde72e3          	bgeu	t3,t4,ad54 <__gedf2+0x4a>
    adb4:	f1e5                	bnez	a1,ad94 <__gedf2+0x8a>
    adb6:	bfe1                	j	ad8e <__gedf2+0x84>

0000adb8 <__ledf2>:
    adb8:	0145d713          	srli	a4,a1,0x14
    adbc:	001007b7          	lui	a5,0x100
    adc0:	17fd                	addi	a5,a5,-1
    adc2:	0146d813          	srli	a6,a3,0x14
    adc6:	7ff77713          	andi	a4,a4,2047
    adca:	7ff00893          	li	a7,2047
    adce:	00b7fe33          	and	t3,a5,a1
    add2:	8eaa                	mv	t4,a0
    add4:	8ff5                	and	a5,a5,a3
    add6:	81fd                	srli	a1,a1,0x1f
    add8:	8f32                	mv	t5,a2
    adda:	7ff87813          	andi	a6,a6,2047
    adde:	82fd                	srli	a3,a3,0x1f
    ade0:	03170e63          	beq	a4,a7,ae1c <__ledf2+0x64>
    ade4:	01180d63          	beq	a6,a7,adfe <__ledf2+0x46>
    ade8:	e329                	bnez	a4,ae2a <__ledf2+0x72>
    adea:	00ae68b3          	or	a7,t3,a0
    adee:	00081f63          	bnez	a6,ae0c <__ledf2+0x54>
    adf2:	8e5d                	or	a2,a2,a5
    adf4:	ee01                	bnez	a2,ae0c <__ledf2+0x54>
    adf6:	4301                	li	t1,0
    adf8:	04088c63          	beqz	a7,ae50 <__ledf2+0x98>
    adfc:	a821                	j	ae14 <__ledf2+0x5c>
    adfe:	00c7e8b3          	or	a7,a5,a2
    ae02:	4309                	li	t1,2
    ae04:	04089663          	bnez	a7,ae50 <__ledf2+0x98>
    ae08:	d36d                	beqz	a4,adea <__ledf2+0x32>
    ae0a:	a005                	j	ae2a <__ledf2+0x72>
    ae0c:	04088463          	beqz	a7,ae54 <__ledf2+0x9c>
    ae10:	02d58563          	beq	a1,a3,ae3a <__ledf2+0x82>
    ae14:	4305                	li	t1,1
    ae16:	cd8d                	beqz	a1,ae50 <__ledf2+0x98>
    ae18:	537d                	li	t1,-1
    ae1a:	a81d                	j	ae50 <__ledf2+0x98>
    ae1c:	00ae68b3          	or	a7,t3,a0
    ae20:	4309                	li	t1,2
    ae22:	02089763          	bnez	a7,ae50 <__ledf2+0x98>
    ae26:	02e80a63          	beq	a6,a4,ae5a <__ledf2+0xa2>
    ae2a:	00081463          	bnez	a6,ae32 <__ledf2+0x7a>
    ae2e:	8e5d                	or	a2,a2,a5
    ae30:	d275                	beqz	a2,ae14 <__ledf2+0x5c>
    ae32:	fed591e3          	bne	a1,a3,ae14 <__ledf2+0x5c>
    ae36:	fce84fe3          	blt	a6,a4,ae14 <__ledf2+0x5c>
    ae3a:	01074963          	blt	a4,a6,ae4c <__ledf2+0x94>
    ae3e:	fdc7ebe3          	bltu	a5,t3,ae14 <__ledf2+0x5c>
    ae42:	00fe0f63          	beq	t3,a5,ae60 <__ledf2+0xa8>
    ae46:	4301                	li	t1,0
    ae48:	00fe7463          	bgeu	t3,a5,ae50 <__ledf2+0x98>
    ae4c:	d5f1                	beqz	a1,ae18 <__ledf2+0x60>
    ae4e:	4305                	li	t1,1
    ae50:	851a                	mv	a0,t1
    ae52:	8082                	ret
    ae54:	feed                	bnez	a3,ae4e <__ledf2+0x96>
    ae56:	537d                	li	t1,-1
    ae58:	bfe5                	j	ae50 <__ledf2+0x98>
    ae5a:	8e5d                	or	a2,a2,a5
    ae5c:	da79                	beqz	a2,ae32 <__ledf2+0x7a>
    ae5e:	bfcd                	j	ae50 <__ledf2+0x98>
    ae60:	fbdf6ae3          	bltu	t5,t4,ae14 <__ledf2+0x5c>
    ae64:	4301                	li	t1,0
    ae66:	ffeef5e3          	bgeu	t4,t5,ae50 <__ledf2+0x98>
    ae6a:	f1f5                	bnez	a1,ae4e <__ledf2+0x96>
    ae6c:	b775                	j	ae18 <__ledf2+0x60>

0000ae6e <__muldf3>:
    ae6e:	7139                	addi	sp,sp,-64
    ae70:	d84a                	sw	s2,48(sp)
    ae72:	0145d913          	srli	s2,a1,0x14
    ae76:	d64e                	sw	s3,44(sp)
    ae78:	d452                	sw	s4,40(sp)
    ae7a:	d256                	sw	s5,36(sp)
    ae7c:	00c59993          	slli	s3,a1,0xc
    ae80:	de06                	sw	ra,60(sp)
    ae82:	dc22                	sw	s0,56(sp)
    ae84:	da26                	sw	s1,52(sp)
    ae86:	d05a                	sw	s6,32(sp)
    ae88:	ce5e                	sw	s7,28(sp)
    ae8a:	7ff97913          	andi	s2,s2,2047
    ae8e:	8a2a                	mv	s4,a0
    ae90:	00c9d993          	srli	s3,s3,0xc
    ae94:	01f5da93          	srli	s5,a1,0x1f
    ae98:	0e090d63          	beqz	s2,af92 <__muldf3+0x124>
    ae9c:	7ff00793          	li	a5,2047
    aea0:	18f90663          	beq	s2,a5,b02c <__muldf3+0x1be>
    aea4:	01d55413          	srli	s0,a0,0x1d
    aea8:	098e                	slli	s3,s3,0x3
    aeaa:	013469b3          	or	s3,s0,s3
    aeae:	00800437          	lui	s0,0x800
    aeb2:	0089e433          	or	s0,s3,s0
    aeb6:	00351493          	slli	s1,a0,0x3
    aeba:	c0190913          	addi	s2,s2,-1023
    aebe:	4981                	li	s3,0
    aec0:	4b81                	li	s7,0
    aec2:	0146d713          	srli	a4,a3,0x14
    aec6:	00c69a13          	slli	s4,a3,0xc
    aeca:	7ff77713          	andi	a4,a4,2047
    aece:	85b2                	mv	a1,a2
    aed0:	00ca5a13          	srli	s4,s4,0xc
    aed4:	01f6db13          	srli	s6,a3,0x1f
    aed8:	10070b63          	beqz	a4,afee <__muldf3+0x180>
    aedc:	7ff00793          	li	a5,2047
    aee0:	04f70363          	beq	a4,a5,af26 <__muldf3+0xb8>
    aee4:	01d65793          	srli	a5,a2,0x1d
    aee8:	0a0e                	slli	s4,s4,0x3
    aeea:	0147ea33          	or	s4,a5,s4
    aeee:	c0170713          	addi	a4,a4,-1023
    aef2:	008007b7          	lui	a5,0x800
    aef6:	00fa67b3          	or	a5,s4,a5
    aefa:	00361593          	slli	a1,a2,0x3
    aefe:	993a                	add	s2,s2,a4
    af00:	4881                	li	a7,0
    af02:	016ac733          	xor	a4,s5,s6
    af06:	46bd                	li	a3,15
    af08:	853a                	mv	a0,a4
    af0a:	00190813          	addi	a6,s2,1
    af0e:	1736e863          	bltu	a3,s3,b07e <__muldf3+0x210>
    af12:	00002617          	auipc	a2,0x2
    af16:	7a660613          	addi	a2,a2,1958 # d6b8 <p05.3319+0x60>
    af1a:	098a                	slli	s3,s3,0x2
    af1c:	99b2                	add	s3,s3,a2
    af1e:	0009a683          	lw	a3,0(s3)
    af22:	96b2                	add	a3,a3,a2
    af24:	8682                	jr	a3
    af26:	00ca67b3          	or	a5,s4,a2
    af2a:	7ff90913          	addi	s2,s2,2047
    af2e:	12079963          	bnez	a5,b060 <__muldf3+0x1f2>
    af32:	0029e993          	ori	s3,s3,2
    af36:	4581                	li	a1,0
    af38:	4889                	li	a7,2
    af3a:	b7e1                	j	af02 <__muldf3+0x94>
    af3c:	4701                	li	a4,0
    af3e:	7ff00793          	li	a5,2047
    af42:	00080437          	lui	s0,0x80
    af46:	4481                	li	s1,0
    af48:	0432                	slli	s0,s0,0xc
    af4a:	07d2                	slli	a5,a5,0x14
    af4c:	8031                	srli	s0,s0,0xc
    af4e:	077e                	slli	a4,a4,0x1f
    af50:	8c5d                	or	s0,s0,a5
    af52:	8c59                	or	s0,s0,a4
    af54:	85a2                	mv	a1,s0
    af56:	50f2                	lw	ra,60(sp)
    af58:	5462                	lw	s0,56(sp)
    af5a:	8526                	mv	a0,s1
    af5c:	5942                	lw	s2,48(sp)
    af5e:	54d2                	lw	s1,52(sp)
    af60:	59b2                	lw	s3,44(sp)
    af62:	5a22                	lw	s4,40(sp)
    af64:	5a92                	lw	s5,36(sp)
    af66:	5b02                	lw	s6,32(sp)
    af68:	4bf2                	lw	s7,28(sp)
    af6a:	6121                	addi	sp,sp,64
    af6c:	8082                	ret
    af6e:	855a                	mv	a0,s6
    af70:	843e                	mv	s0,a5
    af72:	84ae                	mv	s1,a1
    af74:	8bc6                	mv	s7,a7
    af76:	4789                	li	a5,2
    af78:	0efb8d63          	beq	s7,a5,b072 <__muldf3+0x204>
    af7c:	478d                	li	a5,3
    af7e:	fafb8fe3          	beq	s7,a5,af3c <__muldf3+0xce>
    af82:	4785                	li	a5,1
    af84:	872a                	mv	a4,a0
    af86:	38fb9e63          	bne	s7,a5,b322 <__muldf3+0x4b4>
    af8a:	4781                	li	a5,0
    af8c:	4401                	li	s0,0
    af8e:	4481                	li	s1,0
    af90:	bf65                	j	af48 <__muldf3+0xda>
    af92:	00a9e433          	or	s0,s3,a0
    af96:	c061                	beqz	s0,b056 <__muldf3+0x1e8>
    af98:	c636                	sw	a3,12(sp)
    af9a:	c432                	sw	a2,8(sp)
    af9c:	2a098c63          	beqz	s3,b254 <__muldf3+0x3e6>
    afa0:	854e                	mv	a0,s3
    afa2:	1c0010ef          	jal	ra,c162 <__clzsi2>
    afa6:	4622                	lw	a2,8(sp)
    afa8:	46b2                	lw	a3,12(sp)
    afaa:	87aa                	mv	a5,a0
    afac:	ff550713          	addi	a4,a0,-11
    afb0:	4475                	li	s0,29
    afb2:	ff878493          	addi	s1,a5,-8 # 7ffff8 <_data_lma+0x7f28e8>
    afb6:	8c19                	sub	s0,s0,a4
    afb8:	009999b3          	sll	s3,s3,s1
    afbc:	008a5433          	srl	s0,s4,s0
    afc0:	01346433          	or	s0,s0,s3
    afc4:	009a14b3          	sll	s1,s4,s1
    afc8:	0146d713          	srli	a4,a3,0x14
    afcc:	c0d00913          	li	s2,-1011
    afd0:	00c69a13          	slli	s4,a3,0xc
    afd4:	7ff77713          	andi	a4,a4,2047
    afd8:	40f90933          	sub	s2,s2,a5
    afdc:	4981                	li	s3,0
    afde:	4b81                	li	s7,0
    afe0:	85b2                	mv	a1,a2
    afe2:	00ca5a13          	srli	s4,s4,0xc
    afe6:	01f6db13          	srli	s6,a3,0x1f
    afea:	ee0719e3          	bnez	a4,aedc <__muldf3+0x6e>
    afee:	00ca67b3          	or	a5,s4,a2
    aff2:	c7b1                	beqz	a5,b03e <__muldf3+0x1d0>
    aff4:	220a0f63          	beqz	s4,b232 <__muldf3+0x3c4>
    aff8:	8552                	mv	a0,s4
    affa:	c432                	sw	a2,8(sp)
    affc:	166010ef          	jal	ra,c162 <__clzsi2>
    b000:	4622                	lw	a2,8(sp)
    b002:	872a                	mv	a4,a0
    b004:	ff550693          	addi	a3,a0,-11
    b008:	47f5                	li	a5,29
    b00a:	ff870593          	addi	a1,a4,-8
    b00e:	8f95                	sub	a5,a5,a3
    b010:	00ba1a33          	sll	s4,s4,a1
    b014:	00f657b3          	srl	a5,a2,a5
    b018:	0147e7b3          	or	a5,a5,s4
    b01c:	00b615b3          	sll	a1,a2,a1
    b020:	40e90933          	sub	s2,s2,a4
    b024:	c0d90913          	addi	s2,s2,-1011
    b028:	4881                	li	a7,0
    b02a:	bde1                	j	af02 <__muldf3+0x94>
    b02c:	00a9e433          	or	s0,s3,a0
    b030:	ec01                	bnez	s0,b048 <__muldf3+0x1da>
    b032:	49a1                	li	s3,8
    b034:	4481                	li	s1,0
    b036:	7ff00913          	li	s2,2047
    b03a:	4b89                	li	s7,2
    b03c:	b559                	j	aec2 <__muldf3+0x54>
    b03e:	0019e993          	ori	s3,s3,1
    b042:	4581                	li	a1,0
    b044:	4885                	li	a7,1
    b046:	bd75                	j	af02 <__muldf3+0x94>
    b048:	844e                	mv	s0,s3
    b04a:	84aa                	mv	s1,a0
    b04c:	49b1                	li	s3,12
    b04e:	7ff00913          	li	s2,2047
    b052:	4b8d                	li	s7,3
    b054:	b5bd                	j	aec2 <__muldf3+0x54>
    b056:	4991                	li	s3,4
    b058:	4481                	li	s1,0
    b05a:	4901                	li	s2,0
    b05c:	4b85                	li	s7,1
    b05e:	b595                	j	aec2 <__muldf3+0x54>
    b060:	0039e993          	ori	s3,s3,3
    b064:	87d2                	mv	a5,s4
    b066:	488d                	li	a7,3
    b068:	bd69                	j	af02 <__muldf3+0x94>
    b06a:	4789                	li	a5,2
    b06c:	8556                	mv	a0,s5
    b06e:	f0fb97e3          	bne	s7,a5,af7c <__muldf3+0x10e>
    b072:	872a                	mv	a4,a0
    b074:	7ff00793          	li	a5,2047
    b078:	4401                	li	s0,0
    b07a:	4481                	li	s1,0
    b07c:	b5f1                	j	af48 <__muldf3+0xda>
    b07e:	6ec1                	lui	t4,0x10
    b080:	fffe8613          	addi	a2,t4,-1 # ffff <_data_lma+0x28ef>
    b084:	0104d693          	srli	a3,s1,0x10
    b088:	0105de13          	srli	t3,a1,0x10
    b08c:	8cf1                	and	s1,s1,a2
    b08e:	8df1                	and	a1,a1,a2
    b090:	02958633          	mul	a2,a1,s1
    b094:	02b68333          	mul	t1,a3,a1
    b098:	01065893          	srli	a7,a2,0x10
    b09c:	029e0533          	mul	a0,t3,s1
    b0a0:	951a                	add	a0,a0,t1
    b0a2:	98aa                	add	a7,a7,a0
    b0a4:	03c682b3          	mul	t0,a3,t3
    b0a8:	0068f363          	bgeu	a7,t1,b0ae <__muldf3+0x240>
    b0ac:	92f6                	add	t0,t0,t4
    b0ae:	6fc1                	lui	t6,0x10
    b0b0:	ffff8313          	addi	t1,t6,-1 # ffff <_data_lma+0x28ef>
    b0b4:	0067f533          	and	a0,a5,t1
    b0b8:	0107d393          	srli	t2,a5,0x10
    b0bc:	0068f7b3          	and	a5,a7,t1
    b0c0:	07c2                	slli	a5,a5,0x10
    b0c2:	00667333          	and	t1,a2,t1
    b0c6:	933e                	add	t1,t1,a5
    b0c8:	02950633          	mul	a2,a0,s1
    b0cc:	0108d893          	srli	a7,a7,0x10
    b0d0:	02a687b3          	mul	a5,a3,a0
    b0d4:	01065f13          	srli	t5,a2,0x10
    b0d8:	029384b3          	mul	s1,t2,s1
    b0dc:	94be                	add	s1,s1,a5
    b0de:	94fa                	add	s1,s1,t5
    b0e0:	02768eb3          	mul	t4,a3,t2
    b0e4:	00f4f363          	bgeu	s1,a5,b0ea <__muldf3+0x27c>
    b0e8:	9efe                	add	t4,t4,t6
    b0ea:	6a41                	lui	s4,0x10
    b0ec:	fffa0793          	addi	a5,s4,-1 # ffff <_data_lma+0x28ef>
    b0f0:	01045f93          	srli	t6,s0,0x10
    b0f4:	00f476b3          	and	a3,s0,a5
    b0f8:	00f4f9b3          	and	s3,s1,a5
    b0fc:	8e7d                	and	a2,a2,a5
    b0fe:	80c1                	srli	s1,s1,0x10
    b100:	02d58433          	mul	s0,a1,a3
    b104:	09c2                	slli	s3,s3,0x10
    b106:	01d48f33          	add	t5,s1,t4
    b10a:	99b2                	add	s3,s3,a2
    b10c:	98ce                	add	a7,a7,s3
    b10e:	02de07b3          	mul	a5,t3,a3
    b112:	01045e93          	srli	t4,s0,0x10
    b116:	02bf85b3          	mul	a1,t6,a1
    b11a:	97ae                	add	a5,a5,a1
    b11c:	9ebe                	add	t4,t4,a5
    b11e:	03fe0e33          	mul	t3,t3,t6
    b122:	00bef363          	bgeu	t4,a1,b128 <__muldf3+0x2ba>
    b126:	9e52                	add	t3,t3,s4
    b128:	67c1                	lui	a5,0x10
    b12a:	fff78593          	addi	a1,a5,-1 # ffff <_data_lma+0x28ef>
    b12e:	00bef633          	and	a2,t4,a1
    b132:	8c6d                	and	s0,s0,a1
    b134:	0642                	slli	a2,a2,0x10
    b136:	9622                	add	a2,a2,s0
    b138:	010ede93          	srli	t4,t4,0x10
    b13c:	02d505b3          	mul	a1,a0,a3
    b140:	9e76                	add	t3,t3,t4
    b142:	02af8533          	mul	a0,t6,a0
    b146:	0105d413          	srli	s0,a1,0x10
    b14a:	02d386b3          	mul	a3,t2,a3
    b14e:	96aa                	add	a3,a3,a0
    b150:	96a2                	add	a3,a3,s0
    b152:	03f38fb3          	mul	t6,t2,t6
    b156:	00a6f363          	bgeu	a3,a0,b15c <__muldf3+0x2ee>
    b15a:	9fbe                	add	t6,t6,a5
    b15c:	6541                	lui	a0,0x10
    b15e:	157d                	addi	a0,a0,-1
    b160:	00a6f7b3          	and	a5,a3,a0
    b164:	07c2                	slli	a5,a5,0x10
    b166:	8d6d                	and	a0,a0,a1
    b168:	97aa                	add	a5,a5,a0
    b16a:	005885b3          	add	a1,a7,t0
    b16e:	0135b9b3          	sltu	s3,a1,s3
    b172:	97fa                	add	a5,a5,t5
    b174:	95b2                	add	a1,a1,a2
    b176:	01378433          	add	s0,a5,s3
    b17a:	00c5b633          	sltu	a2,a1,a2
    b17e:	01c40eb3          	add	t4,s0,t3
    b182:	00ce8533          	add	a0,t4,a2
    b186:	01343433          	sltu	s0,s0,s3
    b18a:	01e7b7b3          	sltu	a5,a5,t5
    b18e:	8fc1                	or	a5,a5,s0
    b190:	01cebe33          	sltu	t3,t4,t3
    b194:	0106d413          	srli	s0,a3,0x10
    b198:	00c53633          	sltu	a2,a0,a2
    b19c:	943e                	add	s0,s0,a5
    b19e:	00ce6633          	or	a2,t3,a2
    b1a2:	00959493          	slli	s1,a1,0x9
    b1a6:	9432                	add	s0,s0,a2
    b1a8:	947e                	add	s0,s0,t6
    b1aa:	0064e4b3          	or	s1,s1,t1
    b1ae:	0426                	slli	s0,s0,0x9
    b1b0:	01755693          	srli	a3,a0,0x17
    b1b4:	009034b3          	snez	s1,s1
    b1b8:	81dd                	srli	a1,a1,0x17
    b1ba:	00951793          	slli	a5,a0,0x9
    b1be:	8ccd                	or	s1,s1,a1
    b1c0:	8c55                	or	s0,s0,a3
    b1c2:	8cdd                	or	s1,s1,a5
    b1c4:	00741793          	slli	a5,s0,0x7
    b1c8:	0007db63          	bgez	a5,b1de <__muldf3+0x370>
    b1cc:	0014d793          	srli	a5,s1,0x1
    b1d0:	8885                	andi	s1,s1,1
    b1d2:	01f41693          	slli	a3,s0,0x1f
    b1d6:	8cdd                	or	s1,s1,a5
    b1d8:	8cd5                	or	s1,s1,a3
    b1da:	8005                	srli	s0,s0,0x1
    b1dc:	8942                	mv	s2,a6
    b1de:	3ff90793          	addi	a5,s2,1023
    b1e2:	08f05963          	blez	a5,b274 <__muldf3+0x406>
    b1e6:	0074f693          	andi	a3,s1,7
    b1ea:	ce81                	beqz	a3,b202 <__muldf3+0x394>
    b1ec:	00f4f693          	andi	a3,s1,15
    b1f0:	4611                	li	a2,4
    b1f2:	00c68863          	beq	a3,a2,b202 <__muldf3+0x394>
    b1f6:	00448693          	addi	a3,s1,4
    b1fa:	0096b4b3          	sltu	s1,a3,s1
    b1fe:	9426                	add	s0,s0,s1
    b200:	84b6                	mv	s1,a3
    b202:	00741693          	slli	a3,s0,0x7
    b206:	0006d863          	bgez	a3,b216 <__muldf3+0x3a8>
    b20a:	ff0007b7          	lui	a5,0xff000
    b20e:	17fd                	addi	a5,a5,-1
    b210:	8c7d                	and	s0,s0,a5
    b212:	40090793          	addi	a5,s2,1024
    b216:	7fe00693          	li	a3,2046
    b21a:	0ef6cf63          	blt	a3,a5,b318 <__muldf3+0x4aa>
    b21e:	0034d693          	srli	a3,s1,0x3
    b222:	01d41493          	slli	s1,s0,0x1d
    b226:	0426                	slli	s0,s0,0x9
    b228:	8cd5                	or	s1,s1,a3
    b22a:	8031                	srli	s0,s0,0xc
    b22c:	7ff7f793          	andi	a5,a5,2047
    b230:	bb21                	j	af48 <__muldf3+0xda>
    b232:	8532                	mv	a0,a2
    b234:	c432                	sw	a2,8(sp)
    b236:	72d000ef          	jal	ra,c162 <__clzsi2>
    b23a:	01550693          	addi	a3,a0,21 # 10015 <_data_lma+0x2905>
    b23e:	47f1                	li	a5,28
    b240:	02050713          	addi	a4,a0,32
    b244:	4622                	lw	a2,8(sp)
    b246:	dcd7d1e3          	bge	a5,a3,b008 <__muldf3+0x19a>
    b24a:	1561                	addi	a0,a0,-8
    b24c:	00a617b3          	sll	a5,a2,a0
    b250:	4581                	li	a1,0
    b252:	b3f9                	j	b020 <__muldf3+0x1b2>
    b254:	70f000ef          	jal	ra,c162 <__clzsi2>
    b258:	01550713          	addi	a4,a0,21
    b25c:	45f1                	li	a1,28
    b25e:	02050793          	addi	a5,a0,32
    b262:	4622                	lw	a2,8(sp)
    b264:	46b2                	lw	a3,12(sp)
    b266:	d4e5d5e3          	bge	a1,a4,afb0 <__muldf3+0x142>
    b26a:	1561                	addi	a0,a0,-8
    b26c:	00aa1433          	sll	s0,s4,a0
    b270:	4481                	li	s1,0
    b272:	bb99                	j	afc8 <__muldf3+0x15a>
    b274:	4685                	li	a3,1
    b276:	8e9d                	sub	a3,a3,a5
    b278:	e7b1                	bnez	a5,b2c4 <__muldf3+0x456>
    b27a:	41e90913          	addi	s2,s2,1054
    b27e:	012497b3          	sll	a5,s1,s2
    b282:	00d4d4b3          	srl	s1,s1,a3
    b286:	01241933          	sll	s2,s0,s2
    b28a:	00f037b3          	snez	a5,a5
    b28e:	009964b3          	or	s1,s2,s1
    b292:	8cdd                	or	s1,s1,a5
    b294:	0074f793          	andi	a5,s1,7
    b298:	00d456b3          	srl	a3,s0,a3
    b29c:	cf81                	beqz	a5,b2b4 <__muldf3+0x446>
    b29e:	00f4f793          	andi	a5,s1,15
    b2a2:	4611                	li	a2,4
    b2a4:	00c78863          	beq	a5,a2,b2b4 <__muldf3+0x446>
    b2a8:	00448793          	addi	a5,s1,4
    b2ac:	0097b4b3          	sltu	s1,a5,s1
    b2b0:	96a6                	add	a3,a3,s1
    b2b2:	84be                	mv	s1,a5
    b2b4:	00869793          	slli	a5,a3,0x8
    b2b8:	0407d863          	bgez	a5,b308 <__muldf3+0x49a>
    b2bc:	4785                	li	a5,1
    b2be:	4401                	li	s0,0
    b2c0:	4481                	li	s1,0
    b2c2:	b159                	j	af48 <__muldf3+0xda>
    b2c4:	03800613          	li	a2,56
    b2c8:	ccd641e3          	blt	a2,a3,af8a <__muldf3+0x11c>
    b2cc:	467d                	li	a2,31
    b2ce:	fad656e3          	bge	a2,a3,b27a <__muldf3+0x40c>
    b2d2:	5605                	li	a2,-31
    b2d4:	40f607b3          	sub	a5,a2,a5
    b2d8:	02000593          	li	a1,32
    b2dc:	00f45633          	srl	a2,s0,a5
    b2e0:	00b68763          	beq	a3,a1,b2ee <__muldf3+0x480>
    b2e4:	43e90913          	addi	s2,s2,1086
    b2e8:	012417b3          	sll	a5,s0,s2
    b2ec:	8cdd                	or	s1,s1,a5
    b2ee:	009034b3          	snez	s1,s1
    b2f2:	8cd1                	or	s1,s1,a2
    b2f4:	0074f693          	andi	a3,s1,7
    b2f8:	4401                	li	s0,0
    b2fa:	ca99                	beqz	a3,b310 <__muldf3+0x4a2>
    b2fc:	00f4f793          	andi	a5,s1,15
    b300:	4611                	li	a2,4
    b302:	4681                	li	a3,0
    b304:	fac792e3          	bne	a5,a2,b2a8 <__muldf3+0x43a>
    b308:	00969413          	slli	s0,a3,0x9
    b30c:	8031                	srli	s0,s0,0xc
    b30e:	06f6                	slli	a3,a3,0x1d
    b310:	808d                	srli	s1,s1,0x3
    b312:	8cd5                	or	s1,s1,a3
    b314:	4781                	li	a5,0
    b316:	b90d                	j	af48 <__muldf3+0xda>
    b318:	7ff00793          	li	a5,2047
    b31c:	4401                	li	s0,0
    b31e:	4481                	li	s1,0
    b320:	b125                	j	af48 <__muldf3+0xda>
    b322:	8942                	mv	s2,a6
    b324:	bd6d                	j	b1de <__muldf3+0x370>

0000b326 <__subdf3>:
    b326:	00100737          	lui	a4,0x100
    b32a:	177d                	addi	a4,a4,-1
    b32c:	1101                	addi	sp,sp,-32
    b32e:	00b77333          	and	t1,a4,a1
    b332:	0146d893          	srli	a7,a3,0x14
    b336:	8f75                	and	a4,a4,a3
    b338:	01d65e93          	srli	t4,a2,0x1d
    b33c:	cc22                	sw	s0,24(sp)
    b33e:	ca26                	sw	s1,20(sp)
    b340:	030e                	slli	t1,t1,0x3
    b342:	0145d493          	srli	s1,a1,0x14
    b346:	01d55793          	srli	a5,a0,0x1d
    b34a:	070e                	slli	a4,a4,0x3
    b34c:	ce06                	sw	ra,28(sp)
    b34e:	c84a                	sw	s2,16(sp)
    b350:	c64e                	sw	s3,12(sp)
    b352:	7ff8f893          	andi	a7,a7,2047
    b356:	7ff00e13          	li	t3,2047
    b35a:	00eee733          	or	a4,t4,a4
    b35e:	7ff4f493          	andi	s1,s1,2047
    b362:	01f5d413          	srli	s0,a1,0x1f
    b366:	0067e333          	or	t1,a5,t1
    b36a:	00351f13          	slli	t5,a0,0x3
    b36e:	82fd                	srli	a3,a3,0x1f
    b370:	00361e93          	slli	t4,a2,0x3
    b374:	19c88063          	beq	a7,t3,b4f4 <__subdf3+0x1ce>
    b378:	0016c693          	xori	a3,a3,1
    b37c:	411485b3          	sub	a1,s1,a7
    b380:	12d40563          	beq	s0,a3,b4aa <__subdf3+0x184>
    b384:	18b05163          	blez	a1,b506 <__subdf3+0x1e0>
    b388:	1a088b63          	beqz	a7,b53e <__subdf3+0x218>
    b38c:	008007b7          	lui	a5,0x800
    b390:	8f5d                	or	a4,a4,a5
    b392:	59c48163          	beq	s1,t3,b914 <__subdf3+0x5ee>
    b396:	03800793          	li	a5,56
    b39a:	34b7c463          	blt	a5,a1,b6e2 <__subdf3+0x3bc>
    b39e:	47fd                	li	a5,31
    b3a0:	48b7c563          	blt	a5,a1,b82a <__subdf3+0x504>
    b3a4:	02000793          	li	a5,32
    b3a8:	8f8d                	sub	a5,a5,a1
    b3aa:	00bed9b3          	srl	s3,t4,a1
    b3ae:	00f71833          	sll	a6,a4,a5
    b3b2:	00fe9eb3          	sll	t4,t4,a5
    b3b6:	01386833          	or	a6,a6,s3
    b3ba:	00b75733          	srl	a4,a4,a1
    b3be:	01d039b3          	snez	s3,t4
    b3c2:	01386833          	or	a6,a6,s3
    b3c6:	40e30333          	sub	t1,t1,a4
    b3ca:	410f09b3          	sub	s3,t5,a6
    b3ce:	013f37b3          	sltu	a5,t5,s3
    b3d2:	40f30633          	sub	a2,t1,a5
    b3d6:	00861793          	slli	a5,a2,0x8
    b3da:	2407d363          	bgez	a5,b620 <__subdf3+0x2fa>
    b3de:	00800937          	lui	s2,0x800
    b3e2:	197d                	addi	s2,s2,-1
    b3e4:	01267933          	and	s2,a2,s2
    b3e8:	2c090f63          	beqz	s2,b6c6 <__subdf3+0x3a0>
    b3ec:	854a                	mv	a0,s2
    b3ee:	575000ef          	jal	ra,c162 <__clzsi2>
    b3f2:	ff850713          	addi	a4,a0,-8
    b3f6:	02000793          	li	a5,32
    b3fa:	8f99                	sub	a5,a5,a4
    b3fc:	00f9d7b3          	srl	a5,s3,a5
    b400:	00e91633          	sll	a2,s2,a4
    b404:	8fd1                	or	a5,a5,a2
    b406:	00e999b3          	sll	s3,s3,a4
    b40a:	2a974463          	blt	a4,s1,b6b2 <__subdf3+0x38c>
    b40e:	8f05                	sub	a4,a4,s1
    b410:	00170613          	addi	a2,a4,1 # 100001 <_data_lma+0xf28f1>
    b414:	46fd                	li	a3,31
    b416:	3ac6c563          	blt	a3,a2,b7c0 <__subdf3+0x49a>
    b41a:	02000713          	li	a4,32
    b41e:	8f11                	sub	a4,a4,a2
    b420:	00c9d6b3          	srl	a3,s3,a2
    b424:	00e99833          	sll	a6,s3,a4
    b428:	00e79733          	sll	a4,a5,a4
    b42c:	8f55                	or	a4,a4,a3
    b42e:	01003833          	snez	a6,a6
    b432:	010769b3          	or	s3,a4,a6
    b436:	00c7d633          	srl	a2,a5,a2
    b43a:	4481                	li	s1,0
    b43c:	0079f793          	andi	a5,s3,7
    b440:	cf81                	beqz	a5,b458 <__subdf3+0x132>
    b442:	00f9f693          	andi	a3,s3,15
    b446:	4791                	li	a5,4
    b448:	00f68863          	beq	a3,a5,b458 <__subdf3+0x132>
    b44c:	00498693          	addi	a3,s3,4
    b450:	0136b833          	sltu	a6,a3,s3
    b454:	9642                	add	a2,a2,a6
    b456:	89b6                	mv	s3,a3
    b458:	00861793          	slli	a5,a2,0x8
    b45c:	1c07d663          	bgez	a5,b628 <__subdf3+0x302>
    b460:	00148713          	addi	a4,s1,1
    b464:	7ff00793          	li	a5,2047
    b468:	8805                	andi	s0,s0,1
    b46a:	20f70663          	beq	a4,a5,b676 <__subdf3+0x350>
    b46e:	ff8007b7          	lui	a5,0xff800
    b472:	17fd                	addi	a5,a5,-1
    b474:	8ff1                	and	a5,a5,a2
    b476:	01d79813          	slli	a6,a5,0x1d
    b47a:	0039d993          	srli	s3,s3,0x3
    b47e:	07a6                	slli	a5,a5,0x9
    b480:	01386833          	or	a6,a6,s3
    b484:	83b1                	srli	a5,a5,0xc
    b486:	7ff77713          	andi	a4,a4,2047
    b48a:	00c79693          	slli	a3,a5,0xc
    b48e:	0752                	slli	a4,a4,0x14
    b490:	82b1                	srli	a3,a3,0xc
    b492:	047e                	slli	s0,s0,0x1f
    b494:	8ed9                	or	a3,a3,a4
    b496:	8ec1                	or	a3,a3,s0
    b498:	40f2                	lw	ra,28(sp)
    b49a:	4462                	lw	s0,24(sp)
    b49c:	44d2                	lw	s1,20(sp)
    b49e:	4942                	lw	s2,16(sp)
    b4a0:	49b2                	lw	s3,12(sp)
    b4a2:	8542                	mv	a0,a6
    b4a4:	85b6                	mv	a1,a3
    b4a6:	6105                	addi	sp,sp,32
    b4a8:	8082                	ret
    b4aa:	0ab05663          	blez	a1,b556 <__subdf3+0x230>
    b4ae:	12088a63          	beqz	a7,b5e2 <__subdf3+0x2bc>
    b4b2:	008007b7          	lui	a5,0x800
    b4b6:	8f5d                	or	a4,a4,a5
    b4b8:	2dc48763          	beq	s1,t3,b786 <__subdf3+0x460>
    b4bc:	03800793          	li	a5,56
    b4c0:	18b7c763          	blt	a5,a1,b64e <__subdf3+0x328>
    b4c4:	47fd                	li	a5,31
    b4c6:	3cb7d263          	bge	a5,a1,b88a <__subdf3+0x564>
    b4ca:	fe058813          	addi	a6,a1,-32 # ffe0 <_data_lma+0x28d0>
    b4ce:	02000793          	li	a5,32
    b4d2:	010759b3          	srl	s3,a4,a6
    b4d6:	00f58a63          	beq	a1,a5,b4ea <__subdf3+0x1c4>
    b4da:	04000793          	li	a5,64
    b4de:	40b785b3          	sub	a1,a5,a1
    b4e2:	00b71733          	sll	a4,a4,a1
    b4e6:	00eeeeb3          	or	t4,t4,a4
    b4ea:	01d03833          	snez	a6,t4
    b4ee:	01386833          	or	a6,a6,s3
    b4f2:	a295                	j	b656 <__subdf3+0x330>
    b4f4:	01d767b3          	or	a5,a4,t4
    b4f8:	80148593          	addi	a1,s1,-2047
    b4fc:	e399                	bnez	a5,b502 <__subdf3+0x1dc>
    b4fe:	0016c693          	xori	a3,a3,1
    b502:	04d40a63          	beq	s0,a3,b556 <__subdf3+0x230>
    b506:	e1d1                	bnez	a1,b58a <__subdf3+0x264>
    b508:	00148793          	addi	a5,s1,1
    b50c:	7fe7f793          	andi	a5,a5,2046
    b510:	1e079963          	bnez	a5,b702 <__subdf3+0x3dc>
    b514:	01e367b3          	or	a5,t1,t5
    b518:	01d76833          	or	a6,a4,t4
    b51c:	16049263          	bnez	s1,b680 <__subdf3+0x35a>
    b520:	3c078263          	beqz	a5,b8e4 <__subdf3+0x5be>
    b524:	42081663          	bnez	a6,b950 <__subdf3+0x62a>
    b528:	00351813          	slli	a6,a0,0x3
    b52c:	01d31693          	slli	a3,t1,0x1d
    b530:	00385813          	srli	a6,a6,0x3
    b534:	0106e833          	or	a6,a3,a6
    b538:	00335793          	srli	a5,t1,0x3
    b53c:	a219                	j	b642 <__subdf3+0x31c>
    b53e:	01d767b3          	or	a5,a4,t4
    b542:	1a078563          	beqz	a5,b6ec <__subdf3+0x3c6>
    b546:	fff58793          	addi	a5,a1,-1
    b54a:	3a078b63          	beqz	a5,b900 <__subdf3+0x5da>
    b54e:	23c58c63          	beq	a1,t3,b786 <__subdf3+0x460>
    b552:	85be                	mv	a1,a5
    b554:	b589                	j	b396 <__subdf3+0x70>
    b556:	1c059963          	bnez	a1,b728 <__subdf3+0x402>
    b55a:	00148693          	addi	a3,s1,1
    b55e:	7fe6f793          	andi	a5,a3,2046
    b562:	efc1                	bnez	a5,b5fa <__subdf3+0x2d4>
    b564:	01e367b3          	or	a5,t1,t5
    b568:	36049063          	bnez	s1,b8c8 <__subdf3+0x5a2>
    b56c:	44078d63          	beqz	a5,b9c6 <__subdf3+0x6a0>
    b570:	01d767b3          	or	a5,a4,t4
    b574:	46079463          	bnez	a5,b9dc <__subdf3+0x6b6>
    b578:	050e                	slli	a0,a0,0x3
    b57a:	01d31813          	slli	a6,t1,0x1d
    b57e:	810d                	srli	a0,a0,0x3
    b580:	00a86833          	or	a6,a6,a0
    b584:	00335793          	srli	a5,t1,0x3
    b588:	a86d                	j	b642 <__subdf3+0x31c>
    b58a:	409885b3          	sub	a1,a7,s1
    b58e:	20049763          	bnez	s1,b79c <__subdf3+0x476>
    b592:	01e367b3          	or	a5,t1,t5
    b596:	30078d63          	beqz	a5,b8b0 <__subdf3+0x58a>
    b59a:	fff58793          	addi	a5,a1,-1
    b59e:	40078963          	beqz	a5,b9b0 <__subdf3+0x68a>
    b5a2:	7ff00513          	li	a0,2047
    b5a6:	20a58363          	beq	a1,a0,b7ac <__subdf3+0x486>
    b5aa:	85be                	mv	a1,a5
    b5ac:	03800793          	li	a5,56
    b5b0:	2ab7c263          	blt	a5,a1,b854 <__subdf3+0x52e>
    b5b4:	47fd                	li	a5,31
    b5b6:	3cb7c863          	blt	a5,a1,b986 <__subdf3+0x660>
    b5ba:	02000793          	li	a5,32
    b5be:	8f8d                	sub	a5,a5,a1
    b5c0:	00f31833          	sll	a6,t1,a5
    b5c4:	00bf5633          	srl	a2,t5,a1
    b5c8:	00ff17b3          	sll	a5,t5,a5
    b5cc:	00c86833          	or	a6,a6,a2
    b5d0:	00f039b3          	snez	s3,a5
    b5d4:	00b35333          	srl	t1,t1,a1
    b5d8:	01386833          	or	a6,a6,s3
    b5dc:	40670733          	sub	a4,a4,t1
    b5e0:	acb5                	j	b85c <__subdf3+0x536>
    b5e2:	01d767b3          	or	a5,a4,t4
    b5e6:	10078363          	beqz	a5,b6ec <__subdf3+0x3c6>
    b5ea:	fff58793          	addi	a5,a1,-1
    b5ee:	1e078f63          	beqz	a5,b7ec <__subdf3+0x4c6>
    b5f2:	2fc58063          	beq	a1,t3,b8d2 <__subdf3+0x5ac>
    b5f6:	85be                	mv	a1,a5
    b5f8:	b5d1                	j	b4bc <__subdf3+0x196>
    b5fa:	7ff00793          	li	a5,2047
    b5fe:	06f68b63          	beq	a3,a5,b674 <__subdf3+0x34e>
    b602:	9efa                	add	t4,t4,t5
    b604:	01eeb633          	sltu	a2,t4,t5
    b608:	00e307b3          	add	a5,t1,a4
    b60c:	97b2                	add	a5,a5,a2
    b60e:	01f79813          	slli	a6,a5,0x1f
    b612:	001ede93          	srli	t4,t4,0x1
    b616:	01d869b3          	or	s3,a6,t4
    b61a:	0017d613          	srli	a2,a5,0x1
    b61e:	84b6                	mv	s1,a3
    b620:	0079f793          	andi	a5,s3,7
    b624:	e0079fe3          	bnez	a5,b442 <__subdf3+0x11c>
    b628:	01d61793          	slli	a5,a2,0x1d
    b62c:	0039d813          	srli	a6,s3,0x3
    b630:	00f86833          	or	a6,a6,a5
    b634:	85a6                	mv	a1,s1
    b636:	00365793          	srli	a5,a2,0x3
    b63a:	7ff00713          	li	a4,2047
    b63e:	06e58063          	beq	a1,a4,b69e <__subdf3+0x378>
    b642:	07b2                	slli	a5,a5,0xc
    b644:	83b1                	srli	a5,a5,0xc
    b646:	7ff5f713          	andi	a4,a1,2047
    b64a:	8805                	andi	s0,s0,1
    b64c:	bd3d                	j	b48a <__subdf3+0x164>
    b64e:	01d76733          	or	a4,a4,t4
    b652:	00e03833          	snez	a6,a4
    b656:	01e809b3          	add	s3,a6,t5
    b65a:	01e9b7b3          	sltu	a5,s3,t5
    b65e:	00678633          	add	a2,a5,t1
    b662:	00861793          	slli	a5,a2,0x8
    b666:	fa07dde3          	bgez	a5,b620 <__subdf3+0x2fa>
    b66a:	0485                	addi	s1,s1,1
    b66c:	7ff00793          	li	a5,2047
    b670:	18f49c63          	bne	s1,a5,b808 <__subdf3+0x4e2>
    b674:	8805                	andi	s0,s0,1
    b676:	7ff00713          	li	a4,2047
    b67a:	4781                	li	a5,0
    b67c:	4801                	li	a6,0
    b67e:	b531                	j	b48a <__subdf3+0x164>
    b680:	10079163          	bnez	a5,b782 <__subdf3+0x45c>
    b684:	3c080163          	beqz	a6,ba46 <__subdf3+0x720>
    b688:	00361813          	slli	a6,a2,0x3
    b68c:	01d71793          	slli	a5,a4,0x1d
    b690:	00385813          	srli	a6,a6,0x3
    b694:	00f86833          	or	a6,a6,a5
    b698:	8436                	mv	s0,a3
    b69a:	00375793          	srli	a5,a4,0x3
    b69e:	00f867b3          	or	a5,a6,a5
    b6a2:	dbe9                	beqz	a5,b674 <__subdf3+0x34e>
    b6a4:	4401                	li	s0,0
    b6a6:	7ff00713          	li	a4,2047
    b6aa:	000807b7          	lui	a5,0x80
    b6ae:	4801                	li	a6,0
    b6b0:	bbe9                	j	b48a <__subdf3+0x164>
    b6b2:	ff800637          	lui	a2,0xff800
    b6b6:	167d                	addi	a2,a2,-1
    b6b8:	8e7d                	and	a2,a2,a5
    b6ba:	0079f793          	andi	a5,s3,7
    b6be:	8c99                	sub	s1,s1,a4
    b6c0:	d80791e3          	bnez	a5,b442 <__subdf3+0x11c>
    b6c4:	b795                	j	b628 <__subdf3+0x302>
    b6c6:	854e                	mv	a0,s3
    b6c8:	29b000ef          	jal	ra,c162 <__clzsi2>
    b6cc:	01850713          	addi	a4,a0,24
    b6d0:	47fd                	li	a5,31
    b6d2:	d2e7d2e3          	bge	a5,a4,b3f6 <__subdf3+0xd0>
    b6d6:	ff850613          	addi	a2,a0,-8
    b6da:	00c997b3          	sll	a5,s3,a2
    b6de:	4981                	li	s3,0
    b6e0:	b32d                	j	b40a <__subdf3+0xe4>
    b6e2:	01d76833          	or	a6,a4,t4
    b6e6:	01003833          	snez	a6,a6
    b6ea:	b1c5                	j	b3ca <__subdf3+0xa4>
    b6ec:	00351813          	slli	a6,a0,0x3
    b6f0:	01d31793          	slli	a5,t1,0x1d
    b6f4:	00385813          	srli	a6,a6,0x3
    b6f8:	00f86833          	or	a6,a6,a5
    b6fc:	00335793          	srli	a5,t1,0x3
    b700:	bf2d                	j	b63a <__subdf3+0x314>
    b702:	41df09b3          	sub	s3,t5,t4
    b706:	40e30933          	sub	s2,t1,a4
    b70a:	013f3633          	sltu	a2,t5,s3
    b70e:	40c90933          	sub	s2,s2,a2
    b712:	00891793          	slli	a5,s2,0x8
    b716:	2007ca63          	bltz	a5,b92a <__subdf3+0x604>
    b71a:	0129e833          	or	a6,s3,s2
    b71e:	cc0815e3          	bnez	a6,b3e8 <__subdf3+0xc2>
    b722:	4781                	li	a5,0
    b724:	4401                	li	s0,0
    b726:	bf31                	j	b642 <__subdf3+0x31c>
    b728:	409885b3          	sub	a1,a7,s1
    b72c:	14048163          	beqz	s1,b86e <__subdf3+0x548>
    b730:	008006b7          	lui	a3,0x800
    b734:	7ff00793          	li	a5,2047
    b738:	00d36333          	or	t1,t1,a3
    b73c:	20f88163          	beq	a7,a5,b93e <__subdf3+0x618>
    b740:	03800793          	li	a5,56
    b744:	22b7cc63          	blt	a5,a1,b97c <__subdf3+0x656>
    b748:	47fd                	li	a5,31
    b74a:	2cb7c963          	blt	a5,a1,ba1c <__subdf3+0x6f6>
    b74e:	02000793          	li	a5,32
    b752:	8f8d                	sub	a5,a5,a1
    b754:	00f31833          	sll	a6,t1,a5
    b758:	00bf56b3          	srl	a3,t5,a1
    b75c:	00ff17b3          	sll	a5,t5,a5
    b760:	00d86833          	or	a6,a6,a3
    b764:	00f039b3          	snez	s3,a5
    b768:	00b35333          	srl	t1,t1,a1
    b76c:	01386833          	or	a6,a6,s3
    b770:	971a                	add	a4,a4,t1
    b772:	01d809b3          	add	s3,a6,t4
    b776:	01d9b7b3          	sltu	a5,s3,t4
    b77a:	00e78633          	add	a2,a5,a4
    b77e:	84c6                	mv	s1,a7
    b780:	b5cd                	j	b662 <__subdf3+0x33c>
    b782:	f20811e3          	bnez	a6,b6a4 <__subdf3+0x37e>
    b786:	00351813          	slli	a6,a0,0x3
    b78a:	01d31793          	slli	a5,t1,0x1d
    b78e:	00385813          	srli	a6,a6,0x3
    b792:	00f86833          	or	a6,a6,a5
    b796:	00335793          	srli	a5,t1,0x3
    b79a:	b711                	j	b69e <__subdf3+0x378>
    b79c:	00800537          	lui	a0,0x800
    b7a0:	7ff00793          	li	a5,2047
    b7a4:	00a36333          	or	t1,t1,a0
    b7a8:	e0f892e3          	bne	a7,a5,b5ac <__subdf3+0x286>
    b7ac:	060e                	slli	a2,a2,0x3
    b7ae:	01d71813          	slli	a6,a4,0x1d
    b7b2:	820d                	srli	a2,a2,0x3
    b7b4:	00c86833          	or	a6,a6,a2
    b7b8:	00375793          	srli	a5,a4,0x3
    b7bc:	8436                	mv	s0,a3
    b7be:	b5c5                	j	b69e <__subdf3+0x378>
    b7c0:	1705                	addi	a4,a4,-31
    b7c2:	02000693          	li	a3,32
    b7c6:	00e7d733          	srl	a4,a5,a4
    b7ca:	00d60a63          	beq	a2,a3,b7de <__subdf3+0x4b8>
    b7ce:	04000693          	li	a3,64
    b7d2:	40c68633          	sub	a2,a3,a2
    b7d6:	00c79633          	sll	a2,a5,a2
    b7da:	00c9e9b3          	or	s3,s3,a2
    b7de:	01303833          	snez	a6,s3
    b7e2:	00e869b3          	or	s3,a6,a4
    b7e6:	4601                	li	a2,0
    b7e8:	4481                	li	s1,0
    b7ea:	bd1d                	j	b620 <__subdf3+0x2fa>
    b7ec:	01df09b3          	add	s3,t5,t4
    b7f0:	00e307b3          	add	a5,t1,a4
    b7f4:	01e9bf33          	sltu	t5,s3,t5
    b7f8:	01e78633          	add	a2,a5,t5
    b7fc:	00861793          	slli	a5,a2,0x8
    b800:	4485                	li	s1,1
    b802:	e007dfe3          	bgez	a5,b620 <__subdf3+0x2fa>
    b806:	4489                	li	s1,2
    b808:	ff8007b7          	lui	a5,0xff800
    b80c:	17fd                	addi	a5,a5,-1
    b80e:	8ff1                	and	a5,a5,a2
    b810:	0019d713          	srli	a4,s3,0x1
    b814:	0019f813          	andi	a6,s3,1
    b818:	01076833          	or	a6,a4,a6
    b81c:	01f79993          	slli	s3,a5,0x1f
    b820:	0109e9b3          	or	s3,s3,a6
    b824:	0017d613          	srli	a2,a5,0x1
    b828:	b911                	j	b43c <__subdf3+0x116>
    b82a:	fe058813          	addi	a6,a1,-32
    b82e:	02000793          	li	a5,32
    b832:	010759b3          	srl	s3,a4,a6
    b836:	00f58a63          	beq	a1,a5,b84a <__subdf3+0x524>
    b83a:	04000793          	li	a5,64
    b83e:	40b785b3          	sub	a1,a5,a1
    b842:	00b71733          	sll	a4,a4,a1
    b846:	00eeeeb3          	or	t4,t4,a4
    b84a:	01d03833          	snez	a6,t4
    b84e:	01386833          	or	a6,a6,s3
    b852:	bea5                	j	b3ca <__subdf3+0xa4>
    b854:	01e36333          	or	t1,t1,t5
    b858:	00603833          	snez	a6,t1
    b85c:	410e89b3          	sub	s3,t4,a6
    b860:	013eb7b3          	sltu	a5,t4,s3
    b864:	40f70633          	sub	a2,a4,a5
    b868:	84c6                	mv	s1,a7
    b86a:	8436                	mv	s0,a3
    b86c:	b6ad                	j	b3d6 <__subdf3+0xb0>
    b86e:	01e367b3          	or	a5,t1,t5
    b872:	18078763          	beqz	a5,ba00 <__subdf3+0x6da>
    b876:	fff58793          	addi	a5,a1,-1
    b87a:	1c078c63          	beqz	a5,ba52 <__subdf3+0x72c>
    b87e:	7ff00693          	li	a3,2047
    b882:	0ad58e63          	beq	a1,a3,b93e <__subdf3+0x618>
    b886:	85be                	mv	a1,a5
    b888:	bd65                	j	b740 <__subdf3+0x41a>
    b88a:	02000793          	li	a5,32
    b88e:	8f8d                	sub	a5,a5,a1
    b890:	00bed9b3          	srl	s3,t4,a1
    b894:	00f71833          	sll	a6,a4,a5
    b898:	00fe9eb3          	sll	t4,t4,a5
    b89c:	01386833          	or	a6,a6,s3
    b8a0:	00b75733          	srl	a4,a4,a1
    b8a4:	01d039b3          	snez	s3,t4
    b8a8:	01386833          	or	a6,a6,s3
    b8ac:	933a                	add	t1,t1,a4
    b8ae:	b365                	j	b656 <__subdf3+0x330>
    b8b0:	00361813          	slli	a6,a2,0x3
    b8b4:	01d71793          	slli	a5,a4,0x1d
    b8b8:	00385813          	srli	a6,a6,0x3
    b8bc:	0107e833          	or	a6,a5,a6
    b8c0:	8436                	mv	s0,a3
    b8c2:	00375793          	srli	a5,a4,0x3
    b8c6:	bb95                	j	b63a <__subdf3+0x314>
    b8c8:	cbbd                	beqz	a5,b93e <__subdf3+0x618>
    b8ca:	01d76733          	or	a4,a4,t4
    b8ce:	dc071be3          	bnez	a4,b6a4 <__subdf3+0x37e>
    b8d2:	050e                	slli	a0,a0,0x3
    b8d4:	01d31813          	slli	a6,t1,0x1d
    b8d8:	810d                	srli	a0,a0,0x3
    b8da:	00a86833          	or	a6,a6,a0
    b8de:	00335793          	srli	a5,t1,0x3
    b8e2:	bb75                	j	b69e <__subdf3+0x378>
    b8e4:	e2080fe3          	beqz	a6,b722 <__subdf3+0x3fc>
    b8e8:	00361813          	slli	a6,a2,0x3
    b8ec:	01d71793          	slli	a5,a4,0x1d
    b8f0:	00385813          	srli	a6,a6,0x3
    b8f4:	00f86833          	or	a6,a6,a5
    b8f8:	8436                	mv	s0,a3
    b8fa:	00375793          	srli	a5,a4,0x3
    b8fe:	b391                	j	b642 <__subdf3+0x31c>
    b900:	41df09b3          	sub	s3,t5,t4
    b904:	40e307b3          	sub	a5,t1,a4
    b908:	013f3f33          	sltu	t5,t5,s3
    b90c:	41e78633          	sub	a2,a5,t5
    b910:	4485                	li	s1,1
    b912:	b4d1                	j	b3d6 <__subdf3+0xb0>
    b914:	00351813          	slli	a6,a0,0x3
    b918:	01d31693          	slli	a3,t1,0x1d
    b91c:	00385813          	srli	a6,a6,0x3
    b920:	0106e833          	or	a6,a3,a6
    b924:	00335793          	srli	a5,t1,0x3
    b928:	bb9d                	j	b69e <__subdf3+0x378>
    b92a:	41ee89b3          	sub	s3,t4,t5
    b92e:	40670633          	sub	a2,a4,t1
    b932:	013eb933          	sltu	s2,t4,s3
    b936:	41260933          	sub	s2,a2,s2
    b93a:	8436                	mv	s0,a3
    b93c:	b475                	j	b3e8 <__subdf3+0xc2>
    b93e:	060e                	slli	a2,a2,0x3
    b940:	01d71813          	slli	a6,a4,0x1d
    b944:	820d                	srli	a2,a2,0x3
    b946:	00c86833          	or	a6,a6,a2
    b94a:	00375793          	srli	a5,a4,0x3
    b94e:	bb81                	j	b69e <__subdf3+0x378>
    b950:	41df09b3          	sub	s3,t5,t4
    b954:	40e307b3          	sub	a5,t1,a4
    b958:	013f3633          	sltu	a2,t5,s3
    b95c:	40c78633          	sub	a2,a5,a2
    b960:	00861793          	slli	a5,a2,0x8
    b964:	0a07d763          	bgez	a5,ba12 <__subdf3+0x6ec>
    b968:	41ee89b3          	sub	s3,t4,t5
    b96c:	406707b3          	sub	a5,a4,t1
    b970:	013ebeb3          	sltu	t4,t4,s3
    b974:	41d78633          	sub	a2,a5,t4
    b978:	8436                	mv	s0,a3
    b97a:	b4c9                	j	b43c <__subdf3+0x116>
    b97c:	01e36333          	or	t1,t1,t5
    b980:	00603833          	snez	a6,t1
    b984:	b3fd                	j	b772 <__subdf3+0x44c>
    b986:	fe058813          	addi	a6,a1,-32
    b98a:	02000793          	li	a5,32
    b98e:	010359b3          	srl	s3,t1,a6
    b992:	00f58a63          	beq	a1,a5,b9a6 <__subdf3+0x680>
    b996:	04000793          	li	a5,64
    b99a:	40b785b3          	sub	a1,a5,a1
    b99e:	00b31333          	sll	t1,t1,a1
    b9a2:	006f6f33          	or	t5,t5,t1
    b9a6:	01e03833          	snez	a6,t5
    b9aa:	01386833          	or	a6,a6,s3
    b9ae:	b57d                	j	b85c <__subdf3+0x536>
    b9b0:	41ee89b3          	sub	s3,t4,t5
    b9b4:	406707b3          	sub	a5,a4,t1
    b9b8:	013ebeb3          	sltu	t4,t4,s3
    b9bc:	41d78633          	sub	a2,a5,t4
    b9c0:	8436                	mv	s0,a3
    b9c2:	4485                	li	s1,1
    b9c4:	bc09                	j	b3d6 <__subdf3+0xb0>
    b9c6:	00361813          	slli	a6,a2,0x3
    b9ca:	01d71793          	slli	a5,a4,0x1d
    b9ce:	00385813          	srli	a6,a6,0x3
    b9d2:	00f86833          	or	a6,a6,a5
    b9d6:	00375793          	srli	a5,a4,0x3
    b9da:	b1a5                	j	b642 <__subdf3+0x31c>
    b9dc:	01df09b3          	add	s3,t5,t4
    b9e0:	00e307b3          	add	a5,t1,a4
    b9e4:	01e9bf33          	sltu	t5,s3,t5
    b9e8:	01e78633          	add	a2,a5,t5
    b9ec:	00861793          	slli	a5,a2,0x8
    b9f0:	c207d8e3          	bgez	a5,b620 <__subdf3+0x2fa>
    b9f4:	ff8007b7          	lui	a5,0xff800
    b9f8:	17fd                	addi	a5,a5,-1
    b9fa:	8e7d                	and	a2,a2,a5
    b9fc:	4485                	li	s1,1
    b9fe:	b10d                	j	b620 <__subdf3+0x2fa>
    ba00:	060e                	slli	a2,a2,0x3
    ba02:	01d71813          	slli	a6,a4,0x1d
    ba06:	820d                	srli	a2,a2,0x3
    ba08:	00c86833          	or	a6,a6,a2
    ba0c:	00375793          	srli	a5,a4,0x3
    ba10:	b12d                	j	b63a <__subdf3+0x314>
    ba12:	00c9e833          	or	a6,s3,a2
    ba16:	d00806e3          	beqz	a6,b722 <__subdf3+0x3fc>
    ba1a:	b119                	j	b620 <__subdf3+0x2fa>
    ba1c:	fe058813          	addi	a6,a1,-32
    ba20:	02000793          	li	a5,32
    ba24:	010359b3          	srl	s3,t1,a6
    ba28:	00f58a63          	beq	a1,a5,ba3c <__subdf3+0x716>
    ba2c:	04000793          	li	a5,64
    ba30:	40b785b3          	sub	a1,a5,a1
    ba34:	00b31333          	sll	t1,t1,a1
    ba38:	006f6f33          	or	t5,t5,t1
    ba3c:	01e03833          	snez	a6,t5
    ba40:	01386833          	or	a6,a6,s3
    ba44:	b33d                	j	b772 <__subdf3+0x44c>
    ba46:	4401                	li	s0,0
    ba48:	7ff00713          	li	a4,2047
    ba4c:	000807b7          	lui	a5,0x80
    ba50:	bc2d                	j	b48a <__subdf3+0x164>
    ba52:	01df09b3          	add	s3,t5,t4
    ba56:	00e307b3          	add	a5,t1,a4
    ba5a:	01d9beb3          	sltu	t4,s3,t4
    ba5e:	01d78633          	add	a2,a5,t4
    ba62:	bb69                	j	b7fc <__subdf3+0x4d6>

0000ba64 <__unorddf2>:
    ba64:	0145d713          	srli	a4,a1,0x14
    ba68:	001007b7          	lui	a5,0x100
    ba6c:	17fd                	addi	a5,a5,-1
    ba6e:	fff74713          	not	a4,a4
    ba72:	0146d813          	srli	a6,a3,0x14
    ba76:	8dfd                	and	a1,a1,a5
    ba78:	8ff5                	and	a5,a5,a3
    ba7a:	01571693          	slli	a3,a4,0x15
    ba7e:	7ff87813          	andi	a6,a6,2047
    ba82:	ca99                	beqz	a3,ba98 <__unorddf2+0x34>
    ba84:	7ff00713          	li	a4,2047
    ba88:	4501                	li	a0,0
    ba8a:	00e80363          	beq	a6,a4,ba90 <__unorddf2+0x2c>
    ba8e:	8082                	ret
    ba90:	8fd1                	or	a5,a5,a2
    ba92:	00f03533          	snez	a0,a5
    ba96:	8082                	ret
    ba98:	8dc9                	or	a1,a1,a0
    ba9a:	4505                	li	a0,1
    ba9c:	d5e5                	beqz	a1,ba84 <__unorddf2+0x20>
    ba9e:	8082                	ret

0000baa0 <__fixdfsi>:
    baa0:	0145d793          	srli	a5,a1,0x14
    baa4:	001006b7          	lui	a3,0x100
    baa8:	fff68713          	addi	a4,a3,-1 # fffff <_data_lma+0xf28ef>
    baac:	7ff7f793          	andi	a5,a5,2047
    bab0:	3fe00613          	li	a2,1022
    bab4:	8f6d                	and	a4,a4,a1
    bab6:	81fd                	srli	a1,a1,0x1f
    bab8:	00f65c63          	bge	a2,a5,bad0 <__fixdfsi+0x30>
    babc:	41d00613          	li	a2,1053
    bac0:	00f65a63          	bge	a2,a5,bad4 <__fixdfsi+0x34>
    bac4:	80000537          	lui	a0,0x80000
    bac8:	fff54513          	not	a0,a0
    bacc:	952e                	add	a0,a0,a1
    bace:	8082                	ret
    bad0:	4501                	li	a0,0
    bad2:	8082                	ret
    bad4:	43300613          	li	a2,1075
    bad8:	8e1d                	sub	a2,a2,a5
    bada:	487d                	li	a6,31
    badc:	8f55                	or	a4,a4,a3
    bade:	00c85d63          	bge	a6,a2,baf8 <__fixdfsi+0x58>
    bae2:	41300693          	li	a3,1043
    bae6:	40f687b3          	sub	a5,a3,a5
    baea:	00f757b3          	srl	a5,a4,a5
    baee:	40f00533          	neg	a0,a5
    baf2:	f1e5                	bnez	a1,bad2 <__fixdfsi+0x32>
    baf4:	853e                	mv	a0,a5
    baf6:	8082                	ret
    baf8:	bed78793          	addi	a5,a5,-1043 # ffbed <_data_lma+0xf24dd>
    bafc:	00f717b3          	sll	a5,a4,a5
    bb00:	00c55533          	srl	a0,a0,a2
    bb04:	8fc9                	or	a5,a5,a0
    bb06:	b7e5                	j	baee <__fixdfsi+0x4e>

0000bb08 <__fixunsdfsi>:
    bb08:	0145d793          	srli	a5,a1,0x14
    bb0c:	001006b7          	lui	a3,0x100
    bb10:	fff68713          	addi	a4,a3,-1 # fffff <_data_lma+0xf28ef>
    bb14:	7ff7f793          	andi	a5,a5,2047
    bb18:	3fe00613          	li	a2,1022
    bb1c:	882a                	mv	a6,a0
    bb1e:	8f6d                	and	a4,a4,a1
    bb20:	4501                	li	a0,0
    bb22:	81fd                	srli	a1,a1,0x1f
    bb24:	00f65463          	bge	a2,a5,bb2c <__fixunsdfsi+0x24>
    bb28:	c199                	beqz	a1,bb2e <__fixunsdfsi+0x26>
    bb2a:	8082                	ret
    bb2c:	8082                	ret
    bb2e:	41e00613          	li	a2,1054
    bb32:	557d                	li	a0,-1
    bb34:	fef64be3          	blt	a2,a5,bb2a <__fixunsdfsi+0x22>
    bb38:	43300513          	li	a0,1075
    bb3c:	8d1d                	sub	a0,a0,a5
    bb3e:	467d                	li	a2,31
    bb40:	8f55                	or	a4,a4,a3
    bb42:	00a64a63          	blt	a2,a0,bb56 <__fixunsdfsi+0x4e>
    bb46:	bed78793          	addi	a5,a5,-1043
    bb4a:	00f71733          	sll	a4,a4,a5
    bb4e:	00a85533          	srl	a0,a6,a0
    bb52:	8d59                	or	a0,a0,a4
    bb54:	8082                	ret
    bb56:	41300513          	li	a0,1043
    bb5a:	40f507b3          	sub	a5,a0,a5
    bb5e:	00f75533          	srl	a0,a4,a5
    bb62:	8082                	ret

0000bb64 <__floatsidf>:
    bb64:	1141                	addi	sp,sp,-16
    bb66:	c606                	sw	ra,12(sp)
    bb68:	c422                	sw	s0,8(sp)
    bb6a:	c226                	sw	s1,4(sp)
    bb6c:	cd05                	beqz	a0,bba4 <__floatsidf+0x40>
    bb6e:	41f55793          	srai	a5,a0,0x1f
    bb72:	00a7c4b3          	xor	s1,a5,a0
    bb76:	8c9d                	sub	s1,s1,a5
    bb78:	842a                	mv	s0,a0
    bb7a:	8526                	mv	a0,s1
    bb7c:	23dd                	jal	c162 <__clzsi2>
    bb7e:	41e00693          	li	a3,1054
    bb82:	8e89                	sub	a3,a3,a0
    bb84:	47a9                	li	a5,10
    bb86:	807d                	srli	s0,s0,0x1f
    bb88:	7ff6f693          	andi	a3,a3,2047
    bb8c:	02a7cd63          	blt	a5,a0,bbc6 <__floatsidf+0x62>
    bb90:	472d                	li	a4,11
    bb92:	8f09                	sub	a4,a4,a0
    bb94:	00e4d7b3          	srl	a5,s1,a4
    bb98:	0555                	addi	a0,a0,21
    bb9a:	07b2                	slli	a5,a5,0xc
    bb9c:	00a494b3          	sll	s1,s1,a0
    bba0:	83b1                	srli	a5,a5,0xc
    bba2:	a029                	j	bbac <__floatsidf+0x48>
    bba4:	4401                	li	s0,0
    bba6:	4681                	li	a3,0
    bba8:	4781                	li	a5,0
    bbaa:	4481                	li	s1,0
    bbac:	07b2                	slli	a5,a5,0xc
    bbae:	06d2                	slli	a3,a3,0x14
    bbb0:	83b1                	srli	a5,a5,0xc
    bbb2:	047e                	slli	s0,s0,0x1f
    bbb4:	8fd5                	or	a5,a5,a3
    bbb6:	8fc1                	or	a5,a5,s0
    bbb8:	40b2                	lw	ra,12(sp)
    bbba:	4422                	lw	s0,8(sp)
    bbbc:	8526                	mv	a0,s1
    bbbe:	85be                	mv	a1,a5
    bbc0:	4492                	lw	s1,4(sp)
    bbc2:	0141                	addi	sp,sp,16
    bbc4:	8082                	ret
    bbc6:	1555                	addi	a0,a0,-11
    bbc8:	00a497b3          	sll	a5,s1,a0
    bbcc:	07b2                	slli	a5,a5,0xc
    bbce:	83b1                	srli	a5,a5,0xc
    bbd0:	4481                	li	s1,0
    bbd2:	bfe9                	j	bbac <__floatsidf+0x48>

0000bbd4 <__floatunsidf>:
    bbd4:	cd15                	beqz	a0,bc10 <__floatunsidf+0x3c>
    bbd6:	1141                	addi	sp,sp,-16
    bbd8:	c422                	sw	s0,8(sp)
    bbda:	c606                	sw	ra,12(sp)
    bbdc:	842a                	mv	s0,a0
    bbde:	2351                	jal	c162 <__clzsi2>
    bbe0:	41e00693          	li	a3,1054
    bbe4:	8e89                	sub	a3,a3,a0
    bbe6:	47a9                	li	a5,10
    bbe8:	7ff6f693          	andi	a3,a3,2047
    bbec:	02a7dc63          	bge	a5,a0,bc24 <__floatunsidf+0x50>
    bbf0:	1555                	addi	a0,a0,-11
    bbf2:	00a417b3          	sll	a5,s0,a0
    bbf6:	07b2                	slli	a5,a5,0xc
    bbf8:	83b1                	srli	a5,a5,0xc
    bbfa:	4701                	li	a4,0
    bbfc:	40b2                	lw	ra,12(sp)
    bbfe:	4422                	lw	s0,8(sp)
    bc00:	07b2                	slli	a5,a5,0xc
    bc02:	06d2                	slli	a3,a3,0x14
    bc04:	83b1                	srli	a5,a5,0xc
    bc06:	8fd5                	or	a5,a5,a3
    bc08:	853a                	mv	a0,a4
    bc0a:	85be                	mv	a1,a5
    bc0c:	0141                	addi	sp,sp,16
    bc0e:	8082                	ret
    bc10:	4781                	li	a5,0
    bc12:	4681                	li	a3,0
    bc14:	07b2                	slli	a5,a5,0xc
    bc16:	06d2                	slli	a3,a3,0x14
    bc18:	83b1                	srli	a5,a5,0xc
    bc1a:	4701                	li	a4,0
    bc1c:	8fd5                	or	a5,a5,a3
    bc1e:	853a                	mv	a0,a4
    bc20:	85be                	mv	a1,a5
    bc22:	8082                	ret
    bc24:	472d                	li	a4,11
    bc26:	8f09                	sub	a4,a4,a0
    bc28:	00e457b3          	srl	a5,s0,a4
    bc2c:	07b2                	slli	a5,a5,0xc
    bc2e:	01550713          	addi	a4,a0,21 # 80000015 <_eusrstack+0x5fff8015>
    bc32:	00e41733          	sll	a4,s0,a4
    bc36:	83b1                	srli	a5,a5,0xc
    bc38:	b7d1                	j	bbfc <__floatunsidf+0x28>

0000bc3a <__extenddftf2>:
    bc3a:	01465793          	srli	a5,a2,0x14
    bc3e:	00c61713          	slli	a4,a2,0xc
    bc42:	7ff7f793          	andi	a5,a5,2047
    bc46:	7179                	addi	sp,sp,-48
    bc48:	8331                	srli	a4,a4,0xc
    bc4a:	00178693          	addi	a3,a5,1
    bc4e:	d422                	sw	s0,40(sp)
    bc50:	d226                	sw	s1,36(sp)
    bc52:	d606                	sw	ra,44(sp)
    bc54:	d04a                	sw	s2,32(sp)
    bc56:	c82e                	sw	a1,16(sp)
    bc58:	ca3a                	sw	a4,20(sp)
    bc5a:	ce02                	sw	zero,28(sp)
    bc5c:	cc02                	sw	zero,24(sp)
    bc5e:	7fe6f693          	andi	a3,a3,2046
    bc62:	842a                	mv	s0,a0
    bc64:	01f65493          	srli	s1,a2,0x1f
    bc68:	cea1                	beqz	a3,bcc0 <__extenddftf2+0x86>
    bc6a:	6691                	lui	a3,0x4
    bc6c:	c0068693          	addi	a3,a3,-1024 # 3c00 <st_find_item+0x1e0>
    bc70:	97b6                	add	a5,a5,a3
    bc72:	0045d613          	srli	a2,a1,0x4
    bc76:	01c71693          	slli	a3,a4,0x1c
    bc7a:	07c6                	slli	a5,a5,0x11
    bc7c:	8ed1                	or	a3,a3,a2
    bc7e:	01c59513          	slli	a0,a1,0x1c
    bc82:	8311                	srli	a4,a4,0x4
    bc84:	83c5                	srli	a5,a5,0x11
    bc86:	4801                	li	a6,0
    bc88:	00e11623          	sh	a4,12(sp)
    bc8c:	4732                	lw	a4,12(sp)
    bc8e:	07c6                	slli	a5,a5,0x11
    bc90:	800105b7          	lui	a1,0x80010
    bc94:	83c5                	srli	a5,a5,0x11
    bc96:	15fd                	addi	a1,a1,-1
    bc98:	07c2                	slli	a5,a5,0x10
    bc9a:	8f6d                	and	a4,a4,a1
    bc9c:	8fd9                	or	a5,a5,a4
    bc9e:	0786                	slli	a5,a5,0x1
    bca0:	01f49613          	slli	a2,s1,0x1f
    bca4:	8385                	srli	a5,a5,0x1
    bca6:	8fd1                	or	a5,a5,a2
    bca8:	c048                	sw	a0,4(s0)
    bcaa:	01042023          	sw	a6,0(s0) # 80000 <_data_lma+0x728f0>
    bcae:	c414                	sw	a3,8(s0)
    bcb0:	c45c                	sw	a5,12(s0)
    bcb2:	8522                	mv	a0,s0
    bcb4:	50b2                	lw	ra,44(sp)
    bcb6:	5422                	lw	s0,40(sp)
    bcb8:	5492                	lw	s1,36(sp)
    bcba:	5902                	lw	s2,32(sp)
    bcbc:	6145                	addi	sp,sp,48
    bcbe:	8082                	ret
    bcc0:	00b76533          	or	a0,a4,a1
    bcc4:	e7bd                	bnez	a5,bd32 <__extenddftf2+0xf8>
    bcc6:	cd51                	beqz	a0,bd62 <__extenddftf2+0x128>
    bcc8:	c355                	beqz	a4,bd6c <__extenddftf2+0x132>
    bcca:	853a                	mv	a0,a4
    bccc:	2959                	jal	c162 <__clzsi2>
    bcce:	03150713          	addi	a4,a0,49
    bcd2:	01f77813          	andi	a6,a4,31
    bcd6:	8715                	srai	a4,a4,0x5
    bcd8:	0a081d63          	bnez	a6,bd92 <__extenddftf2+0x158>
    bcdc:	0810                	addi	a2,sp,16
    bcde:	00271693          	slli	a3,a4,0x2
    bce2:	40d606b3          	sub	a3,a2,a3
    bce6:	888a                	mv	a7,sp
    bce8:	00271813          	slli	a6,a4,0x2
    bcec:	46cc                	lw	a1,12(a3)
    bcee:	010687b3          	add	a5,a3,a6
    bcf2:	16f1                	addi	a3,a3,-4
    bcf4:	c7cc                	sw	a1,12(a5)
    bcf6:	fed89be3          	bne	a7,a3,bcec <__extenddftf2+0xb2>
    bcfa:	177d                	addi	a4,a4,-1
    bcfc:	070a                	slli	a4,a4,0x2
    bcfe:	9732                	add	a4,a4,a2
    bd00:	00072023          	sw	zero,0(a4)
    bd04:	ffc70693          	addi	a3,a4,-4
    bd08:	00e60963          	beq	a2,a4,bd1a <__extenddftf2+0xe0>
    bd0c:	8736                	mv	a4,a3
    bd0e:	00072023          	sw	zero,0(a4)
    bd12:	ffc70693          	addi	a3,a4,-4
    bd16:	fee61be3          	bne	a2,a4,bd0c <__extenddftf2+0xd2>
    bd1a:	6791                	lui	a5,0x4
    bd1c:	c0c78793          	addi	a5,a5,-1012 # 3c0c <st_find_item+0x1ec>
    bd20:	8f89                	sub	a5,a5,a0
    bd22:	07c6                	slli	a5,a5,0x11
    bd24:	4842                	lw	a6,16(sp)
    bd26:	4552                	lw	a0,20(sp)
    bd28:	46e2                	lw	a3,24(sp)
    bd2a:	01c15703          	lhu	a4,28(sp)
    bd2e:	83c5                	srli	a5,a5,0x11
    bd30:	bfa1                	j	bc88 <__extenddftf2+0x4e>
    bd32:	c115                	beqz	a0,bd56 <__extenddftf2+0x11c>
    bd34:	67a1                	lui	a5,0x8
    bd36:	00475513          	srli	a0,a4,0x4
    bd3a:	01c71693          	slli	a3,a4,0x1c
    bd3e:	00f56733          	or	a4,a0,a5
    bd42:	0045d613          	srli	a2,a1,0x4
    bd46:	0742                	slli	a4,a4,0x10
    bd48:	8ed1                	or	a3,a3,a2
    bd4a:	01c59513          	slli	a0,a1,0x1c
    bd4e:	8341                	srli	a4,a4,0x10
    bd50:	17fd                	addi	a5,a5,-1
    bd52:	4801                	li	a6,0
    bd54:	bf15                	j	bc88 <__extenddftf2+0x4e>
    bd56:	67a1                	lui	a5,0x8
    bd58:	4681                	li	a3,0
    bd5a:	17fd                	addi	a5,a5,-1
    bd5c:	4701                	li	a4,0
    bd5e:	4801                	li	a6,0
    bd60:	b725                	j	bc88 <__extenddftf2+0x4e>
    bd62:	4681                	li	a3,0
    bd64:	4781                	li	a5,0
    bd66:	4701                	li	a4,0
    bd68:	4801                	li	a6,0
    bd6a:	bf39                	j	bc88 <__extenddftf2+0x4e>
    bd6c:	852e                	mv	a0,a1
    bd6e:	892e                	mv	s2,a1
    bd70:	2ecd                	jal	c162 <__clzsi2>
    bd72:	05150713          	addi	a4,a0,81
    bd76:	01f77813          	andi	a6,a4,31
    bd7a:	02050513          	addi	a0,a0,32
    bd7e:	8715                	srai	a4,a4,0x5
    bd80:	f4080ee3          	beqz	a6,bcdc <__extenddftf2+0xa2>
    bd84:	4789                	li	a5,2
    bd86:	00f70663          	beq	a4,a5,bd92 <__extenddftf2+0x158>
    bd8a:	4709                	li	a4,2
    bd8c:	0810                	addi	a2,sp,16
    bd8e:	48b1                	li	a7,12
    bd90:	a835                	j	bdcc <__extenddftf2+0x192>
    bd92:	40e006b3          	neg	a3,a4
    bd96:	068a                	slli	a3,a3,0x2
    bd98:	0810                	addi	a2,sp,16
    bd9a:	06b1                	addi	a3,a3,12
    bd9c:	02000e13          	li	t3,32
    bda0:	96b2                	add	a3,a3,a2
    bda2:	00271893          	slli	a7,a4,0x2
    bda6:	410e0e33          	sub	t3,t3,a6
    bdaa:	ffc6a583          	lw	a1,-4(a3)
    bdae:	429c                	lw	a5,0(a3)
    bdb0:	01168333          	add	t1,a3,a7
    bdb4:	01c5d5b3          	srl	a1,a1,t3
    bdb8:	010797b3          	sll	a5,a5,a6
    bdbc:	8ddd                	or	a1,a1,a5
    bdbe:	00b32023          	sw	a1,0(t1)
    bdc2:	16f1                	addi	a3,a3,-4
    bdc4:	fed613e3          	bne	a2,a3,bdaa <__extenddftf2+0x170>
    bdc8:	4942                	lw	s2,16(sp)
    bdca:	177d                	addi	a4,a4,-1
    bdcc:	101c                	addi	a5,sp,32
    bdce:	98be                	add	a7,a7,a5
    bdd0:	01091933          	sll	s2,s2,a6
    bdd4:	ff28a823          	sw	s2,-16(a7)
    bdd8:	b715                	j	bcfc <__extenddftf2+0xc2>

0000bdda <__truncdfsf2>:
    bdda:	0145d693          	srli	a3,a1,0x14
    bdde:	00c59793          	slli	a5,a1,0xc
    bde2:	7ff6f693          	andi	a3,a3,2047
    bde6:	83b1                	srli	a5,a5,0xc
    bde8:	00168613          	addi	a2,a3,1
    bdec:	078e                	slli	a5,a5,0x3
    bdee:	01d55713          	srli	a4,a0,0x1d
    bdf2:	7fe67613          	andi	a2,a2,2046
    bdf6:	81fd                	srli	a1,a1,0x1f
    bdf8:	8f5d                	or	a4,a4,a5
    bdfa:	00351893          	slli	a7,a0,0x3
    bdfe:	ce35                	beqz	a2,be7a <__truncdfsf2+0xa0>
    be00:	c8068813          	addi	a6,a3,-896
    be04:	0fe00793          	li	a5,254
    be08:	0107dd63          	bge	a5,a6,be22 <__truncdfsf2+0x48>
    be0c:	4781                	li	a5,0
    be0e:	00979513          	slli	a0,a5,0x9
    be12:	0ff00693          	li	a3,255
    be16:	06de                	slli	a3,a3,0x17
    be18:	8125                	srli	a0,a0,0x9
    be1a:	05fe                	slli	a1,a1,0x1f
    be1c:	8d55                	or	a0,a0,a3
    be1e:	8d4d                	or	a0,a0,a1
    be20:	8082                	ret
    be22:	0b005563          	blez	a6,becc <__truncdfsf2+0xf2>
    be26:	00651793          	slli	a5,a0,0x6
    be2a:	070e                	slli	a4,a4,0x3
    be2c:	00f037b3          	snez	a5,a5
    be30:	8fd9                	or	a5,a5,a4
    be32:	01d8d893          	srli	a7,a7,0x1d
    be36:	0117e7b3          	or	a5,a5,a7
    be3a:	0077f713          	andi	a4,a5,7
    be3e:	10070163          	beqz	a4,bf40 <__truncdfsf2+0x166>
    be42:	00f7f713          	andi	a4,a5,15
    be46:	4691                	li	a3,4
    be48:	00d70363          	beq	a4,a3,be4e <__truncdfsf2+0x74>
    be4c:	0791                	addi	a5,a5,4
    be4e:	04000737          	lui	a4,0x4000
    be52:	8f7d                	and	a4,a4,a5
    be54:	c775                	beqz	a4,bf40 <__truncdfsf2+0x166>
    be56:	00180713          	addi	a4,a6,1
    be5a:	0ff00613          	li	a2,255
    be5e:	0ff77693          	andi	a3,a4,255
    be62:	fac705e3          	beq	a4,a2,be0c <__truncdfsf2+0x32>
    be66:	079a                	slli	a5,a5,0x6
    be68:	83a5                	srli	a5,a5,0x9
    be6a:	00979513          	slli	a0,a5,0x9
    be6e:	06de                	slli	a3,a3,0x17
    be70:	8125                	srli	a0,a0,0x9
    be72:	05fe                	slli	a1,a1,0x1f
    be74:	8d55                	or	a0,a0,a3
    be76:	8d4d                	or	a0,a0,a1
    be78:	8082                	ret
    be7a:	011767b3          	or	a5,a4,a7
    be7e:	ee99                	bnez	a3,be9c <__truncdfsf2+0xc2>
    be80:	cf85                	beqz	a5,beb8 <__truncdfsf2+0xde>
    be82:	4795                	li	a5,5
    be84:	079a                	slli	a5,a5,0x6
    be86:	83a5                	srli	a5,a5,0x9
    be88:	00979513          	slli	a0,a5,0x9
    be8c:	0ff6f693          	andi	a3,a3,255
    be90:	06de                	slli	a3,a3,0x17
    be92:	8125                	srli	a0,a0,0x9
    be94:	05fe                	slli	a1,a1,0x1f
    be96:	8d55                	or	a0,a0,a3
    be98:	8d4d                	or	a0,a0,a1
    be9a:	8082                	ret
    be9c:	dba5                	beqz	a5,be0c <__truncdfsf2+0x32>
    be9e:	004007b7          	lui	a5,0x400
    bea2:	00979513          	slli	a0,a5,0x9
    bea6:	0ff00693          	li	a3,255
    beaa:	06de                	slli	a3,a3,0x17
    beac:	4581                	li	a1,0
    beae:	8125                	srli	a0,a0,0x9
    beb0:	05fe                	slli	a1,a1,0x1f
    beb2:	8d55                	or	a0,a0,a3
    beb4:	8d4d                	or	a0,a0,a1
    beb6:	8082                	ret
    beb8:	4781                	li	a5,0
    beba:	00979513          	slli	a0,a5,0x9
    bebe:	4681                	li	a3,0
    bec0:	06de                	slli	a3,a3,0x17
    bec2:	8125                	srli	a0,a0,0x9
    bec4:	05fe                	slli	a1,a1,0x1f
    bec6:	8d55                	or	a0,a0,a3
    bec8:	8d4d                	or	a0,a0,a1
    beca:	8082                	ret
    becc:	57a5                	li	a5,-23
    bece:	04f84863          	blt	a6,a5,bf1e <__truncdfsf2+0x144>
    bed2:	47f9                	li	a5,30
    bed4:	00800637          	lui	a2,0x800
    bed8:	410787b3          	sub	a5,a5,a6
    bedc:	457d                	li	a0,31
    bede:	8e59                	or	a2,a2,a4
    bee0:	04f55163          	bge	a0,a5,bf22 <__truncdfsf2+0x148>
    bee4:	5779                	li	a4,-2
    bee6:	41070733          	sub	a4,a4,a6
    beea:	02000513          	li	a0,32
    beee:	00e65733          	srl	a4,a2,a4
    bef2:	00a78863          	beq	a5,a0,bf02 <__truncdfsf2+0x128>
    bef6:	ca268693          	addi	a3,a3,-862
    befa:	00d616b3          	sll	a3,a2,a3
    befe:	00d8e8b3          	or	a7,a7,a3
    bf02:	011037b3          	snez	a5,a7
    bf06:	8fd9                	or	a5,a5,a4
    bf08:	0077f713          	andi	a4,a5,7
    bf0c:	4801                	li	a6,0
    bf0e:	fb15                	bnez	a4,be42 <__truncdfsf2+0x68>
    bf10:	00579713          	slli	a4,a5,0x5
    bf14:	4685                	li	a3,1
    bf16:	f40748e3          	bltz	a4,be66 <__truncdfsf2+0x8c>
    bf1a:	4681                	li	a3,0
    bf1c:	b7a5                	j	be84 <__truncdfsf2+0xaa>
    bf1e:	4681                	li	a3,0
    bf20:	b78d                	j	be82 <__truncdfsf2+0xa8>
    bf22:	c8268693          	addi	a3,a3,-894
    bf26:	00d89733          	sll	a4,a7,a3
    bf2a:	00e03733          	snez	a4,a4
    bf2e:	00d616b3          	sll	a3,a2,a3
    bf32:	00f8d8b3          	srl	a7,a7,a5
    bf36:	00d767b3          	or	a5,a4,a3
    bf3a:	00f8e7b3          	or	a5,a7,a5
    bf3e:	b7e9                	j	bf08 <__truncdfsf2+0x12e>
    bf40:	86c2                	mv	a3,a6
    bf42:	b789                	j	be84 <__truncdfsf2+0xaa>

0000bf44 <__trunctfdf2>:
    bf44:	00c52803          	lw	a6,12(a0)
    bf48:	4118                	lw	a4,0(a0)
    bf4a:	4154                	lw	a3,4(a0)
    bf4c:	450c                	lw	a1,8(a0)
    bf4e:	6521                	lui	a0,0x8
    bf50:	fff50793          	addi	a5,a0,-1 # 7fff <_dtoa_r+0xb65>
    bf54:	01085613          	srli	a2,a6,0x10
    bf58:	00359e13          	slli	t3,a1,0x3
    bf5c:	8e7d                	and	a2,a2,a5
    bf5e:	01d75893          	srli	a7,a4,0x1d
    bf62:	01d6d793          	srli	a5,a3,0x1d
    bf66:	01081313          	slli	t1,a6,0x10
    bf6a:	068e                	slli	a3,a3,0x3
    bf6c:	1141                	addi	sp,sp,-16
    bf6e:	01c7e7b3          	or	a5,a5,t3
    bf72:	0116e6b3          	or	a3,a3,a7
    bf76:	01035313          	srli	t1,t1,0x10
    bf7a:	00371e13          	slli	t3,a4,0x3
    bf7e:	00160893          	addi	a7,a2,1 # 800001 <_data_lma+0x7f28f1>
    bf82:	1579                	addi	a0,a0,-2
    bf84:	81f5                	srli	a1,a1,0x1d
    bf86:	030e                	slli	t1,t1,0x3
    bf88:	c43e                	sw	a5,8(sp)
    bf8a:	c236                	sw	a3,4(sp)
    bf8c:	c072                	sw	t3,0(sp)
    bf8e:	00a8f533          	and	a0,a7,a0
    bf92:	01f85813          	srli	a6,a6,0x1f
    bf96:	0065e5b3          	or	a1,a1,t1
    bf9a:	c905                	beqz	a0,bfca <__trunctfdf2+0x86>
    bf9c:	7771                	lui	a4,0xffffc
    bf9e:	40070713          	addi	a4,a4,1024 # ffffc400 <_eusrstack+0xdfff4400>
    bfa2:	963a                	add	a2,a2,a4
    bfa4:	7fe00713          	li	a4,2046
    bfa8:	04c75d63          	bge	a4,a2,c002 <__trunctfdf2+0xbe>
    bfac:	7ff00613          	li	a2,2047
    bfb0:	4701                	li	a4,0
    bfb2:	4781                	li	a5,0
    bfb4:	0732                	slli	a4,a4,0xc
    bfb6:	0652                	slli	a2,a2,0x14
    bfb8:	8331                	srli	a4,a4,0xc
    bfba:	087e                	slli	a6,a6,0x1f
    bfbc:	8f51                	or	a4,a4,a2
    bfbe:	01076733          	or	a4,a4,a6
    bfc2:	853e                	mv	a0,a5
    bfc4:	85ba                	mv	a1,a4
    bfc6:	0141                	addi	sp,sp,16
    bfc8:	8082                	ret
    bfca:	8fd5                	or	a5,a5,a3
    bfcc:	8fcd                	or	a5,a5,a1
    bfce:	01c7e7b3          	or	a5,a5,t3
    bfd2:	e205                	bnez	a2,bff2 <__trunctfdf2+0xae>
    bfd4:	cbf1                	beqz	a5,c0a8 <__trunctfdf2+0x164>
    bfd6:	4781                	li	a5,0
    bfd8:	4695                	li	a3,5
    bfda:	0036d593          	srli	a1,a3,0x3
    bfde:	00979713          	slli	a4,a5,0x9
    bfe2:	01d79693          	slli	a3,a5,0x1d
    bfe6:	00b6e7b3          	or	a5,a3,a1
    bfea:	8331                	srli	a4,a4,0xc
    bfec:	7ff67613          	andi	a2,a2,2047
    bff0:	b7d1                	j	bfb4 <__trunctfdf2+0x70>
    bff2:	dfcd                	beqz	a5,bfac <__trunctfdf2+0x68>
    bff4:	4801                	li	a6,0
    bff6:	7ff00613          	li	a2,2047
    bffa:	00080737          	lui	a4,0x80
    bffe:	4781                	li	a5,0
    c000:	bf55                	j	bfb4 <__trunctfdf2+0x70>
    c002:	0ac04663          	bgtz	a2,c0ae <__trunctfdf2+0x16a>
    c006:	fcc00793          	li	a5,-52
    c00a:	0ef64f63          	blt	a2,a5,c108 <__trunctfdf2+0x1c4>
    c00e:	03d00793          	li	a5,61
    c012:	40c78633          	sub	a2,a5,a2
    c016:	40565793          	srai	a5,a2,0x5
    c01a:	00080737          	lui	a4,0x80
    c01e:	8dd9                	or	a1,a1,a4
    c020:	00279513          	slli	a0,a5,0x2
    c024:	870a                	mv	a4,sp
    c026:	4681                	li	a3,0
    c028:	c62e                	sw	a1,12(sp)
    c02a:	00a108b3          	add	a7,sp,a0
    c02e:	0711                	addi	a4,a4,4
    c030:	8a7d                	andi	a2,a2,31
    c032:	01c6e6b3          	or	a3,a3,t3
    c036:	01170963          	beq	a4,a7,c048 <__trunctfdf2+0x104>
    c03a:	00072e03          	lw	t3,0(a4) # 80000 <_data_lma+0x728f0>
    c03e:	0711                	addi	a4,a4,4
    c040:	01c6e6b3          	or	a3,a3,t3
    c044:	ff171be3          	bne	a4,a7,c03a <__trunctfdf2+0xf6>
    c048:	470d                	li	a4,3
    c04a:	8f1d                	sub	a4,a4,a5
    c04c:	ca79                	beqz	a2,c122 <__trunctfdf2+0x1de>
    c04e:	01010893          	addi	a7,sp,16
    c052:	98aa                	add	a7,a7,a0
    c054:	ff08a883          	lw	a7,-16(a7)
    c058:	02000e13          	li	t3,32
    c05c:	40ce0e33          	sub	t3,t3,a2
    c060:	01c898b3          	sll	a7,a7,t3
    c064:	0116e6b3          	or	a3,a3,a7
    c068:	cb75                	beqz	a4,c15c <__trunctfdf2+0x218>
    c06a:	070a                	slli	a4,a4,0x2
    c06c:	950a                	add	a0,a0,sp
    c06e:	00e10eb3          	add	t4,sp,a4
    c072:	888a                	mv	a7,sp
    c074:	410c                	lw	a1,0(a0)
    c076:	00452303          	lw	t1,4(a0)
    c07a:	0891                	addi	a7,a7,4
    c07c:	00c5d5b3          	srl	a1,a1,a2
    c080:	01c31333          	sll	t1,t1,t3
    c084:	0065e5b3          	or	a1,a1,t1
    c088:	feb8ae23          	sw	a1,-4(a7)
    c08c:	0511                	addi	a0,a0,4
    c08e:	ff1e93e3          	bne	t4,a7,c074 <__trunctfdf2+0x130>
    c092:	4591                	li	a1,4
    c094:	40f587b3          	sub	a5,a1,a5
    c098:	45b2                	lw	a1,12(sp)
    c09a:	0808                	addi	a0,sp,16
    c09c:	972a                	add	a4,a4,a0
    c09e:	00c5d5b3          	srl	a1,a1,a2
    c0a2:	feb72823          	sw	a1,-16(a4)
    c0a6:	a861                	j	c13e <__trunctfdf2+0x1fa>
    c0a8:	4601                	li	a2,0
    c0aa:	4701                	li	a4,0
    c0ac:	b721                	j	bfb4 <__trunctfdf2+0x70>
    c0ae:	00469713          	slli	a4,a3,0x4
    c0b2:	00479513          	slli	a0,a5,0x4
    c0b6:	01c76733          	or	a4,a4,t3
    c0ba:	82f1                	srli	a3,a3,0x1c
    c0bc:	83f1                	srli	a5,a5,0x1c
    c0be:	0592                	slli	a1,a1,0x4
    c0c0:	00e03733          	snez	a4,a4
    c0c4:	8ec9                	or	a3,a3,a0
    c0c6:	8fcd                	or	a5,a5,a1
    c0c8:	8ed9                	or	a3,a3,a4
    c0ca:	0076f713          	andi	a4,a3,7
    c0ce:	c711                	beqz	a4,c0da <__trunctfdf2+0x196>
    c0d0:	00f6f713          	andi	a4,a3,15
    c0d4:	4591                	li	a1,4
    c0d6:	02b71c63          	bne	a4,a1,c10e <__trunctfdf2+0x1ca>
    c0da:	00800737          	lui	a4,0x800
    c0de:	8f7d                	and	a4,a4,a5
    c0e0:	ee070de3          	beqz	a4,bfda <__trunctfdf2+0x96>
    c0e4:	0605                	addi	a2,a2,1
    c0e6:	7ff00713          	li	a4,2047
    c0ea:	ece601e3          	beq	a2,a4,bfac <__trunctfdf2+0x68>
    c0ee:	ff800737          	lui	a4,0xff800
    c0f2:	177d                	addi	a4,a4,-1
    c0f4:	8f7d                	and	a4,a4,a5
    c0f6:	01d71793          	slli	a5,a4,0x1d
    c0fa:	828d                	srli	a3,a3,0x3
    c0fc:	0726                	slli	a4,a4,0x9
    c0fe:	7ff67613          	andi	a2,a2,2047
    c102:	8fd5                	or	a5,a5,a3
    c104:	8331                	srli	a4,a4,0xc
    c106:	b57d                	j	bfb4 <__trunctfdf2+0x70>
    c108:	4685                	li	a3,1
    c10a:	4781                	li	a5,0
    c10c:	4601                	li	a2,0
    c10e:	ffc6b713          	sltiu	a4,a3,-4
    c112:	00174713          	xori	a4,a4,1
    c116:	97ba                	add	a5,a5,a4
    c118:	00800737          	lui	a4,0x800
    c11c:	0691                	addi	a3,a3,4
    c11e:	8f7d                	and	a4,a4,a5
    c120:	b7c1                	j	c0e0 <__trunctfdf2+0x19c>
    c122:	858a                	mv	a1,sp
    c124:	00a588b3          	add	a7,a1,a0
    c128:	0008a883          	lw	a7,0(a7)
    c12c:	0591                	addi	a1,a1,4
    c12e:	0605                	addi	a2,a2,1
    c130:	ff15ae23          	sw	a7,-4(a1) # 8000fffc <_eusrstack+0x60007ffc>
    c134:	fec758e3          	bge	a4,a2,c124 <__trunctfdf2+0x1e0>
    c138:	4711                	li	a4,4
    c13a:	40f707b3          	sub	a5,a4,a5
    c13e:	078a                	slli	a5,a5,0x2
    c140:	978a                	add	a5,a5,sp
    c142:	0818                	addi	a4,sp,16
    c144:	0007a023          	sw	zero,0(a5) # 400000 <_data_lma+0x3f28f0>
    c148:	0791                	addi	a5,a5,4
    c14a:	fee79de3          	bne	a5,a4,c144 <__trunctfdf2+0x200>
    c14e:	4702                	lw	a4,0(sp)
    c150:	00d036b3          	snez	a3,a3
    c154:	4792                	lw	a5,4(sp)
    c156:	8ed9                	or	a3,a3,a4
    c158:	4601                	li	a2,0
    c15a:	bf85                	j	c0ca <__trunctfdf2+0x186>
    c15c:	4785                	li	a5,1
    c15e:	4701                	li	a4,0
    c160:	bf2d                	j	c09a <__trunctfdf2+0x156>

0000c162 <__clzsi2>:
    c162:	67c1                	lui	a5,0x10
    c164:	02f57e63          	bgeu	a0,a5,c1a0 <__clzsi2+0x3e>
    c168:	0ff00793          	li	a5,255
    c16c:	02000713          	li	a4,32
    c170:	00a7ec63          	bltu	a5,a0,c188 <__clzsi2+0x26>
    c174:	00001797          	auipc	a5,0x1
    c178:	03078793          	addi	a5,a5,48 # d1a4 <__clz_tab>
    c17c:	97aa                	add	a5,a5,a0
    c17e:	0007c503          	lbu	a0,0(a5)
    c182:	40a70533          	sub	a0,a4,a0
    c186:	8082                	ret
    c188:	8121                	srli	a0,a0,0x8
    c18a:	00001797          	auipc	a5,0x1
    c18e:	01a78793          	addi	a5,a5,26 # d1a4 <__clz_tab>
    c192:	97aa                	add	a5,a5,a0
    c194:	0007c503          	lbu	a0,0(a5)
    c198:	4761                	li	a4,24
    c19a:	40a70533          	sub	a0,a4,a0
    c19e:	8082                	ret
    c1a0:	010007b7          	lui	a5,0x1000
    c1a4:	00f56e63          	bltu	a0,a5,c1c0 <__clzsi2+0x5e>
    c1a8:	8161                	srli	a0,a0,0x18
    c1aa:	00001797          	auipc	a5,0x1
    c1ae:	ffa78793          	addi	a5,a5,-6 # d1a4 <__clz_tab>
    c1b2:	97aa                	add	a5,a5,a0
    c1b4:	0007c503          	lbu	a0,0(a5)
    c1b8:	4721                	li	a4,8
    c1ba:	40a70533          	sub	a0,a4,a0
    c1be:	8082                	ret
    c1c0:	8141                	srli	a0,a0,0x10
    c1c2:	00001797          	auipc	a5,0x1
    c1c6:	fe278793          	addi	a5,a5,-30 # d1a4 <__clz_tab>
    c1ca:	97aa                	add	a5,a5,a0
    c1cc:	0007c503          	lbu	a0,0(a5)
    c1d0:	4741                	li	a4,16
    c1d2:	40a70533          	sub	a0,a4,a0
    c1d6:	8082                	ret

0000c1d8 <_close>:
    c1d8:	05800793          	li	a5,88
    c1dc:	66f1a423          	sw	a5,1640(gp) # 20001f50 <errno>
    c1e0:	557d                	li	a0,-1
    c1e2:	8082                	ret

0000c1e4 <_fstat>:
    c1e4:	05800793          	li	a5,88
    c1e8:	66f1a423          	sw	a5,1640(gp) # 20001f50 <errno>
    c1ec:	557d                	li	a0,-1
    c1ee:	8082                	ret

0000c1f0 <_isatty>:
    c1f0:	05800793          	li	a5,88
    c1f4:	66f1a423          	sw	a5,1640(gp) # 20001f50 <errno>
    c1f8:	4501                	li	a0,0
    c1fa:	8082                	ret

0000c1fc <_lseek>:
    c1fc:	05800793          	li	a5,88
    c200:	66f1a423          	sw	a5,1640(gp) # 20001f50 <errno>
    c204:	557d                	li	a0,-1
    c206:	8082                	ret

0000c208 <_read>:
    c208:	05800793          	li	a5,88
    c20c:	66f1a423          	sw	a5,1640(gp) # 20001f50 <errno>
    c210:	557d                	li	a0,-1
    c212:	8082                	ret

0000c214 <_sbrk>:
    c214:	84018793          	addi	a5,gp,-1984 # 20001128 <heap_end.1518>
    c218:	439c                	lw	a5,0(a5)
    c21a:	c791                	beqz	a5,c226 <_sbrk+0x12>
    c21c:	953e                	add	a0,a0,a5
    c21e:	84a1a023          	sw	a0,-1984(gp) # 20001128 <heap_end.1518>
    c222:	853e                	mv	a0,a5
    c224:	8082                	ret
    c226:	66c18793          	addi	a5,gp,1644 # 20001f54 <_ebss>
    c22a:	953e                	add	a0,a0,a5
    c22c:	84a1a023          	sw	a0,-1984(gp) # 20001128 <heap_end.1518>
    c230:	853e                	mv	a0,a5
    c232:	8082                	ret
    c234:	3f36                	fld	ft10,360(sp)
    c236:	1fff                	0x1fff
    c238:	3f48                	fld	fa0,184(a4)
    c23a:	1fff                	0x1fff
    c23c:	3f50                	fld	fa2,184(a4)
    c23e:	1fff                	0x1fff
    c240:	3f5a                	fld	ft10,432(sp)
    c242:	1fff                	0x1fff
    c244:	3f48                	fld	fa0,184(a4)
    c246:	1fff                	0x1fff
    c248:	0008                	0x8
    c24a:	0000                	unimp
    c24c:	0031                	c.nop	12
    c24e:	0000                	unimp
    c250:	0000                	unimp
    c252:	0000                	unimp
    c254:	0101                	addi	sp,sp,0
    c256:	0000                	unimp
    c258:	0000                	unimp
    c25a:	0000                	unimp
    c25c:	3025                	jal	ba84 <__unorddf2+0x20>
    c25e:	7832                	flw	fa6,44(sp)
    c260:	0020                	addi	s0,sp,8
    c262:	0000                	unimp
    c264:	2045                	jal	c304 <mb_reg_segs+0x64>
    c266:	7325                	lui	t1,0xfffe9
    c268:	203a                	fld	ft0,392(sp)
    c26a:	7325                	lui	t1,0xfffe9
    c26c:	0a0d                	addi	s4,s4,3
    c26e:	0000                	unimp
    c270:	73252057          	0x73252057
    c274:	203a                	fld	ft0,392(sp)
    c276:	7325                	lui	t1,0xfffe9
    c278:	0a0d                	addi	s4,s4,3
    c27a:	0000                	unimp
    c27c:	2044                	fld	fs1,128(s0)
    c27e:	7325                	lui	t1,0xfffe9
    c280:	203a                	fld	ft0,392(sp)
    c282:	7325                	lui	t1,0xfffe9
    c284:	0a0d                	addi	s4,s4,3
    c286:	0000                	unimp
    c288:	2056                	fld	ft0,336(sp)
    c28a:	7325                	lui	t1,0xfffe9
    c28c:	203a                	fld	ft0,392(sp)
    c28e:	7325                	lui	t1,0xfffe9
    c290:	0a0d                	addi	s4,s4,3
    c292:	0000                	unimp
    c294:	2049                	jal	c316 <mb_reg_segs+0x76>
    c296:	7325                	lui	t1,0xfffe9
    c298:	203a                	fld	ft0,392(sp)
    c29a:	7325                	lui	t1,0xfffe9
    c29c:	0a0d                	addi	s4,s4,3
	...

0000c2a0 <mb_reg_segs>:
    c2a0:	0000 0000 0000 0070 113c 2000 0001 0000     ......p.<.. ....
    c2b0:	0080 0007 112c 2000 0002 0000 ffdc 000f     ....,.. ........
    c2c0:	121c 2000 0001 0000 fffa 0002 1100 2000     ... ........... 
    c2d0:	460a 4e49 2044 4c41 0d4c 0000 3025 5832     .FIND ALL...%02X
    c2e0:	0020 0000 bae5 e58f b78f b8e4 efba 9abc      ...............
    c2f0:	2520 0d64 000a 0000 6564 6574 7463 7320      %d.....detect s
    c300:	6174 7472 253a 0d73 000a 0000 6564 6574     tart:%s.....dete
    c310:	7463 6620 6e69 7369 3a68 7325 0a0d 0000     ct finish:%s....
    c320:	3225 2078 0a0d 0000 6572 6461 7562 6666     %2x ....readbuff
    c330:	7265 253a 7832 0d20 000a 0000 6573 7261     er:%2x .....sear
    c340:	6863 7320 6174 7472 253a 0d73 000a 0000     ch start:%s.....
    c350:	6573 7261 6863 6620 6e69 7369 3a68 7325     search finish:%s
    c360:	0a0d 0000                                   ....

0000c364 <__FUNCTION__.4199>:
    c364:	574f 6553 7261 6863 0000 0000               OWSearch....

0000c370 <__FUNCTION__.4273>:
    c370:	5344 3432 3038 5f42 6544 6574 7463 0000     DS2480B_Detect..

0000c380 <dscrc_table>:
    c380:	5e00 e2bc 3f61 83dd 9cc2 207e fda3 411f     .^..a?....~ ...A
    c390:	c39d 7f21 a2fc 1e40 015f bde3 603e dc82     ..!...@._...>`..
    c3a0:	7d23 c19f 1c42 a0fe bfe1 035d de80 623c     #}..B.....]...<b
    c3b0:	e0be 5c02 81df 3d63 227c 9ec0 431d ffa1     ...\..c=|"...C..
    c3c0:	1846 a4fa 7927 c59b da84 6638 bbe5 0759     F...'y....8f..Y.
    c3d0:	85db 3967 e4ba 5806 4719 fba5 2678 9ac4     ..g9...X.G..x&..
    c3e0:	3b65 87d9 5a04 e6b8 f9a7 451b 98c6 247a     e;...Z.....E..z$
    c3f0:	a6f8 1a44 c799 7b25 643a d886 055b b9e7     ..D...%{:d..[...
    c400:	d28c 6e30 b3ed 0f51 104e acf2 712f cd93     ..0n..Q.N.../q..
    c410:	4f11 f3ad 2e70 92cc 8dd3 316f ecb2 500e     .O..p.....o1...P
    c420:	f1af 4d13 90ce 2c72 336d 8fd1 520c eeb0     ...M..r,m3...R..
    c430:	6c32 d08e 0d53 b1ef aef0 124c cf91 732d     2l..S.....L...-s
    c440:	94ca 2876 f5ab 4917 5608 eab4 3769 8bd5     ..v(...I.V..i7..
    c450:	0957 b5eb 6836 d48a cb95 7729 aaf4 1648     W...6h....)w..H.
    c460:	b7e9 0b55 d688 6a34 752b c997 144a a8f6     ..U...4j+u..J...
    c470:	2a74 96c8 4b15 f7a9 e8b6 540a 89d7 356b     t*...K.....T..k5
    c480:	5882 ffff 58a4 ffff 58ae ffff 58b8 ffff     .X...X...X...X..
    c490:	58c2 ffff 58cc ffff 58d6 ffff 7061 2070     .X...X...X..app 
    c4a0:	7473 7261 2074 2e2e 0d2e 0000 616d 6e69     start ......main
    c4b0:	6c20 6f6f 2070 7473 7261 2074 2e2e 0d2e      loop start ....
    c4c0:	0000 0000 7372 2874 0000 0000 7773 7220     ....rst(....sw r
    c4d0:	7365 7465 0000 0000 6f70 6577 6f72 006e     eset....poweron.
    c4e0:	6477 0074 616d 756e 6c61 7220 7365 7465     wdt.manual reset
    c4f0:	0000 0000 6f73 7466 6177 6572 7720 6b61     ....software wak
    c500:	7565 0070 6873 7475 6f64 6e77 7720 6b61     eup.shutdown wak
    c510:	7565 0070 6477 2074 6177 656b 7075 0000     eup.wdt wakeup..
    c520:	616d 756e 6c61 7720 6b61 7565 0070 0000     manual wakeup...
    c530:	0d29 0000 6564 6976 6563 6469 003a 0000     )...deviceid:...
    c540:	3025 7832 0000 0000 000d 0000               %02x........

0000c54c <__FUNCTION__.4089>:
    c54c:	6663 5f67 6567 5f74 626d 755f 7261 0074     cfg_get_mb_uart.

0000c55c <__FUNCTION__.4094>:
    c55c:	6663 5f67 7075 6164 6574 6d5f 5f62 6175     cfg_update_mb_ua
    c56c:	7472 0000                                   rt..

0000c570 <__FUNCTION__.4111>:
    c570:	6663 5f67 6567 5f74 626d 615f 6464 0072     cfg_get_mb_addr.
    c580:	2045 7325 203a 7325 6e3a 746f 6920 696e     E %s: %s:not ini
    c590:	0d74 000a 2049 7325 203a 3025 5834 6e20     t...I %s: %04X n
    c5a0:	746f 6620 756f 646e 202e 7277 7469 2065     ot found. write 
    c5b0:	656e 2077 6e6f 2e65 0a0d 0000 2045 7325     new one.....E %s
    c5c0:	203a 6166 6c69 7420 206f 6173 6576 2520     : fail to save %
    c5d0:	2e73 0a0d 0000 0000 2045 7325 203a 6166     s.......E %s: fa
    c5e0:	6c69 7420 206f 6567 2074 3025 5834 0a0d     il to get %04X..
    c5f0:	0000 0000 4643 0047 2045 7325 203a 6166     ....CFG.E %s: fa
    c600:	6c69 7420 206f 6e65 6f63 6564 2520 3430     il to encode %04
    c610:	0d58 000a 2045 7325 203a 6166 6c69 7420     X...E %s: fail t
    c620:	206f 6173 6576 2520 3430 2e58 0a0d 0000     o save %04X.....
    c630:	5047 4f49 0000 0000 2045 7325 203a 6e69     GPIO....E %s: in
    c640:	6176 696c 2064 7067 6f69 6e20 6d75 2528     valid gpio num(%
    c650:	2964 0a0d 0000 0000                         d)......

0000c658 <CSWTCH.34>:
    c658:	c86c 0000 c878 0000 c88c 0000 c8a0 0000     l...x...........
    c668:	c8b8 0000 c8cc 0000 c8e0 0000 c8f4 0000     ................
    c678:	c908 0000 c91c 0000 c938 0000 c958 0000     ........8...X...
    c688:	c970 0000 695b 766e 6c61 6469 4d20 646f     p...[invalid Mod
    c698:	7562 4573 7272 726f 005d 0000 4f4d 4244     busError]...MODB
    c6a8:	5355 525f 4745 5f51 5f52 4843 4345 004b     US_REGQ_R_CHECK.
    c6b8:	4f4d 4244 5355 525f 4745 5f51 5f57 4843     MODBUS_REGQ_W_CH
    c6c8:	4345 004b 4f4d 4244 5355 525f 4745 5f51     ECK.MODBUS_REGQ_
    c6d8:	0052 0000 4f4d 4244 5355 525f 4745 5f51     R...MODBUS_REGQ_
    c6e8:	0057 0000 4f4d 4244 5355 485f 4c4f 4944     W...MODBUS_HOLDI
    c6f8:	474e 525f 4745 5349 4554 0052 4f4d 4244     NG_REGISTER.MODB
    c708:	5355 495f 504e 5455 525f 4745 5349 4554     US_INPUT_REGISTE
    c718:	0052 0000 4f4d 4244 5355 435f 494f 004c     R...MODBUS_COIL.
    c728:	4f4d 4244 5355 445f 5349 5243 5445 5f45     MODBUS_DISCRETE_
    c738:	4e49 5550 0054 0000 4f4d 4244 5355 455f     INPUT...MODBUS_E
    c748:	4358 5045 4e5f 4e4f 0045 0000 4f4d 4244     XCEP_NONE...MODB
    c758:	5355 455f 4358 5045 495f 4c4c 4745 4c41     US_EXCEP_ILLEGAL
    c768:	465f 4e55 5443 4f49 004e 0000 4f4d 4244     _FUNCTION...MODB
    c778:	5355 455f 4358 5045 495f 4c4c 4745 4c41     US_EXCEP_ILLEGAL
    c788:	415f 4444 4552 5353 0000 0000 4f4d 4244     _ADDRESS....MODB
    c798:	5355 455f 4358 5045 495f 4c4c 4745 4c41     US_EXCEP_ILLEGAL
    c7a8:	565f 4c41 4555 0000 4f4d 4244 5355 455f     _VALUE..MODBUS_E
    c7b8:	4358 5045 535f 414c 4556 465f 4941 554c     XCEP_SLAVE_FAILU
    c7c8:	4552 0000 4f4d 4244 5355 455f 4358 5045     RE..MODBUS_EXCEP
    c7d8:	415f 4b43 0000 0000 4f4d 4244 5355 455f     _ACK....MODBUS_E
    c7e8:	4358 5045 4e5f 4341 004b 0000 4f4d 4244     XCEP_NACK...MODB
    c7f8:	5355 455f 5252 524f 535f 554f 4352 5f45     US_ERROR_SOURCE_
    c808:	4547 454e 4152 004c 4f4d 4244 5355 455f     GENERAL.MODBUS_E
    c818:	5252 524f 535f 554f 4352 5f45 4552 5551     RROR_SOURCE_REQU
    c828:	5345 0054 4f4d 4244 5355 455f 5252 524f     EST.MODBUS_ERROR
    c838:	535f 554f 4352 5f45 4552 5053 4e4f 4553     _SOURCE_RESPONSE
    c848:	0000 0000 4f4d 4244 5355 455f 5252 524f     ....MODBUS_ERROR
    c858:	535f 554f 4352 5f45 4552 4553 5652 4445     _SOURCE_RESERVED
    c868:	0000 0000 4f4d 4244 5355 4f5f 004b 0000     ....MODBUS_OK...
    c878:	4f4d 4244 5355 455f 5252 524f 4c5f 4e45     MODBUS_ERROR_LEN
    c888:	5447 0048 4f4d 4244 5355 455f 5252 524f     GTH.MODBUS_ERROR
    c898:	415f 4c4c 434f 0000 4f4d 4244 5355 455f     _ALLOC..MODBUS_E
    c8a8:	5252 524f 465f 4e55 5443 4f49 004e 0000     RROR_FUNCTION...
    c8b8:	4f4d 4244 5355 455f 5252 524f 435f 554f     MODBUS_ERROR_COU
    c8c8:	544e 0000 4f4d 4244 5355 455f 5252 524f     NT..MODBUS_ERROR
    c8d8:	495f 444e 5845 0000 4f4d 4244 5355 455f     _INDEX..MODBUS_E
    c8e8:	5252 524f 565f 4c41 4555 0000 4f4d 4244     RROR_VALUE..MODB
    c8f8:	5355 455f 5252 524f 525f 4e41 4547 0000     US_ERROR_RANGE..
    c908:	4f4d 4244 5355 455f 5252 524f 435f 4352     MODBUS_ERROR_CRC
    c918:	0000 0000 4f4d 4244 5355 455f 5252 524f     ....MODBUS_ERROR
    c928:	425f 4441 505f 4f52 4f54 4f43 004c 0000     _BAD_PROTOCOL...
    c938:	4f4d 4244 5355 455f 5252 524f 425f 4441     MODBUS_ERROR_BAD
    c948:	545f 4152 534e 4341 4954 4e4f 0000 0000     _TRANSACTION....
    c958:	4f4d 4244 5355 455f 5252 524f 415f 4444     MODBUS_ERROR_ADD
    c968:	4552 5353 0000 0000 4f4d 4244 5355 455f     RESS....MODBUS_E
    c978:	5252 524f 4f5f 4854 5245 0000 2045 7325     RROR_OTHER..E %s
    c988:	203a 6f6d 6264 7375 7020 7261 6573 6520     : modbus parse e
    c998:	7272 2528 3230 3a78 7325 0d29 000a 0000     rr(%02x:%s).....
    c9a8:	2044 7325 203a 7872 0d3a 000a 6f6d 6264     D %s: rx:...modb
    c9b8:	7375 6620 6172 656d 6520 7272 0000 0000     us frame err....
    c9c8:	2045 7325 203a 6c73 7661 2065 6e69 7469     E %s: slave init
    c9d8:	6620 6961 656c 2e64 0a0d 0000 424d 0000      failed.....MB..
    c9e8:	2044 7325 203a 6c73 7661 2065 6e69 7469     D %s: slave init
    c9f8:	202c 6461 7264 253a 2c64 6220 7561 7264     , addr:%d, baudr
    ca08:	7461 3a65 6425 0a0d 0000 0000 4553 534e     ate:%d......SENS
    ca18:	524f 0000 2045 7325 203a 6e75 6e6b 776f     OR..E %s: unknow
    ca28:	206e 706f 7265 7461 6f69 286e 6425 0d29     n operation(%d).
    ca38:	000a 0000                                   ....

0000ca3c <__FUNCTION__.4144>:
    ca3c:	7473 725f 6165 696c 6e67 0000               st_realign..

0000ca48 <__FUNCTION__.4169>:
    ca48:	7473 645f 6c65 7465 5f65 7469 6d65 775f     st_delete_item_w
    ca58:	7469 5f68 6f6c 0063 2045 7325 203a 7325     ith_loc.E %s: %s
    ca68:	703a 7261 6d61 6520 7272 0a0d 0000 0000     :param err......
    ca78:	2045 7325 203a 7325 693a 766e 6c61 6469     E %s: %s:invalid
    ca88:	7020 6761 2065 6469 2878 6425 0d29 000a      page idx(%d)...
    ca98:	2044 7325 203a 7325 743a 7261 6567 2074     D %s: %s:target 
    caa8:	6170 6567 6920 2073 6d65 7470 0d79 000a     page is empty...
    cab8:	2045 7325 203a 7325 663a 6961 206c 6f74     E %s: %s:fail to
    cac8:	7220 6165 2064 6568 6461 7265 0a0d 0000      read header....
    cad8:	2045 7325 203a 7325 693a 7864 6e20 746f     E %s: %s:idx not
    cae8:	6d20 7461 6863 202c 7865 6570 7463 2520      match, expect %
    caf8:	3430 2058 7562 2074 3025 5834 6620 756f     04X but %04X fou
    cb08:	646e 0a0d 0000 0000 2044 7325 203a 6564     nd......D %s: de
    cb18:	656c 6574 6920 6574 286d 6469 3a78 3025     lete item(idx:%0
    cb28:	5834 2029 7266 6d6f 7020 6761 2065 6425     4X) from page %d
    cb38:	202c 666f 7366 7465 253a 0d64 000a 0000     , offset:%d.....
    cb48:	2045 7325 203a 7325 663a 6961 206c 6f74     E %s: %s:fail to
    cb58:	7720 6972 6574 6820 6165 6564 0d72 000a      write header...
    cb68:	2045 7325 203a 7265 7361 2065 7265 2e72     E %s: erase err.
    cb78:	0a0d 0000 2045 7325 203a 6166 6c69 7420     ....E %s: fail t
    cb88:	206f 6572 6461 6920 6574 206d 6568 6461     o read item head
    cb98:	7265 0d2e 000a 0000 2044 7325 203a 6966     er......D %s: fi
    cba8:	646e 6920 7864 2520 3430 2058 6e69 7020     nd idx %04X in p
    cbb8:	6761 2065 6425 7720 7469 2068 666f 7366     age %d with offs
    cbc8:	7465 2520 0d64 000a 2045 7325 203a 6166     et %d...E %s: fa
    cbd8:	6c69 7420 206f 6572 6461 6920 6574 206d     il to read item 
    cbe8:	6f63 746e 6e65 2e74 0a0d 0000 2045 7325     content.....E %s
    cbf8:	203a 7469 6d65 7620 7265 6669 2079 6166     : item verify fa
    cc08:	6c69 6465 0d2e 000a 2045 7325 203a 6166     iled....E %s: fa
    cc18:	6c69 7420 206f 6564 656c 6574 6c20 7361     il to delete las
    cc28:	2074 6572 6f63 6472 0a0d 0000 2045 7325     t record....E %s
    cc38:	203a 6166 6c69 7420 206f 6564 656c 6574     : fail to delete
    cc48:	6920 6574 0d6d 000a 2045 7325 203a 6166      item...E %s: fa
    cc58:	6c69 7420 206f 6572 6461 7020 6761 2065     il to read page 
    cc68:	7473 7461 7375 0a0d 0000 0000 2044 7325     status......D %s
    cc78:	203a 6170 6567 2520 3a64 2520 0d73 000a     : page %d: %s...
    cc88:	2045 7325 203a 6572 6461 6520 7272 0d2e     E %s: read err..
    cc98:	000a 0000 2045 7325 203a 7265 7361 2065     ....E %s: erase 
    cca8:	6863 6365 206b 7265 2e72 0a0d 0000 0000     check err.......
    ccb8:	2045 7325 203a 7265 7361 2065 7265 0d72     E %s: erase err.
    ccc8:	000a 0000 2044 7325 203a 6373 6e61 7020     ....D %s: scan p
    ccd8:	6761 2065 6425 0a0d 0000 0000 2045 7325     age %d......E %s
    cce8:	203a 6166 6c69 7420 206f 6572 6461 6920     : fail to read i
    ccf8:	6574 206d 6568 6461 7265 0a0d 0000 0000     tem header......
    cd08:	2044 7325 203a 7469 6d65 6c20 6e65 253a     D %s: item len:%
    cd18:	2c64 6920 7864 303a 2578 3430 2c78 6320     d, idx:0x%04x, c
    cd28:	6372 253a 3230 0d78 000a 0000 2044 7325     rc:%02x.....D %s
    cd38:	203a 6170 6567 2520 2064 6373 6e61 6620     : page %d scan f
    cd48:	6e69 7369 2c68 2520 2064 7962 6574 2073     inish, %d bytes 
    cd58:	7375 6465 202c 6425 6220 7479 7365 6120     used, %d bytes a
    cd68:	6176 6c69 6261 656c 0a0d 0000 2045 7325     vailable....E %s
    cd78:	203a 6166 6c69 7420 206f 6f6c 6461 7020     : fail to load p
    cd88:	6761 0d65 000a 0000 2045 7325 203a 6e75     age.....E %s: un
    cd98:	6e6b 776f 206e 7473 7461 7375 2528 3230     known status(%02
    cda8:	2978 202c 7265 7361 2065 6877 6c6f 2065     x), erase whole 
    cdb8:	6170 6567 0a0d 0000 2044 7325 203a 6170     page....D %s: pa
    cdc8:	6567 6920 696e 2074 6966 696e 6873 202c     ge init finish, 
    cdd8:	7265 7361 6465 253a 2c64 6120 7463 7669     erased:%d, activ
    cde8:	3a65 6425 0a0d 0000 2045 7325 203a 7265     e:%d....E %s: er
    cdf8:	6361 2065 6863 6365 206b 6166 6c69 6465     ace check failed
    ce08:	202e 7265 7361 2065 6761 6961 0d6e 000a     . erase again...
    ce18:	2044 7325 203a 7265 7361 2065 6170 6567     D %s: erase page
    ce28:	2520 0d64 000a 0000 2045 7325 203a 4545      %d.....E %s: EE
    ce38:	5250 4d4f 6520 6172 6573 6520 7272 0d2e     PROM erase err..
    ce48:	000a 0000 5453 0000 2045 7325 203a 6e69     ....ST..E %s: in
    ce58:	6176 696c 2064 6469 2e78 0a0d 0000 0000     valid idx.......
    ce68:	2045 7325 203a 6e69 6176 696c 2064 666f     E %s: invalid of
    ce78:	7366 7465 6f20 2072 656c 2e6e 0a0d 0000     fset or len.....
    ce88:	2045 7325 203a 4545 5250 4d4f 7720 6972     E %s: EEPROM wri
    ce98:	6574 6520 7272 0d2e 000a 0000 4e55 4e4b     te err......UNKN
    cea8:	574f 004e 5245 5341 4445 0000 5546 4c4c     OWN.ERASED..FULL
    ceb8:	0000 0000 4e55 5641 4941 4241 454c 0000     ....UNAVAIABLE..
    cec8:	4341 4954 4556 0000 2044 7325 203a 6170     ACTIVE..D %s: pa
    ced8:	6567 2520 2064 7473 7461 7375 6320 6168     ge %d status cha
    cee8:	676e 2865 7325 2d20 203e 7325 0d29 000a     nge(%s -> %s)...
    cef8:	2045 7325 203a 6e69 6176 696c 2064 7469     E %s: invalid it
    cf08:	6d65 6920 7864 0d2e 000a 0000 2045 7325     em idx......E %s
    cf18:	203a 6e69 6176 696c 2064 6170 6567 7320     : invalid page s
    cf28:	6174 7574 2e73 0a0d 0000 0000 2044 7325     tatus.......D %s
    cf38:	203a 7277 7469 2065 7469 6d65 6928 7864     : write item(idx
    cf48:	253a 3430 2c58 656c 3a6e 6425 632c 6372     :%04X,len:%d,crc
    cf58:	253a 3230 2958 7420 206f 6170 6567 2520     :%02X) to page %
    cf68:	2c64 6f20 6666 6573 3a74 6425 0a0d 0000     d, offset:%d....
    cf78:	2045 7325 203a 6166 6c69 7420 206f 7277     E %s: fail to wr
    cf88:	7469 2065 7469 6d65 0d2e 000a 2045 7325     ite item....E %s
    cf98:	203a 6166 6c69 7420 206f 7075 6164 6574     : fail to update
    cfa8:	7020 6761 2065 7473 7461 7375 0d2e 000a      page status....
    cfb8:	2045 7325 203a 6166 6c69 7420 206f 6966     E %s: fail to fi
    cfc8:	646e 6920 6574 0d6d 000a 0000 2044 7325     nd item.....D %s
    cfd8:	203a 7325 703a 6761 2065 6f6e 2074 6f66     : %s:page not fo
    cfe8:	6e75 0d64 000a 0000 2044 7325 203a 6170     und.....D %s: pa
    cff8:	6567 2520 2064 6572 6c61 6769 0d6e 000a     ge %d realign...
    d008:	2045 7325 203a 6f6e 6520 6f6e 6775 206e     E %s: no enougn 
    d018:	6170 6567 0d2e 000a 2045 7325 203a 6170     page....E %s: pa
    d028:	6567 2520 2064 6572 6c61 6769 206e 6166     ge %d realign fa
    d038:	6c69 6465 0a0d 0000 2045 7325 203a 6166     iled....E %s: fa
    d048:	6c69 7420 206f 7075 6461 7461 2065 7473     il to upadate st
    d058:	7461 7375 0a0d 0000 2045 7325 203a 6f6e     atus....E %s: no
    d068:	6520 6f6e 6775 2068 7073 6361 0d65 000a      enough space...
    d078:	2045 7325 203a 6f6e 6120 6176 6c69 6261     E %s: no availab
    d088:	656c 7020 6761 0d65 000a 0000 2045 7325     le page.....E %s
    d098:	203a 6166 6c69 7420 206f 7277 7469 2065     : fail to write 
    d0a8:	656e 2077 7469 6d65 0a0d 0000 2045 7325     new item....E %s
    d0b8:	203a 6166 6c69 7420 206f 6564 656c 6574     : fail to delete
    d0c8:	6f20 646c 6920 6574 0d6d 000a 2045 7325      old item...E %s
    d0d8:	203a 6170 6172 206d 7265 0d72 000a 0000     : param err.....
    d0e8:	2045 7325 203a 6f6e 2074 6e69 7469 0a0d     E %s: not init..
    d0f8:	0000 0000 2045 7325 203a 6e69 6176 696c     ....E %s: invali
    d108:	2064 6164 6174 6962 7374 2528 2964 0a0d     d databits(%d)..
    d118:	0000 0000 2045 7325 203a 6e75 7573 7070     ....E %s: unsupp
    d128:	726f 2074 6170 6972 7974 0a0d 0000 0000     ort parity......
    d138:	4155 5452 0000 0000 2045 7325 203a 6e69     UART....E %s: in
    d148:	6176 696c 2064 6175 7472 6e20 6d75 0a0d     valid uart num..
    d158:	0000 0000 2045 7325 203a 6e75 7573 7070     ....E %s: unsupp
    d168:	726f 6574 2064 7473 706f 6962 7374 0a0d     orted stopbits..
    d178:	0000 0000 7912 ffff 793a ffff 7962 ffff     .....y..:y..by..
    d188:	797a ffff 7994 ffff 79a4 ffff 79cc ffff     zy...y...y...y..
    d198:	79f4 ffff 7a0c ffff 7a26 ffff               .y...z..&z..

0000d1a4 <__clz_tab>:
    d1a4:	0100 0202 0303 0303 0404 0404 0404 0404     ................
    d1b4:	0505 0505 0505 0505 0505 0505 0505 0505     ................
    d1c4:	0606 0606 0606 0606 0606 0606 0606 0606     ................
    d1d4:	0606 0606 0606 0606 0606 0606 0606 0606     ................
    d1e4:	0707 0707 0707 0707 0707 0707 0707 0707     ................
    d1f4:	0707 0707 0707 0707 0707 0707 0707 0707     ................
    d204:	0707 0707 0707 0707 0707 0707 0707 0707     ................
    d214:	0707 0707 0707 0707 0707 0707 0707 0707     ................
    d224:	0808 0808 0808 0808 0808 0808 0808 0808     ................
    d234:	0808 0808 0808 0808 0808 0808 0808 0808     ................
    d244:	0808 0808 0808 0808 0808 0808 0808 0808     ................
    d254:	0808 0808 0808 0808 0808 0808 0808 0808     ................
    d264:	0808 0808 0808 0808 0808 0808 0808 0808     ................
    d274:	0808 0808 0808 0808 0808 0808 0808 0808     ................
    d284:	0808 0808 0808 0808 0808 0808 0808 0808     ................
    d294:	0808 0808 0808 0808 0808 0808 0808 0808     ................
    d2a4:	0043 0000 4f50 4953 0058 0000 002e 0000     C...POSIX.......
    d2b4:	0000 0000 ffff ffff ffff 7fef 4e49 0046     ............INF.
    d2c4:	6e69 0066 414e 004e 616e 006e 0030 0000     inf.NAN.nan.0...
    d2d4:	3130 3332 3534 3736 3938 4241 4443 4645     0123456789ABCDEF
    d2e4:	0000 0000 3130 3332 3534 3736 3938 6261     ....0123456789ab
    d2f4:	6463 6665 0000 0000 2565 646c 0000 0000     cdef....e%ld....
    d304:	0000 7fc0 91d4 ffff 91c0 ffff 91f2 ffff     ................
    d314:	91f8 ffff 91d4 ffff 0000 0000 0000 0000     ................
    d324:	0000 3fe0 0000 0000 0000 3ff0 0000 0000     ...?.......?....
    d334:	0000 4000 0000 ffc0 ffff 41df 3595 94a0     ...@.......A.5..
    d344:	ffff 3fdf e535 35af 0000 3fe0 3595 94a0     ...?5..5...?.5..
    d354:	ffff 3fcf 666e 0000 6e69 7469 0079 0000     ...?nf..inity...
    d364:	6e61 0000                                   an..

0000d368 <fpi.3395>:
    d368:	0035 0000 fbce ffff 03cb 0000 0001 0000     5...............
    d378:	0000 0000                                   ....

0000d37c <fpinan.3431>:
    d37c:	0034 0000 fbce ffff 03cb 0000 0001 0000     4...............
    d38c:	0000 0000                                   ....

0000d390 <tinytens>:
    d390:	89bc 97d8 d2b2 3c9c a733 d5a8 f623 3949     .......<3...#.I9
    d3a0:	a73d 44f4 0ffd 32a5 979d cf8c ba08 255b     =..D...2......[%
    d3b0:	6f43 64ac 0628 1168                         Co.d(.h.

0000d3b8 <_ctype_>:
    d3b8:	2000 2020 2020 2020 2020 2828 2828 2028     .         ((((( 
    d3c8:	2020 2020 2020 2020 2020 2020 2020 2020                     
    d3d8:	8820 1010 1010 1010 1010 1010 1010 1010      ...............
    d3e8:	0410 0404 0404 0404 0404 1004 1010 1010     ................
    d3f8:	1010 4141 4141 4141 0101 0101 0101 0101     ..AAAAAA........
    d408:	0101 0101 0101 0101 0101 0101 1010 1010     ................
    d418:	1010 4242 4242 4242 0202 0202 0202 0202     ..BBBBBB........
    d428:	0202 0202 0202 0202 0202 0202 1010 1010     ................
    d438:	0020 0000 0000 0000 0000 0000 0000 0000      ...............
	...
    d4c4:	0000 3ff8 4361 636f 87a7 3fd2 c8b3 8b60     ...?aCoc...?..`.
    d4d4:	8a28 3fc6 79fb 509f 4413 3fd3 0000 0000     (..?.y.P.D.?....
    d4e4:	0000 4024 0000 0000 0000 401c 0000 0000     ..$@.......@....
    d4f4:	0000 4014 6e49 6966 696e 7974 0000 0000     ...@Infinity....
    d504:	614e 004e                                   NaN.

0000d508 <__sf_fake_stderr>:
	...

0000d528 <__sf_fake_stdin>:
	...

0000d548 <__sf_fake_stdout>:
	...

0000d568 <__mprec_bigtens>:
    d568:	8000 37e0 c379 4341 6e17 b505 b8b5 4693     ...7y.AC.n.....F
    d578:	f9f5 e93f 4f03 4d38 1d32 f930 7748 5a82     ..?..O8M2.0.Hw.Z
    d588:	bf3c 7f73 4fdd 7515                         <.s..O.u

0000d590 <__mprec_tens>:
    d590:	0000 0000 0000 3ff0 0000 0000 0000 4024     .......?......$@
    d5a0:	0000 0000 0000 4059 0000 0000 4000 408f     ......Y@.....@.@
    d5b0:	0000 0000 8800 40c3 0000 0000 6a00 40f8     .......@.....j.@
    d5c0:	0000 0000 8480 412e 0000 0000 12d0 4163     .......A......cA
    d5d0:	0000 0000 d784 4197 0000 0000 cd65 41cd     .......A....e..A
    d5e0:	0000 2000 a05f 4202 0000 e800 4876 4237     ... _..B....vH7B
    d5f0:	0000 a200 1a94 426d 0000 e540 309c 42a2     ......mB..@..0.B
    d600:	0000 1e90 bcc4 42d6 0000 2634 6bf5 430c     .......B..4&.k.C
    d610:	8000 37e0 c379 4341 a000 85d8 3457 4376     ...7y.AC....W4vC
    d620:	c800 674e c16d 43ab 3d00 6091 58e4 43e1     ..Ngm..C.=.`.X.C
    d630:	8c40 78b5 af1d 4415 ef50 d6e2 1ae4 444b     @..x...DP.....KD
    d640:	d592 064d f0cf 4480 4af6 c7e1 2d02 44b5     ..M....D.J...-.D
    d650:	9db4 79d9 7843 44ea                         ...yCx.D

0000d658 <p05.3319>:
    d658:	0005 0000 0019 0000 007d 0000 2d23 2b30     ........}...#-0+
    d668:	0020 0000 6c68 004c 6665 4567 4746 0000      ...hlL.efgEFG..
    d678:	d2b6 ffff d13a ffff d24a ffff d252 ffff     ....:...J...R...
    d688:	d24a ffff d16a ffff d24a ffff d252 ffff     J...j...J...R...
    d698:	d13a ffff d13a ffff d16a ffff d252 ffff     :...:...j...R...
    d6a8:	d2ac ffff d2ac ffff d2ac ffff d16a ffff     ............j...
    d6b8:	d9c6 ffff d8b8 ffff d8b8 ffff d8b6 ffff     ................
    d6c8:	d8be ffff d8be ffff d884 ffff d8b6 ffff     ................
    d6d8:	d8be ffff d884 ffff d8be ffff d8b6 ffff     ................
    d6e8:	d9b2 ffff d9b2 ffff d9b2 ffff d884 ffff     ................

0000d6f8 <CSWTCH.31>:
    d6f8:	0804 0201                                   ....

0000d6fc <CSWTCH.32>:
    d6fc:	07d0 07d0 007d 007d                         ....}.}.

0000d704 <CSWTCH.33>:
    d704:	0101 0000                                   ....

0000d708 <modbusSlaveDefaultFunctionCount>:
    d708:	0009 0000                                   ....

0000d70c <_global_impure_ptr>:
    d70c:	1088 2000                                   ... 
